L251 LINKER/LOCATER V4.66.93.0                                                          06/19/2023  16:47:43  PAGE 1


L251 LINKER/LOCATER V4.66.93.0, INVOKED BY:
C:\KEIL_C251\C251\BIN\L251.EXE .\obj\main.obj, .\src\stc_usb_cdc_32g.LIB, .\obj\debug.obj, .\obj\i2c.obj, .\obj\mpu6050.
>> obj, .\obj\pwm.obj, .\obj\spi.obj, .\obj\rf24.obj, .\obj\timer.obj TO .\obj\stc_usb_ser PRINT (.\obj\stc_usb_ser.map)
>>  CASE DISABLEWARNING (57) CLASSES (EDATA (0X0-0XFFF), HDATA (0X0-0XFFF))


CPU MODE:     251 SOURCE MODE
INTR FRAME:   2 BYTES SAVED ON INTERRUPT
MEMORY MODEL: XSMALL WITH FLOATING POINT ARITHMETIC


INPUT MODULES INCLUDED:
  .\obj\main.obj (main)
         COMMENT TYPE 0: C251 V5.60.0
  .\src\stc_usb_cdc_32g.LIB (usb)
         COMMENT TYPE 0: C251 V5.60.0
  .\src\stc_usb_cdc_32g.LIB (util)
         COMMENT TYPE 0: C251 V5.60.0
  .\src\stc_usb_cdc_32g.LIB (usb_req_class)
         COMMENT TYPE 0: C251 V5.60.0
  .\src\stc_usb_cdc_32g.LIB (usb_req_std)
         COMMENT TYPE 0: C251 V5.60.0
  .\src\stc_usb_cdc_32g.LIB (usb_req_vendor)
         COMMENT TYPE 0: C251 V5.60.0
  .\src\stc_usb_cdc_32g.LIB (usb_desc)
         COMMENT TYPE 0: C251 V5.60.0
  .\obj\debug.obj (debug)
         COMMENT TYPE 0: C251 V5.60.0
  .\obj\i2c.obj (i2c)
         COMMENT TYPE 0: C251 V5.60.0
  .\obj\mpu6050.obj (mpu6050)
         COMMENT TYPE 0: C251 V5.60.0
  .\obj\pwm.obj (pwm)
         COMMENT TYPE 0: C251 V5.60.0
  .\obj\spi.obj (spi)
         COMMENT TYPE 0: C251 V5.60.0
  .\obj\rf24.obj (rf24)
         COMMENT TYPE 0: C251 V5.60.0
  .\obj\timer.obj (timer)
         COMMENT TYPE 0: C251 V5.60.0
  C:\KEIL_C251\C251\LIB\C2SFPXS.LIB (VSPRINTF)
         COMMENT TYPE 0: A251 V4.69.6.0
  C:\KEIL_C251\C251\LIB\C2SFPXS.LIB (?C?PRNFMT)
         COMMENT TYPE 0: A251 V4.69.6.0
  C:\KEIL_C251\C251\LIB\C2SFPXS.LIB (?C?FPCONVERT)
         COMMENT TYPE 0: A251 V4.69.6.0
  C:\KEIL_C251\C251\LIB\C2SFPXS.LIB (?C?FPMUL)
         COMMENT TYPE 0: A251 V4.69.6.0
  C:\KEIL_C251\C251\LIB\C2SFPXS.LIB (?C?FPDIV)
         COMMENT TYPE 0: A251 V4.69.6.0
  C:\KEIL_C251\C251\LIB\C2SFPXS.LIB (?C?FTNPWR)
         COMMENT TYPE 0: A251 V4.69.6.0
  C:\KEIL_C251\C251\LIB\C2SFPXS.LIB (?C?FPGETOPN)
         COMMENT TYPE 0: A251 V4.69.6.0
  C:\KEIL_C251\C251\LIB\C2SXS.LIB (?C_START)
         COMMENT TYPE 0: A251 V4.69.6.0
  C:\KEIL_C251\C251\LIB\C2SXS.LIB (?C?INITEDATA)
         COMMENT TYPE 0: A251 V4.69.6.0
  C:\KEIL_C251\C251\LIB\C2SXS.LIB (?C?LMUL)
         COMMENT TYPE 0: A251 V4.69.6.0
  C:\KEIL_C251\C251\LIB\C2SXS.LIB (?C?ULDIV)
         COMMENT TYPE 0: A251 V4.69.6.0
  C:\KEIL_C251\C251\LIB\C2SXS.LIB (STRLEN)
         COMMENT TYPE 0: C251 V5.58.7
  C:\KEIL_C251\C251\LIB\C2SXS.LIB (memcpy)
         COMMENT TYPE 0: C251 V5.58.7
L251 LINKER/LOCATER V4.66.93.0                                                        06/19/2023  16:47:43  PAGE 2


  C:\KEIL_C251\C251\LIB\C2SXS.LIB (?C?INITEDATA_END)
         COMMENT TYPE 0: A251 V4.69.6.0


ACTIVE MEMORY CLASSES OF MODULE:  .\obj\stc_usb_ser (main)

BASE        START       END         USED      MEMORY CLASS
==========================================================
000000H     000000H     000FFFH     0001E4H   EDATA
000000H     000000H     000FFFH               HDATA
000000H     FF0000H     FFFFFFH     0000BDH   HCONST
FF0000H     FF0000H     FFFFFFH     0024ACH   CODE
000020H.0   000020H.0   00002FH.7   000000H.5 BIT
010000H     010000H     01FFFFH     0000C0H   XDATA
FF0000H     FF0000H     FFFFFFH     000004H   CONST
000000H     000000H     00007FH     000008H   DATA


MEMORY MAP OF MODULE:  .\obj\stc_usb_ser (main)


START     STOP      LENGTH    ALIGN  RELOC    MEMORY CLASS   SEGMENT NAME
=========================================================================
000000H   000007H   000008H   ---    AT..     DATA           "REG BANK 0"
000008H   00001BH   000014H   BYTE   UNIT     EDATA          ?ED?USB
00001CH   00001FH   000004H   BYTE   UNIT     EDATA          ?ED?SEG7_SHOWLONG?UTIL
000020H.0 000020H.2 000000H.3 BIT    UNIT     BIT            ?BI?USB
000020H.3 000020H.4 000000H.2 BIT    UNIT     BIT            ?BI?MAIN
000020H.5 000020H   000000H.3 ---    ---      **GAP**
000021H   000054H   000034H   BYTE   UNIT     EDATA          _EDATA_GROUP_
000055H   000086H   000032H   BYTE   UNIT     EDATA          ?ED?MAIN
000087H   0000B2H   00002CH   BYTE   UNIT     EDATA          ?ED?SEG7_SHOWSTRING?UTIL
0000B3H   0000C0H   00000EH   BYTE   UNIT     EDATA          ?ED?MPU6050_READ?MPU6050
0000C1H   0000C8H   000008H   BYTE   UNIT     EDATA          ?ED?REVERSE4?UTIL
0000C9H   0000CFH   000007H   BYTE   UNIT     EDATA          ?ED?USB_REQ_CLASS
0000D0H   0000D4H   000005H   BYTE   UNIT     EDATA          ?ED?LCD12864_SETBUFFER?UTIL
0000D5H   0000D9H   000005H   BYTE   UNIT     EDATA          ?ED?OLED12864_SETBUFFER?UTIL
0000DAH   0000DEH   000005H   BYTE   UNIT     EDATA          ?ED?RF24
0000DFH   0000E2H   000004H   BYTE   UNIT     EDATA          ?ED?I2C_WRITE?I2C
0000E3H   0000E6H   000004H   BYTE   UNIT     EDATA          ?ED?I2C_READ?I2C
0000E7H   0000E8H   000002H   BYTE   UNIT     EDATA          ?ED?LCD12864_SHOWSTRING?UTIL
0000E9H   0000EAH   000002H   BYTE   UNIT     EDATA          ?ED?TIMER
0000EBH   0000EBH   000001H   BYTE   UNIT     EDATA          ?ED?MPU6050_INIT?MPU6050
0000ECH   0000ECH   000001H   BYTE   UNIT     EDATA          ?ED?RF24_RXPACKET?RF24
0000EDH   0001ECH   000100H   BYTE   UNIT     EDATA          ?STACK
0001EDH   00FFFFH   00FE13H   ---    ---      **GAP**
010000H   0100BFH   0000C0H   BYTE   INSEG    XDATA          ?XD?USB
0100C0H   FEFFFFH   FDFF40H   ---    ---      **GAP**
FF0000H   FF0002H   000003H   ---    OFFS..   CODE           ?CO?start251?4
FF0003H   FF0009H   000007H   BYTE   INSEG    CODE           ?PR?RF24_INIT?RF24
FF000AH   FF000AH   000001H   BYTE   INSEG    CODE           ?PR?USB_SUSPEND?USB
FF000BH   FF000DH   000003H   ---    OFFS..   CODE           ?PR?IV?1
FF000EH   FF00B2H   0000A5H   BYTE   INSEG    CODE           ?PR?USB_SET_CONFIGURATION?USB_REQ_STD
FF00B3H   FF00CAH   000018H   BYTE   INSEG    CODE           ?PR?USB_OUT_DONE?USB
FF00CBH   FF00CDH   000003H   ---    OFFS..   CODE           ?PR?IV?25
FF00CEH   FF086BH   00079EH   BYTE   UNIT     CODE           ?C?LIB_CODE
FF086CH   FF0973H   000108H   BYTE   INSEG    CODE           ?PR?MAIN?MAIN
FF0974H   FF0A76H   000103H   BYTE   INSEG    CODE           ?PR?USB_GET_STATUS?USB_REQ_STD
FF0A77H   FF0B3AH   0000C4H   BYTE   INSEG    CODE           ?PR?USB_OUT_EP1?USB
FF0B3BH   FF0BD9H   00009FH   BYTE   INSEG    CODE           ?PR?USB_CLEAR_FEATURE?USB_REQ_STD
FF0BDAH   FF0C78H   00009FH   BYTE   INSEG    CODE           ?PR?USB_GET_DESCRIPTOR?USB_REQ_STD
FF0C79H   FF0D11H   000099H   BYTE   INSEG    CODE           ?PR?USB_SET_FEATURE?USB_REQ_STD
FF0D12H   FF0DA9H   000098H   BYTE   INSEG    CODE           ?PR?OLED12864_SETBUFFER?UTIL
FF0DAAH   FF0E41H   000098H   BYTE   INSEG    CODE           ?PR?LCD12864_SETBUFFER?UTIL
FF0E42H   FF0ECBH   00008AH   BYTE   INSEG    CODE           ?PR?USB_SETUP?USB
L251 LINKER/LOCATER V4.66.93.0                                                        06/19/2023  16:47:43  PAGE 3


FF0ECCH   FF0F50H   000085H   BYTE   INSEG    CODE           ?PR?MPU6050_READ?MPU6050
FF0F51H   FF0FD4H   000084H   BYTE   INSEG    CODE           ?PR?USB_ISR?USB
FF0FD5H   FF1057H   000083H   BYTE   UNIT     CODE           ?CO?USB_DESC
FF1058H   FF10D1H   00007AH   BYTE   INSEG    CODE           ?PR?I2C_READ?I2C
FF10D2H   FF1138H   000067H   BYTE   INSEG    CODE           ?PR?USB_CTRL_IN?USB
FF1139H   FF1199H   000061H   BYTE   INSEG    CODE           ?PR?REVERSE4?UTIL
FF119AH   FF11F7H   00005EH   BYTE   INSEG    CODE           ?PR?USB_INIT?USB
FF11F8H   FF1253H   00005CH   BYTE   INSEG    CODE           ?PR?USB_REQ_STD?USB_REQ_STD
FF1254H   FF12AFH   00005CH   BYTE   INSEG    CODE           ?PR?PWM1N_CONFIG?PWM
FF12B0H   FF130BH   00005CH   BYTE   INSEG    CODE           ?PR?PWM4P_CONFIG?PWM
FF130CH   FF1365H   00005AH   BYTE   INSEG    CODE           ?PR?PWM1P_CONFIG?PWM
FF1366H   FF13BFH   00005AH   BYTE   INSEG    CODE           ?PR?PWM4N_CONFIG?PWM
FF13C0H   FF1415H   000056H   BYTE   INSEG    CODE           ?PR?UPDATE_1MS?MAIN
FF1416H   FF1469H   000054H   BYTE   INSEG    CODE           ?PR?USB_GET_CONFIGURATION?USB_REQ_STD
FF146AH   FF14BCH   000053H   BYTE   INSEG    CODE           ?PR?MPU6050_INIT?MPU6050
FF14BDH   FF150BH   00004FH   BYTE   INSEG    CODE           ?PR?I2C_SCAN?MAIN
FF150CH   FF155AH   00004FH   BYTE   INSEG    CODE           ?PR?LCD12864_SHOWPICTURE?UTIL
FF155BH   FF15A9H   00004FH   BYTE   INSEG    CODE           ?PR?I2C_WRITE?I2C
FF15AAH   FF15F6H   00004DH   BYTE   INSEG    CODE           ?PR?USB_CTRL_OUT?USB
FF15F7H   FF1640H   00004AH   BYTE   INSEG    CODE           ?PR?SYS_INIT?MAIN
FF1641H   FF168AH   00004AH   BYTE   INSEG    CODE           ?PR?USB_SET_ADDRESS?USB_REQ_STD
FF168BH   FF16D3H   000049H   BYTE   INSEG    CODE           ?PR?SEG7_SHOWSTRING?UTIL
FF16D4H   FF171BH   000048H   BYTE   INSEG    CODE           ?PR?USB_RESET?USB
FF171CH   FF1762H   000047H   BYTE   INSEG    CODE           ?PR?LED40_SENDDATA?UTIL
FF1763H   FF17A9H   000047H   BYTE   INSEG    CODE           ?PR?LED64_SENDDATA?UTIL
FF17AAH   FF17F0H   000047H   BYTE   INSEG    CODE           ?PR?PWM_INIT?PWM
FF17F1H   FF1834H   000044H   BYTE   INSEG    CODE           ?PR?RF24_TXPACKET?RF24
FF1835H   FF1875H   000041H   BYTE   INSEG    CODE           ?PR?RF24_READ_BUF?RF24
FF1876H   FF1888H   000013H   BYTE   UNIT     CODE           ?C_C51STARTUP
FF1889H   FF188AH   000002H   BYTE   UNIT     CODE           ?C_C51STARTUP?1
FF188BH   FF18B3H   000029H   BYTE   UNIT     CODE           ?C_C51STARTUP?2
FF18B4H   FF18B6H   000003H   BYTE   UNIT     CODE           ?C_C51STARTUP?3
FF18B7H   FF18F6H   000040H   BYTE   INSEG    CODE           ?PR?OLED12864_SHOWPICTURE?UTIL
FF18F7H   FF1934H   00003EH   BYTE   INSEG    CODE           ?PR?USB_GET_INTERFACE?USB_REQ_STD
FF1935H   FF1971H   00003DH   BYTE   INSEG    CODE           ?PR?KEYRESETSCAN?MAIN
FF1972H   FF19AEH   00003DH   BYTE   INSEG    CODE           ?PR?SEG7_SHOWLONG?UTIL
FF19AFH   FF19EBH   00003DH   BYTE   INSEG    CODE           ?PR?LCD12864_SHOWSTRING?UTIL
FF19ECH   FF1A25H   00003AH   BYTE   INSEG    CODE           ?PR?USB_READ_FIFO?_?USB
FF1A26H   FF1A5FH   00003AH   BYTE   INSEG    CODE           ?PR?OLED12864_SCROLLRIGHT?UTIL
FF1A60H   FF1A99H   00003AH   BYTE   INSEG    CODE           ?PR?OLED12864_SCROLLUP?UTIL
FF1A9AH   FF1AD2H   000039H   BYTE   INSEG    CODE           ?PR?OLED12864_SCROLLLEFT?UTIL
FF1AD3H   FF1B0AH   000038H   BYTE   INSEG    CODE           ?PR?RF24_WRITE_BUF?RF24
FF1B0BH   FF1B3FH   000035H   BYTE   INSEG    CODE           ?PR?SEG7_SHOWCODE?UTIL
FF1B40H   FF1B74H   000035H   BYTE   INSEG    CODE           ?PR?REVERSE2?UTIL
FF1B75H   FF1BA9H   000035H   BYTE   INSEG    CODE           ?PR?RF24_RXPACKET?RF24
FF1BAAH   FF1BDCH   000033H   BYTE   INSEG    CODE           ?PR?SEG7_SHOWFLOAT?UTIL
FF1BDDH   FF1C0FH   000033H   BYTE   INSEG    CODE           ?PR?TIMER0_ISR?TIMER
FF1C10H   FF1C40H   000031H   BYTE   INSEG    CODE           ?PR?TIMER0_INIT?TIMER
FF1C41H   FF1C6FH   00002FH   BYTE   INSEG    CODE           ?PR?USB_IN?USB
FF1C70H   FF1C9CH   00002DH   BYTE   INSEG    CODE           ?PR?USB_IN_EP1?USB
FF1C9DH   FF1CC9H   00002DH   BYTE   INSEG    CODE           ?PR?PRINTF_HID?UTIL
FF1CCAH   FF1CF6H   00002DH   BYTE   INSEG    CODE           ?PR?RF24_SET_RATE?RF24
FF1CF7H   FF1D21H   00002BH   BYTE   INSEG    CODE           ?PR?USB_IN_EP2?USB
FF1D22H   FF1D4AH   000029H   BYTE   INSEG    CODE           ?PR?USB_WRITE_FIFO?_?USB
FF1D4BH   FF1D72H   000028H   BYTE   INSEG    CODE           ?PR?USB_SET_INTERFACE?USB_REQ_STD
FF1D73H   FF1D9AH   000028H   BYTE   INSEG    CODE           ?PR?DEBUG_INIT?DEBUG
FF1D9BH   FF1DC1H   000027H   BYTE   INSEG    CODE           ?PR?LCD12864_SCROLLUP?UTIL
FF1DC2H   FF1DE7H   000026H   BYTE   INSEG    CODE           ?PR?USB_GET_LINE_CODING?USB_REQ_CLASS
FF1DE8H   FF1E0DH   000026H   BYTE   INSEG    CODE           ?PR?USB_SET_LINE_CODING?USB_REQ_CLASS
FF1E0EH   FF1E32H   000025H   BYTE   INSEG    CODE           ?PR?MEMCPY?_?MEMCPY
FF1E33H   FF1E55H   000023H   BYTE   INSEG    CODE           ?PR?SPI_RW?SPI
FF1E56H   FF1E77H   000022H   BYTE   INSEG    CODE           ?PR?I2C_INIT?I2C
FF1E78H   FF1E98H   000021H   BYTE   INSEG    CODE           ?PR?OLED12864_SETADDRESSMODE?UTIL
FF1E99H   FF1EB9H   000021H   BYTE   INSEG    CODE           ?PR?OLED12864_SETCONTRAST?UTIL
FF1EBAH   FF1EDAH   000021H   BYTE   INSEG    CODE           ?PR?LCD12864_REVERSELINE?UTIL
L251 LINKER/LOCATER V4.66.93.0                                                        06/19/2023  16:47:43  PAGE 4


FF1EDBH   FF1EF9H   00001FH   BYTE   INSEG    CODE           ?PR?PWM1N_ENABLE?PWM
FF1EFAH   FF1F18H   00001FH   BYTE   INSEG    CODE           ?PR?PWM1P_ENABLE?PWM
FF1F19H   FF1F37H   00001FH   BYTE   INSEG    CODE           ?PR?PWM4N_ENABLE?PWM
FF1F38H   FF1F56H   00001FH   BYTE   INSEG    CODE           ?PR?PWM4P_ENABLE?PWM
FF1F57H   FF1F74H   00001EH   BYTE   INSEG    CODE           ?PR?I2C_RECVACK?I2C
FF1F75H   FF1F91H   00001DH   BYTE   INSEG    CODE           ?PR?SLEEP_US?UTIL
FF1F92H   FF1FADH   00001CH   BYTE   INSEG    CODE           ?PR?I2C_RECVDATA?I2C
FF1FAEH   FF1FC9H   00001CH   BYTE   INSEG    CODE           ?PR?RF24_SET_POWER?RF24
FF1FCAH   FF1FE4H   00001BH   BYTE   INSEG    CODE           ?PR?USB_REQ_CLASS?USB_REQ_CLASS
FF1FE5H   FF1FFEH   00001AH   BYTE   INSEG    CODE           ?PR?OLED12864_SCROLLSTART?UTIL
FF1FFFH   FF2018H   00001AH   BYTE   INSEG    CODE           ?PR?OLED12864_DISPLAYON?UTIL
FF2019H   FF2032H   00001AH   BYTE   INSEG    CODE           ?PR?LCD12864_SCROLLRIGHT?UTIL
FF2033H   FF204CH   00001AH   BYTE   INSEG    CODE           ?PR?LCD12864_AUTOWRAPON?UTIL
FF204DH   FF2066H   00001AH   BYTE   INSEG    CODE           ?PR?OLED12864_VERTICALMIRROR?UTIL
FF2067H   FF2080H   00001AH   BYTE   INSEG    CODE           ?PR?LCD12864_CURSORRETURNHOME?UTIL
FF2081H   FF209AH   00001AH   BYTE   INSEG    CODE           ?PR?OLED12864_DISPLAYENTIRE?UTIL
FF209BH   FF20B4H   00001AH   BYTE   INSEG    CODE           ?PR?LCD12864_DISPLAYON?UTIL
FF20B5H   FF20CEH   00001AH   BYTE   INSEG    CODE           ?PR?LCD12864_CURSORMOVERIGHT?UTIL
FF20CFH   FF20E8H   00001AH   BYTE   INSEG    CODE           ?PR?LCD12864_CURSORON?UTIL
FF20E9H   FF2101H   000019H   BYTE   INSEG    CODE           ?PR?USB_BULK_INTR_OUT?USB
FF2102H   FF211AH   000019H   BYTE   INSEG    CODE           ?PR?OLED12864_DISPLAYOFF?UTIL
FF211BH   FF2133H   000019H   BYTE   INSEG    CODE           ?PR?OLED12864_SETHEADER?UTIL
FF2134H   FF214CH   000019H   BYTE   INSEG    CODE           ?PR?LCD12864_AUTOWRAPOFF?UTIL
FF214DH   FF2165H   000019H   BYTE   INSEG    CODE           ?PR?OLED12864_SCROLLSTOP?UTIL
FF2166H   FF217EH   000019H   BYTE   INSEG    CODE           ?PR?LCD12864_DISPLAYOFF?UTIL
FF217FH   FF2197H   000019H   BYTE   INSEG    CODE           ?PR?LCD12864_SETHEADER?UTIL
FF2198H   FF21B0H   000019H   BYTE   INSEG    CODE           ?PR?LCD12864_SCROLLLEFT?UTIL
FF21B1H   FF21C9H   000019H   BYTE   INSEG    CODE           ?PR?OLED12864_HORIZONTALMIRROR?UTIL
FF21CAH   FF21E2H   000019H   BYTE   INSEG    CODE           ?PR?OLED12864_DISPLAYCONTENT?UTIL
FF21E3H   FF21FBH   000019H   BYTE   INSEG    CODE           ?PR?LCD12864_CURSOROFF?UTIL
FF21FCH   FF2214H   000019H   BYTE   INSEG    CODE           ?PR?LCD12864_CURSORMOVELEFT?UTIL
FF2215H   FF222DH   000019H   BYTE   INSEG    CODE           ?PR?SEG7_SETHEADER?UTIL
FF222EH   FF2246H   000019H   BYTE   INSEG    CODE           ?PR?I2C_SENDNAK?I2C
FF2247H   FF225EH   000018H   BYTE   INSEG    CODE           ?PR?SLEEP_MS?UTIL
FF225FH   FF2276H   000018H   BYTE   INSEG    CODE           ?PR?I2C_SENDACK?I2C
FF2277H   FF228DH   000017H   BYTE   INSEG    CODE           ?PR?I2C_SENDDATA?I2C
FF228EH   FF22A4H   000017H   BYTE   INSEG    CODE           ?PR?I2C_WAIT?I2C
FF22A5H   FF22BBH   000017H   BYTE   INSEG    CODE           ?PR?RF24_WRITE_REG?RF24
FF22BCH   FF22D1H   000016H   BYTE   INSEG    CODE           ?PR?DELAY_MS?MAIN
FF22D2H   FF22E7H   000016H   BYTE   INSEG    CODE           ?PR?USB_SET_CTRL_LINE_STATE?USB_REQ_CLASS
FF22E8H   FF22FCH   000015H   BYTE   INSEG    CODE           ?PR?USB_BULK_INTR_IN?USB
FF22FDH   FF2311H   000015H   BYTE   INSEG    CODE           ?PR?USB_READ_REG?USB
FF2312H   FF2326H   000015H   BYTE   INSEG    CODE           ?PR?PWM1_SETDUTY?PWM
FF2327H   FF233BH   000015H   BYTE   INSEG    CODE           ?PR?PWM4_SETDUTY?PWM
FF233CH   FF2350H   000015H   BYTE   INSEG    CODE           ?PR?PWMA_SETCYCLE?PWM
FF2351H   FF2365H   000015H   BYTE   INSEG    CODE           ?PR?RF24_RX_MODE?RF24
FF2366H   FF2379H   000014H   BYTE   INSEG    CODE           ?PR?LCD12864_DISPLAYCLEAR?UTIL
FF237AH   FF238DH   000014H   BYTE   INSEG    CODE           ?PR?OLED12864_DISPLAYREVERSE?UTIL
FF238EH   FF23A0H   000013H   BYTE   INSEG    CODE           ?PR?USB_WRITE_REG?USB
FF23A1H   FF23B3H   000013H   BYTE   INSEG    CODE           ?PR?PWM1N_DISABLE?PWM
FF23B4H   FF23C6H   000013H   BYTE   INSEG    CODE           ?PR?PWM1P_DISABLE?PWM
FF23C7H   FF23D9H   000013H   BYTE   INSEG    CODE           ?PR?PWM4N_DISABLE?PWM
FF23DAH   FF23ECH   000013H   BYTE   INSEG    CODE           ?PR?PWM4P_DISABLE?PWM
FF23EDH   FF23FDH   000011H   BYTE   INSEG    CODE           ?PR?USB_SETUP_IN?USB
FF23FEH   FF240DH   000010H   BYTE   INSEG    CODE           ?PR?I2C_START?I2C
FF240EH   FF241DH   000010H   BYTE   INSEG    CODE           ?PR?I2C_STOP?I2C
FF241EH   FF242CH   00000FH   BYTE   INSEG    CODE           ?PR?I2C_RECVBYTE?I2C
FF242DH   FF243AH   00000EH   BYTE   INSEG    CODE           ?PR?USB_SETUP_OUT?USB
FF243BH   FF2448H   00000EH   BYTE   INSEG    CODE           ?PR?USB_SETUP_STALL?USB
FF2449H   FF2456H   00000EH   BYTE   INSEG    CODE           ?PR?RF24_SET_CHANNEL?RF24
FF2457H   FF2464H   00000EH   BYTE   INSEG    CODE           ?PR?RF24_SET_P0_SIZE?RF24
FF2465H   FF2472H   00000EH   BYTE   INSEG    CODE           ?PR?STRLEN?_?STRLEN
FF2473H   FF247FH   00000DH   BYTE   INSEG    CODE           ?PR?USB_SETUP_STATUS?USB
FF2480H   FF248CH   00000DH   BYTE   INSEG    CODE           ?PR?RF24_TX_MODE?RF24
FF248DH   FF2498H   00000CH   BYTE   INSEG    CODE           ?PR?RF24_READ_REG?RF24
L251 LINKER/LOCATER V4.66.93.0                                                        06/19/2023  16:47:43  PAGE 5


FF2499H   FF249EH   000006H   BYTE   INSEG    CODE           ?PR?I2C_SENDBYTE?I2C
FF249FH   FF24A1H   000003H   BYTE   INSEG    CODE           ?PR?USB_SET_DESCRIPTOR?USB_REQ_STD
FF24A2H   FF24A4H   000003H   BYTE   INSEG    CODE           ?PR?USB_SYNCH_FRAME?USB_REQ_STD
FF24A5H   FF24A7H   000003H   BYTE   INSEG    CODE           ?PR?USB_REQ_VENDOR?USB_REQ_VENDOR
FF24A8H   FF24AAH   000003H   BYTE   INSEG    CODE           ?PR?SPI_INIT?SPI
FF24ABH   FF24ABH   000001H   BYTE   INSEG    CODE           ?PR?USB_RESUME?USB
FF24ACH   FF24AFH   000004H   BYTE   UNIT     CONST          ?CO?PRINTF
FF24B0H   FF2526H   000077H   BYTE   UNIT     HCONST         ?HC?MAIN
FF2527H   FF256CH   000046H   BYTE   UNIT     HCONST         ?C_INITEDATA



OVERLAY MAP OF MODULE:   .\obj\stc_usb_ser (main)


FUNCTION/MODULE                            EDATA_GROUP
--> CALLED FUNCTION/MODULE                 START  STOP
======================================================
?C_C51STARTUP?1                            ----- -----

*** NEW ROOT *****************************

usb_isr/usb                                ----- -----
  +--> usb_read_reg/usb
  +--> usb_resume/usb
  +--> usb_reset/usb
  +--> usb_setup/usb
  +--> usb_in_ep1/usb
  +--> usb_in_ep2/usb
  +--> usb_out_ep1/usb
  +--> usb_suspend/usb

usb_read_reg/usb                           ----- -----

usb_resume/usb                             ----- -----

usb_reset/usb                              ----- -----
  +--> usb_write_reg/usb

usb_write_reg/usb                          ----- -----

usb_setup/usb                              ----- -----
  +--> usb_write_reg/usb
  +--> usb_read_reg/usb
  +--> usb_read_fifo?_/usb
  +--> reverse2/util
  +--> usb_req_std/usb_req_std
  +--> usb_req_class/usb_req_class
  +--> usb_req_vendor/usb_req_vendor
  +--> usb_setup_stall/usb
  +--> usb_ctrl_in/usb
  +--> usb_ctrl_out/usb

usb_read_fifo?_/usb                        ----- -----
  +--> usb_read_reg/usb

reverse2/util                              0021H 0024H

usb_req_std/usb_req_std                    ----- -----
  +--> usb_get_status/usb_req_std
  +--> usb_clear_feature/usb_req_std
  +--> usb_set_feature/usb_req_std
  +--> usb_set_address/usb_req_std
  +--> usb_get_descriptor/usb_req_std
  +--> usb_set_descriptor/usb_req_std
L251 LINKER/LOCATER V4.66.93.0                                                        06/19/2023  16:47:43  PAGE 6


  +--> usb_get_configuration/usb_req_std
  +--> usb_set_configuration/usb_req_std
  +--> usb_get_interface/usb_req_std
  +--> usb_set_interface/usb_req_std
  +--> usb_synch_frame/usb_req_std
  +--> usb_setup_stall/usb

usb_get_status/usb_req_std                 ----- -----
  +--> usb_setup_stall/usb
  +--> usb_setup_in/usb

usb_setup_stall/usb                        ----- -----
  +--> usb_write_reg/usb

usb_setup_in/usb                           ----- -----
  +--> usb_write_reg/usb
  +--> usb_ctrl_in/usb

usb_ctrl_in/usb                            ----- -----
  +--> usb_write_reg/usb
  +--> usb_read_reg/usb
  +--> usb_write_fifo?_/usb

usb_write_fifo?_/usb                       ----- -----
  +--> usb_write_reg/usb

usb_clear_feature/usb_req_std              ----- -----
  +--> usb_write_reg/usb
  +--> usb_setup_stall/usb
  +--> usb_setup_status/usb

usb_setup_status/usb                       ----- -----
  +--> usb_write_reg/usb

usb_set_feature/usb_req_std                ----- -----
  +--> usb_write_reg/usb
  +--> usb_setup_stall/usb
  +--> usb_setup_status/usb

usb_set_address/usb_req_std                ----- -----
  +--> usb_setup_stall/usb
  +--> usb_write_reg/usb
  +--> usb_setup_status/usb

usb_get_descriptor/usb_req_std             ----- -----
  +--> usb_setup_stall/usb
  +--> usb_setup_in/usb

usb_set_descriptor/usb_req_std             ----- -----
  +--> usb_setup_stall/usb

usb_get_configuration/usb_req_std          ----- -----
  +--> usb_setup_stall/usb
  +--> usb_setup_in/usb

usb_set_configuration/usb_req_std          ----- -----
  +--> usb_setup_stall/usb
  +--> usb_write_reg/usb
  +--> usb_setup_status/usb

usb_get_interface/usb_req_std              ----- -----
  +--> usb_setup_stall/usb
  +--> usb_setup_in/usb

usb_set_interface/usb_req_std              ----- -----
L251 LINKER/LOCATER V4.66.93.0                                                        06/19/2023  16:47:43  PAGE 7


  +--> usb_setup_stall/usb
  +--> usb_setup_status/usb

usb_synch_frame/usb_req_std                ----- -----
  +--> usb_setup_stall/usb

usb_req_class/usb_req_class                ----- -----
  +--> usb_set_line_coding/usb_req_class
  +--> usb_get_line_coding/usb_req_class
  +--> usb_set_ctrl_line_state/usb_req_class
  +--> usb_setup_stall/usb

usb_set_line_coding/usb_req_class          ----- -----
  +--> usb_setup_stall/usb
  +--> usb_setup_out/usb

usb_setup_out/usb                          ----- -----
  +--> usb_write_reg/usb

usb_get_line_coding/usb_req_class          ----- -----
  +--> usb_setup_stall/usb
  +--> usb_setup_in/usb

usb_set_ctrl_line_state/usb_req_class      ----- -----
  +--> usb_setup_stall/usb
  +--> usb_setup_status/usb

usb_req_vendor/usb_req_vendor              ----- -----
  +--> usb_setup_stall/usb

usb_ctrl_out/usb                           ----- -----
  +--> usb_write_reg/usb
  +--> usb_read_reg/usb
  +--> usb_read_fifo?_/usb

usb_in_ep1/usb                             ----- -----
  +--> usb_write_reg/usb
  +--> usb_read_reg/usb

usb_in_ep2/usb                             ----- -----
  +--> usb_write_reg/usb
  +--> usb_read_reg/usb

usb_out_ep1/usb                            ----- -----
  +--> usb_write_reg/usb
  +--> usb_read_reg/usb
  +--> usb_read_fifo?_/usb
  +--> sleep_ms/util

sleep_ms/util                              ----- -----
  +--> sleep_us/util

sleep_us/util                              ----- -----

usb_suspend/usb                            ----- -----

*** NEW ROOT *****************************

timer0_isr/timer                           ----- -----

*** NEW ROOT *****************************

?C_C51STARTUP                              ----- -----

*** NEW ROOT *****************************
L251 LINKER/LOCATER V4.66.93.0                                                        06/19/2023  16:47:43  PAGE 8



?C_C51STARTUP?3                            ----- -----
  +--> main/main

main/main                                  ----- -----
  +--> sys_init/main
  +--> usb_init/usb
  +--> delay_ms/main
  +--> printf_hid/util
  +--> pwm_init/pwm
  +--> pwma_setcycle/pwm
  +--> pwm1_setduty/pwm
  +--> pwm4_setduty/pwm
  +--> pwm1p_enable/pwm
  +--> pwm4p_enable/pwm
  +--> pwm1n_enable/pwm
  +--> pwm4n_enable/pwm
  +--> RF24_Init/rf24
  +--> RF24_Write_Reg/rf24
  +--> RF24_RX_Mode/rf24
  +--> RF24_Set_Channel/rf24
  +--> RF24_Set_Power/rf24
  +--> RF24_Set_P0_Size/rf24
  +--> RF24_Set_Rate/rf24
  +--> RF24_Write_Buf/rf24
  +--> KeyResetScan/main
  +--> usb_OUT_done/usb
  +--> memcpy?_/memcpy
  +--> usb_IN/usb

sys_init/main                              ----- -----
  +--> Debug_Init/debug
  +--> I2C_Init/i2c
  +--> update_1ms/main
  +--> timer0_init/timer

Debug_Init/debug                           ----- -----

I2C_Init/i2c                               ----- -----

update_1ms/main                            ----- -----
  +--> RF24_Read_Buf/rf24
  +--> RF24_Write_Reg/rf24
  +--> printf_hid/util
  +--> RF24_TX_Mode/rf24
  +--> RF24_Write_Buf/rf24
  +--> delay_ms/main
  +--> RF24_RX_Mode/rf24

RF24_Read_Buf/rf24                         0025H 0027H
  +--> SPI_RW/spi

SPI_RW/spi                                 ----- -----

RF24_Write_Reg/rf24                        ----- -----
  +--> SPI_RW/spi

printf_hid/util                            0025H 0050H
  +--> VSPRINTF/VSPRINTF
  +--> usb_IN/usb

VSPRINTF/VSPRINTF                          0051H 0054H
  +--> OUT/VSPRINTF

OUT/VSPRINTF                               ----- -----
L251 LINKER/LOCATER V4.66.93.0                                                        06/19/2023  16:47:43  PAGE 9


  +--> PUTCH/VSPRINTF

PUTCH/VSPRINTF                             ----- -----

usb_IN/usb                                 ----- -----
  +--> usb_write_reg/usb
  +--> usb_read_reg/usb
  +--> usb_bulk_intr_in/usb

usb_bulk_intr_in/usb                       ----- -----
  +--> usb_write_fifo?_/usb
  +--> usb_write_reg/usb

RF24_TX_Mode/rf24                          ----- -----
  +--> RF24_Write_Reg/rf24

RF24_Write_Buf/rf24                        0025H 0027H
  +--> SPI_RW/spi

delay_ms/main                              ----- -----

RF24_RX_Mode/rf24                          ----- -----
  +--> RF24_Write_Reg/rf24

timer0_init/timer                          ----- -----
  +--> ?C?ULIDIV/?C?ULDIV

?C?ULIDIV/?C?ULDIV                         ----- -----

usb_init/usb                               ----- -----
  +--> usb_write_reg/usb

pwm_init/pwm                               ----- -----

pwma_setcycle/pwm                          ----- -----

pwm1_setduty/pwm                           ----- -----

pwm4_setduty/pwm                           ----- -----

pwm1p_enable/pwm                           ----- -----
  +--> pwm1n_disable/pwm

pwm1n_disable/pwm                          ----- -----

pwm4p_enable/pwm                           ----- -----
  +--> pwm4n_disable/pwm

pwm4n_disable/pwm                          ----- -----

pwm1n_enable/pwm                           ----- -----
  +--> pwm1p_disable/pwm

pwm1p_disable/pwm                          ----- -----

pwm4n_enable/pwm                           ----- -----
  +--> pwm4p_disable/pwm

pwm4p_disable/pwm                          ----- -----

RF24_Init/rf24                             ----- -----

RF24_Set_Channel/rf24                      ----- -----
  +--> RF24_Write_Reg/rf24

L251 LINKER/LOCATER V4.66.93.0                                                        06/19/2023  16:47:43  PAGE 10


RF24_Set_Power/rf24                        ----- -----
  +--> RF24_Read_Reg/rf24
  +--> RF24_Write_Reg/rf24

RF24_Read_Reg/rf24                         ----- -----
  +--> SPI_RW/spi

RF24_Set_P0_Size/rf24                      ----- -----
  +--> RF24_Write_Reg/rf24

RF24_Set_Rate/rf24                         ----- -----
  +--> RF24_Read_Reg/rf24
  +--> RF24_Write_Reg/rf24

KeyResetScan/main                          ----- -----
  +--> delay_ms/main

usb_OUT_done/usb                           ----- -----
  +--> usb_write_reg/usb

memcpy?_/memcpy                            ----- -----

*** NEW ROOT *****************************

?C_C51STARTUP?2                            ----- -----



PUBLIC SYMBOLS OF MODULE:  .\obj\stc_usb_ser (main)


      VALUE       CLASS    TYPE      PUBLIC SYMBOL NAME
      =================================================
      000000FFH   NUMBER   ---       ?C?CODESEG
      00FF0534H   CODE     ---       ?C?FPCONVERT
      00FF06CFH   CODE     ---       ?C?FPDIV
      00FF07B7H   CODE     ---       ?C?FPGETOPN2
      00FF062FH   CODE     ---       ?C?FPMUL
      00FF07F4H   CODE     ---       ?C?FPNANRESULT
      00FF07FCH   CODE     ---       ?C?FPOVERFLOW
      00FF07D0H   CODE     ---       ?C?FPRESULT
      00FF07E6H   CODE     ---       ?C?FPRESULT2
      00FF05ECH   CODE     ---       ?C?FPROUND
      00FF07F9H   CODE     ---       ?C?FPUNDERFLOW
      00FF0780H   CODE     ---       ?C?FTNPWR
      00FF188BH   CODE     ---       ?C?INITEDATA
      00FF256BH   HCONST   WORD      ?C?INITEDATA_END
      00FF0808H   CODE     ---       ?C?LMUL
      00FF0117H   CODE     ---       ?C?PRNFMT
      00FF0000H   CODE     ---       ?C?STARTUP
      00FF081BH   CODE     NEAR LAB  ?C?ULDIV
      00FF0819H   CODE     NEAR LAB  ?C?ULIDIV
      00000001H   NUMBER   ---       ?C?XDATASEG
      00FF0000H   CODE     ---       ?C_STARTUP
      0000004DH   EDATA    BYTE      ?printf_hid?BYTE
      000000AFH   EDATA    BYTE      ?SEG7_ShowString?BYTE
      00000049H   EDATA    ---       ?vsprintf?BYTE
*SFR* 000000BCH   DATA     BYTE      ADC_CONTR
*SFR* 000000EFH   DATA     BYTE      AUXINTIF
*SFR* 0000008EH   DATA     BYTE      AUXR
*SFR* 00000097H   DATA     BYTE      AUXR2
      00000020H.1 BIT      BIT       bUsbFeatureReady
      00000020H.2 BIT      BIT       bUsbInBusy
      00000020H.0 BIT      BIT       bUsbOutReady
*SFR* 000000F1H   DATA     BYTE      CANICR
L251 LINKER/LOCATER V4.66.93.0                                                        06/19/2023  16:47:43  PAGE 11


*SFR* 000000EAH   DATA     BYTE      CKCON
*SFR* 000000E6H   DATA     BYTE      CMPCR1
*SFR* 000000E7H   DATA     BYTE      CMPCR2
      00FF1009H   CODE     ---       CONFIGDESC
      00FF1D73H   CODE     ---       Debug_Init
      00FF22BCH   CODE     ---       delay_ms
      00FF0FF7H   CODE     ---       DEVICEDESC
      00000012H   EDATA    BYTE      DeviceState
*SFR* 000000A8H.7 DATA     BIT       EA
*SFR* 000000BAH.7 DATA     BIT       EAXFR
      00000013H   EDATA    ---       Ep0State
*SFR* 000000A8H.1 DATA     BIT       ET0
*SFR* 000000AFH.7 DATA     BIT       EUSB
      00FF1E56H   CODE     ---       I2C_Init
      00FF1058H   CODE     ---       I2C_read
      00FF1F57H   CODE     ---       I2C_RecvACK
      00FF241EH   CODE     ---       I2C_RecvByte
      00FF1F92H   CODE     ---       I2C_RecvData
      00FF14BDH   CODE     ---       I2C_Scan
      00FF225FH   CODE     ---       I2C_SendACK
      00FF2499H   CODE     ---       I2C_SendByte
      00FF2277H   CODE     ---       I2C_SendData
      00FF222EH   CODE     ---       I2C_SendNAK
      00FF23FEH   CODE     ---       I2C_Start
      00FF240EH   CODE     ---       I2C_Stop
      00FF228EH   CODE     ---       I2C_Wait
      00FF155BH   CODE     ---       I2C_Write
*SFR* 000000C7H   DATA     BYTE      IAP_CONTR
*SFR* 000000A8H   DATA     BYTE      IE
*SFR* 000000AFH   DATA     BYTE      IE2
      0000001AH   EDATA    BYTE      InEpState
*SFR* 0000008FH   DATA     BYTE      INTCLKO
*SFR* 000000B8H   DATA     BYTE      IP
*SFR* 000000B5H   DATA     BYTE      IP2
*SFR* 000000B6H   DATA     BYTE      IP2H
*SFR* 000000DFH   DATA     BYTE      IP3
*SFR* 000000EEH   DATA     BYTE      IP3H
*SFR* 000000B7H   DATA     BYTE      IPH
*SFR* 0000009DH   DATA     BYTE      IRCBAND
      00000059H   EDATA    WORD      Key_cnt
      00000020H.3 BIT      BIT       Key_Flag
      00FF1935H   CODE     ---       KeyResetScan
      00FF0FF3H   CODE     ---       LANGIDDESC
      00FF2134H   CODE     ---       LCD12864_AutoWrapOff
      00FF2033H   CODE     ---       LCD12864_AutoWrapOn
      00FF21FCH   CODE     ---       LCD12864_CursorMoveLeft
      00FF20B5H   CODE     ---       LCD12864_CursorMoveRight
      00FF21E3H   CODE     ---       LCD12864_CursorOff
      00FF20CFH   CODE     ---       LCD12864_CursorOn
      00FF2067H   CODE     ---       LCD12864_CursorReturnHome
      00FF2366H   CODE     ---       LCD12864_DisplayClear
      00FF2166H   CODE     ---       LCD12864_DisplayOff
      00FF209BH   CODE     ---       LCD12864_DisplayOn
      00FF1EBAH   CODE     ---       LCD12864_ReverseLine
      00FF2198H   CODE     ---       LCD12864_ScrollLeft
      00FF2019H   CODE     ---       LCD12864_ScrollRight
      00FF1D9BH   CODE     ---       LCD12864_ScrollUp
      00FF150CH   CODE     ---       LCD12864_ShowPicture
      00FF19AFH   CODE     ---       LCD12864_ShowString
      00FF171CH   CODE     ---       LED40_SendData
      00FF1763H   CODE     ---       LED64_SendData
      000000C9H   EDATA    ---       LineCoding
*SFR* 000000F9H   DATA     BYTE      LINICR
      00FF086CH   CODE     ---       main
      00FF1050H   CODE     ---       MANUFACTDESC
L251 LINKER/LOCATER V4.66.93.0                                                        06/19/2023  16:47:43  PAGE 12


      00FF1E0EH   CODE     ---       memcpy?_
      00FF146AH   CODE     ---       mpu6050_init
      00FF0ECCH   CODE     ---       mpu6050_read
      00000075H   EDATA    ---       mpu_dat
      00FF21CAH   CODE     ---       OLED12864_DisplayContent
      00FF2081H   CODE     ---       OLED12864_DisplayEntire
      00FF2102H   CODE     ---       OLED12864_DisplayOff
      00FF1FFFH   CODE     ---       OLED12864_DisplayOn
      00FF237AH   CODE     ---       OLED12864_DisplayReverse
      00FF21B1H   CODE     ---       OLED12864_HorizontalMirror
      00FF1A9AH   CODE     ---       OLED12864_ScrollLeft
      00FF1A26H   CODE     ---       OLED12864_ScrollRight
      00FF1FE5H   CODE     ---       OLED12864_ScrollStart
      00FF214DH   CODE     ---       OLED12864_ScrollStop
      00FF1A60H   CODE     ---       OLED12864_ScrollUp
      00FF1E78H   CODE     ---       OLED12864_SetAddressMode
      00FF1E99H   CODE     ---       OLED12864_SetContrast
      00FF18B7H   CODE     ---       OLED12864_ShowPicture
      00FF204DH   CODE     ---       OLED12864_VerticalMirror
      0000001BH   EDATA    BYTE      OutEpState
      00000010H   EDATA    BYTE      OutNumber
*SFR* 00000080H   DATA     BYTE      P0
*SFR* 00000094H   DATA     BYTE      P0M0
*SFR* 00000093H   DATA     BYTE      P0M1
*SFR* 00000090H   DATA     BYTE      P1
*SFR* 00000090H.0 DATA     BIT       P10
*SFR* 00000090H.1 DATA     BIT       P11
*SFR* 00000090H.6 DATA     BIT       P16
*SFR* 00000090H.7 DATA     BIT       P17
*SFR* 00000092H   DATA     BYTE      P1M0
*SFR* 00000091H   DATA     BYTE      P1M1
*SFR* 000000A0H   DATA     BYTE      P2
*SFR* 000000A0H.0 DATA     BIT       P20
*SFR* 000000A0H.1 DATA     BIT       P21
*SFR* 000000A0H.2 DATA     BIT       P22
*SFR* 000000A0H.3 DATA     BIT       P23
*SFR* 000000A0H.4 DATA     BIT       P24
*SFR* 000000A0H.5 DATA     BIT       P25
*SFR* 000000A0H.6 DATA     BIT       P26
*SFR* 000000A0H.7 DATA     BIT       P27
*SFR* 00000096H   DATA     BYTE      P2M0
*SFR* 00000095H   DATA     BYTE      P2M1
*SFR* 000000B0H   DATA     BYTE      P3
*SFR* 000000B0H.2 DATA     BIT       P32
*SFR* 000000B2H   DATA     BYTE      P3M0
*SFR* 000000B1H   DATA     BYTE      P3M1
*SFR* 000000C0H   DATA     BYTE      P4
*SFR* 000000B4H   DATA     BYTE      P4M0
*SFR* 000000B3H   DATA     BYTE      P4M1
*SFR* 000000C8H   DATA     BYTE      P5
*SFR* 000000CAH   DATA     BYTE      P5M0
*SFR* 000000C9H   DATA     BYTE      P5M1
*SFR* 000000E8H   DATA     BYTE      P6
*SFR* 000000CCH   DATA     BYTE      P6M0
*SFR* 000000CBH   DATA     BYTE      P6M1
*SFR* 000000F8H   DATA     BYTE      P7
*SFR* 000000E2H   DATA     BYTE      P7M0
*SFR* 000000E1H   DATA     BYTE      P7M1
*SFR* 000000A2H   DATA     BYTE      P_SW1
*SFR* 000000BAH   DATA     BYTE      P_SW2
*SFR* 000000BBH   DATA     BYTE      P_SW3
      00FF104CH   CODE     ---       PACKET0
      00FF104EH   CODE     ---       PACKET1
*SFR* 00000087H   DATA     BYTE      PCON
      00FF1C9DH   CODE     ---       printf_hid
L251 LINKER/LOCATER V4.66.93.0                                                        06/19/2023  16:47:43  PAGE 13


      00FF0FD5H   CODE     ---       PRODUCTDESC
*SFR* 000000D0H   DATA     BYTE      PSW
      00FF2312H   CODE     ---       pwm1_setduty
      00FF1254H   CODE     ---       pwm1n_config
      00FF23A1H   CODE     ---       pwm1n_disable
      00FF1EDBH   CODE     ---       pwm1n_enable
      00FF130CH   CODE     ---       pwm1p_config
      00FF23B4H   CODE     ---       pwm1p_disable
      00FF1EFAH   CODE     ---       pwm1p_enable
      00FF2327H   CODE     ---       pwm4_setduty
      00FF1366H   CODE     ---       pwm4n_config
      00FF23C7H   CODE     ---       pwm4n_disable
      00FF1F19H   CODE     ---       pwm4n_enable
      00FF12B0H   CODE     ---       pwm4p_config
      00FF23DAH   CODE     ---       pwm4p_disable
      00FF1F38H   CODE     ---       pwm4p_enable
      00FF17AAH   CODE     ---       pwm_init
      00FF233CH   CODE     ---       pwma_setcycle
      00FF1B40H   CODE     ---       reverse2
      00FF1139H   CODE     ---       reverse4
      00FF0003H   CODE     ---       RF24_Init
      00FF1835H   CODE     ---       RF24_Read_Buf
      00FF248DH   CODE     ---       RF24_Read_Reg
      00FF2351H   CODE     ---       RF24_RX_Mode
      00FF1B75H   CODE     ---       RF24_RxPacket
      00FF2449H   CODE     ---       RF24_Set_Channel
      00FF2457H   CODE     ---       RF24_Set_P0_Size
      00FF1FAEH   CODE     ---       RF24_Set_Power
      00FF1CCAH   CODE     ---       RF24_Set_Rate
      00FF2480H   CODE     ---       RF24_TX_Mode
      00FF17F1H   CODE     ---       RF24_TxPacket
      00FF1AD3H   CODE     ---       RF24_Write_Buf
      00FF22A5H   CODE     ---       RF24_Write_Reg
*SFR* 000000FFH   DATA     BYTE      RSTCFG
      0000005FH   EDATA    ---       rx
      00000020H.4 BIT      BIT       rx_flag
*SFR* 0000009AH   DATA     BYTE      S2CON
*SFR* 000000ACH   DATA     BYTE      S3CON
*SFR* 000000FDH   DATA     BYTE      S4CON
*SFR* 00000098H   DATA     BYTE      SCON
      00FF1B0BH   CODE     ---       SEG7_ShowCode
      00FF1BAAH   CODE     ---       SEG7_ShowFloat
      00FF1972H   CODE     ---       SEG7_ShowLong
      00FF168BH   CODE     ---       SEG7_ShowString
      00000008H   EDATA    ---       Setup
      00FF2247H   CODE     ---       sleep_ms
      00FF1F75H   CODE     ---       sleep_us
*SFR* 000000CEH   DATA     BYTE      SPCTL
      00FF24A8H   CODE     ---       spi_init
      00FF1E33H   CODE     ---       SPI_RW
*SFR* 000000CDH   DATA     BYTE      SPSTAT
      00FF2465H   CODE     ---       strlen?_
      00FF15F7H   CODE     ---       sys_init
*SFR* 000000DDH   DATA     BYTE      T4T3M
*SFR* 00000088H   DATA     BYTE      TCON
*SFR* 0000008CH   DATA     BYTE      TH0
      00FF1C10H   CODE     ---       timer0_init
      00FF1BDDH   CODE     ---       timer0_isr
*SFR* 0000008AH   DATA     BYTE      TL0
*SFR* 00000089H   DATA     BYTE      TMOD
*SFR* 00000088H.4 DATA     BIT       TR0
      0000006AH   EDATA    ---       tx
      000000DAH   EDATA    ---       TX_ADDRESS
      00FF13C0H   CODE     ---       update_1ms
      00FF22E8H   CODE     ---       usb_bulk_intr_in
L251 LINKER/LOCATER V4.66.93.0                                                        06/19/2023  16:47:43  PAGE 14


      00FF20E9H   CODE     ---       usb_bulk_intr_out
      00FF0B3BH   CODE     ---       usb_clear_feature
      00FF10D2H   CODE     ---       usb_ctrl_in
      00FF15AAH   CODE     ---       usb_ctrl_out
      00FF1416H   CODE     ---       usb_get_configuration
      00FF0BDAH   CODE     ---       usb_get_descriptor
      00FF18F7H   CODE     ---       usb_get_interface
      00FF1DC2H   CODE     ---       usb_get_line_coding
      00FF0974H   CODE     ---       usb_get_status
      00FF1C41H   CODE     ---       usb_IN
      00FF1C70H   CODE     ---       usb_in_ep1
      00FF1CF7H   CODE     ---       usb_in_ep2
      00FF119AH   CODE     ---       usb_init
      00FF0F51H   CODE     ---       usb_isr
      00FF00B3H   CODE     ---       usb_OUT_done
      00FF0A77H   CODE     ---       usb_out_ep1
      00FF19ECH   CODE     ---       usb_read_fifo?_
      00FF22FDH   CODE     ---       usb_read_reg
      00FF1FCAH   CODE     ---       usb_req_class
      00FF11F8H   CODE     ---       usb_req_std
      00FF24A5H   CODE     ---       usb_req_vendor
      00FF16D4H   CODE     ---       usb_reset
      00FF24ABH   CODE     ---       usb_resume
      00FF1641H   CODE     ---       usb_set_address
      00FF000EH   CODE     ---       usb_set_configuration
      00FF22D2H   CODE     ---       usb_set_ctrl_line_state
      00FF249FH   CODE     ---       usb_set_descriptor
      00FF0C79H   CODE     ---       usb_set_feature
      00FF1D4BH   CODE     ---       usb_set_interface
      00FF1DE8H   CODE     ---       usb_set_line_coding
      00FF0E42H   CODE     ---       usb_setup
      00FF23EDH   CODE     ---       usb_setup_in
      00FF242DH   CODE     ---       usb_setup_out
      00FF243BH   CODE     ---       usb_setup_stall
      00FF2473H   CODE     ---       usb_setup_status
      00FF000AH   CODE     ---       usb_suspend
      00FF24A2H   CODE     ---       usb_synch_frame
      00FF1D22H   CODE     ---       usb_write_fifo?_
      00FF238EH   CODE     ---       usb_write_reg
*SFR* 000000FCH   DATA     BYTE      USBADR
*SFR* 000000DCH   DATA     BYTE      USBCLK
*SFR* 000000F4H   DATA     BYTE      USBCON
*SFR* 000000ECH   DATA     BYTE      USBDAT
      00010080H   XDATA    ---       UsbFeatureBuffer
      00010000H   XDATA    ---       UsbInBuffer
      00010040H   XDATA    ---       UsbOutBuffer
      00000083H   EDATA    ---       USER_DEVICEDESC
      0000005BH   EDATA    ---       USER_PRODUCTDESC
      00000055H   EDATA    ---       USER_STCISPCMD
      00FF00CEH   CODE     NEAR LAB  vsprintf
*SFR* 000000C1H   DATA     BYTE      WDT_CONTR
*SFR* 000000E9H   DATA     BYTE      WTST



SYMBOL TABLE OF MODULE:  .\obj\stc_usb_ser (main)

      VALUE       REP       CLASS    TYPE      SYMBOL NAME
      ====================================================
      ---         MODULE    ---      ---       main
      00FF14BDH   PUBLIC    CODE     ---       I2C_Scan
      00FF086CH   PUBLIC    CODE     ---       main
      00FF1935H   PUBLIC    CODE     ---       KeyResetScan
      00FF22BCH   PUBLIC    CODE     ---       delay_ms
      00FF15F7H   PUBLIC    CODE     ---       sys_init
L251 LINKER/LOCATER V4.66.93.0                                                        06/19/2023  16:47:43  PAGE 15


      00FF13C0H   PUBLIC    CODE     ---       update_1ms
      00000020H.3 PUBLIC    BIT      BIT       Key_Flag
      00000020H.4 PUBLIC    BIT      BIT       rx_flag
      00000055H   PUBLIC    EDATA    ---       USER_STCISPCMD
      00000059H   PUBLIC    EDATA    WORD      Key_cnt
      0000005BH   PUBLIC    EDATA    ---       USER_PRODUCTDESC
      0000005FH   PUBLIC    EDATA    ---       rx
      0000006AH   PUBLIC    EDATA    ---       tx
      00000075H   PUBLIC    EDATA    ---       mpu_dat
      00000083H   PUBLIC    EDATA    ---       USER_DEVICEDESC
      00000094H   SFRSYM    DATA     BYTE      P0M0
      000000D0H   SFRSYM    DATA     BYTE      PSW
      000000BAH.7 SFRSYM    DATA     BIT       EAXFR
      0000009DH   SFRSYM    DATA     BYTE      IRCBAND
      00000097H   SFRSYM    DATA     BYTE      AUXR2
      000000EAH   SFRSYM    DATA     BYTE      CKCON
      000000EFH   SFRSYM    DATA     BYTE      AUXINTIF
      000000FDH   SFRSYM    DATA     BYTE      S4CON
      000000ACH   SFRSYM    DATA     BYTE      S3CON
      0000009AH   SFRSYM    DATA     BYTE      S2CON
      000000B7H   SFRSYM    DATA     BYTE      IPH
      000000CDH   SFRSYM    DATA     BYTE      SPSTAT
      000000DDH   SFRSYM    DATA     BYTE      T4T3M
      000000C1H   SFRSYM    DATA     BYTE      WDT_CONTR
      000000E9H   SFRSYM    DATA     BYTE      WTST
      000000DFH   SFRSYM    DATA     BYTE      IP3
      000000F4H   SFRSYM    DATA     BYTE      USBCON
      000000B5H   SFRSYM    DATA     BYTE      IP2
      000000FFH   SFRSYM    DATA     BYTE      RSTCFG
      000000DCH   SFRSYM    DATA     BYTE      USBCLK
      000000C7H   SFRSYM    DATA     BYTE      IAP_CONTR
      000000F9H   SFRSYM    DATA     BYTE      LINICR
      0000008EH   SFRSYM    DATA     BYTE      AUXR
      000000AFH   SFRSYM    DATA     BYTE      IE2
      000000A0H.7 SFRSYM    DATA     BIT       P27
      00000088H   SFRSYM    DATA     BYTE      TCON
      000000B0H.2 SFRSYM    DATA     BIT       P32
      00000098H   SFRSYM    DATA     BYTE      SCON
      000000A0H.2 SFRSYM    DATA     BIT       P22
      000000A0H.1 SFRSYM    DATA     BIT       P21
      000000A0H.0 SFRSYM    DATA     BIT       P20
      000000F1H   SFRSYM    DATA     BYTE      CANICR
      00000087H   SFRSYM    DATA     BYTE      PCON
      000000BCH   SFRSYM    DATA     BYTE      ADC_CONTR
      000000E7H   SFRSYM    DATA     BYTE      CMPCR2
      000000E6H   SFRSYM    DATA     BYTE      CMPCR1
      000000B8H   SFRSYM    DATA     BYTE      IP
      0000008FH   SFRSYM    DATA     BYTE      INTCLKO
      000000EEH   SFRSYM    DATA     BYTE      IP3H
      000000B6H   SFRSYM    DATA     BYTE      IP2H
      000000A8H   SFRSYM    DATA     BYTE      IE
      000000BBH   SFRSYM    DATA     BYTE      P_SW3
      000000BAH   SFRSYM    DATA     BYTE      P_SW2
      000000A2H   SFRSYM    DATA     BYTE      P_SW1
      000000CEH   SFRSYM    DATA     BYTE      SPCTL
      000000F8H   SFRSYM    DATA     BYTE      P7
      000000A8H.7 SFRSYM    DATA     BIT       EA
      000000E1H   SFRSYM    DATA     BYTE      P7M1
      000000E8H   SFRSYM    DATA     BYTE      P6
      000000C8H   SFRSYM    DATA     BYTE      P5
      000000CBH   SFRSYM    DATA     BYTE      P6M1
      000000E2H   SFRSYM    DATA     BYTE      P7M0
      000000C0H   SFRSYM    DATA     BYTE      P4
      000000C9H   SFRSYM    DATA     BYTE      P5M1
      000000CCH   SFRSYM    DATA     BYTE      P6M0
L251 LINKER/LOCATER V4.66.93.0                                                        06/19/2023  16:47:43  PAGE 16


      000000B0H   SFRSYM    DATA     BYTE      P3
      000000B3H   SFRSYM    DATA     BYTE      P4M1
      000000CAH   SFRSYM    DATA     BYTE      P5M0
      000000A0H   SFRSYM    DATA     BYTE      P2
      000000B1H   SFRSYM    DATA     BYTE      P3M1
      000000B4H   SFRSYM    DATA     BYTE      P4M0
      00000090H   SFRSYM    DATA     BYTE      P1
      00000095H   SFRSYM    DATA     BYTE      P2M1
      000000B2H   SFRSYM    DATA     BYTE      P3M0
      00000080H   SFRSYM    DATA     BYTE      P0
      00000091H   SFRSYM    DATA     BYTE      P1M1
      00000096H   SFRSYM    DATA     BYTE      P2M0
      00000092H   SFRSYM    DATA     BYTE      P1M0
      00000093H   SFRSYM    DATA     BYTE      P0M1

      00FF14BDH   BLOCK     CODE     ---       LVL=0
      00FF14BFH   BLOCK     CODE     NEAR LAB  LVL=1
      R14         REGSYM    ---      BYTE      addr_test
      R15         REGSYM    ---      BYTE      flag
      ---         BLOCKEND  ---      ---       LVL=1
      00FF14BDH   LINE      CODE     ---       #65
      00FF14BFH   LINE      CODE     ---       #66
      00FF14BFH   LINE      CODE     ---       #69
      00FF14C1H   LINE      CODE     ---       #71
      00FF14CCH   LINE      CODE     ---       #73
      00FF14CEH   LINE      CODE     ---       #75
      00FF14D1H   LINE      CODE     ---       #76
      00FF14DDH   LINE      CODE     ---       #77
      00FF14E0H   LINE      CODE     ---       #78
      00FF14E4H   LINE      CODE     ---       #80
      00FF14E6H   LINE      CODE     ---       #81
      00FF14F7H   LINE      CODE     ---       #82
      00FF14FEH   LINE      CODE     ---       #85
      00FF1509H   LINE      CODE     ---       #88
      ---         BLOCKEND  ---      ---       LVL=0

      00FF13C0H   BLOCK     CODE     ---       LVL=0
      00FF13C0H   LINE      CODE     ---       #90
      00FF13C0H   LINE      CODE     ---       #92
      00FF13C3H   LINE      CODE     ---       #94
      00FF13C9H   LINE      CODE     ---       #97
      00FF13D5H   LINE      CODE     ---       #98
      00FF13D7H   LINE      CODE     ---       #99
      00FF13DFH   LINE      CODE     ---       #100
      00FF13E1H   LINE      CODE     ---       #108
      00FF13F6H   LINE      CODE     ---       #109
      00FF13F6H   LINE      CODE     ---       #119
      00FF13F6H   LINE      CODE     ---       #120
      00FF13F8H   LINE      CODE     ---       #121
      00FF13FBH   LINE      CODE     ---       #122
      00FF13FBH   LINE      CODE     ---       #126
      00FF13FDH   LINE      CODE     ---       #127
      00FF1409H   LINE      CODE     ---       #128
      00FF140BH   LINE      CODE     ---       #129
      00FF1410H   LINE      CODE     ---       #130
      00FF1412H   LINE      CODE     ---       #131
      00FF1415H   LINE      CODE     ---       #132
      00FF1415H   LINE      CODE     ---       #133
      ---         BLOCKEND  ---      ---       LVL=0

      00FF086CH   BLOCK     CODE     ---       LVL=0
      00FF086CH   LINE      CODE     ---       #135
      00FF086CH   LINE      CODE     ---       #137
      00FF086FH   LINE      CODE     ---       #138
      00FF0872H   LINE      CODE     ---       #139
L251 LINKER/LOCATER V4.66.93.0                                                        06/19/2023  16:47:43  PAGE 17


      00FF0874H   LINE      CODE     ---       #141
      00FF087BH   LINE      CODE     ---       #143
      00FF087DH   LINE      CODE     ---       #144
      00FF087FH   LINE      CODE     ---       #145
      00FF088FH   LINE      CODE     ---       #146
      00FF0894H   LINE      CODE     ---       #147
      00FF0899H   LINE      CODE     ---       #148
      00FF089EH   LINE      CODE     ---       #149
      00FF08A3H   LINE      CODE     ---       #150
      00FF08A8H   LINE      CODE     ---       #151
      00FF08AAH   LINE      CODE     ---       #152
      00FF08B5H   LINE      CODE     ---       #157
      00FF08B8H   LINE      CODE     ---       #158
      00FF08BFH   LINE      CODE     ---       #159
      00FF08C6H   LINE      CODE     ---       #160
      00FF08CDH   LINE      CODE     ---       #161
      00FF08D0H   LINE      CODE     ---       #162
      00FF08D3H   LINE      CODE     ---       #163
      00FF08D6H   LINE      CODE     ---       #164
      00FF08D9H   LINE      CODE     ---       #167
      00FF08DCH   LINE      CODE     ---       #168
      00FF08E3H   LINE      CODE     ---       #169
      00FF08EBH   LINE      CODE     ---       #170
      00FF08F2H   LINE      CODE     ---       #171
      00FF08F5H   LINE      CODE     ---       #173
      00FF08FAH   LINE      CODE     ---       #174
      00FF08FFH   LINE      CODE     ---       #175
      00FF0904H   LINE      CODE     ---       #176
      00FF0908H   LINE      CODE     ---       #177
      00FF0914H   LINE      CODE     ---       #178
      00FF0920H   LINE      CODE     ---       #179
      00FF0922H   LINE      CODE     ---       #181
      00FF0924H   LINE      CODE     ---       #183
      00FF0924H   LINE      CODE     ---       #185
      00FF0929H   LINE      CODE     ---       #186
      00FF092CH   LINE      CODE     ---       #188
      00FF0933H   LINE      CODE     ---       #189
      00FF0933H   LINE      CODE     ---       #191
      00FF0936H   LINE      CODE     ---       #193
      00FF0939H   LINE      CODE     ---       #195
      00FF094EH   LINE      CODE     ---       #197
      00FF096BH   LINE      CODE     ---       #198
      00FF0972H   LINE      CODE     ---       #199
      ---         BLOCKEND  ---      ---       LVL=0

      00FF15F7H   BLOCK     CODE     ---       LVL=0
      00FF15F7H   LINE      CODE     ---       #203
      00FF15F7H   LINE      CODE     ---       #205
      00FF15FAH   LINE      CODE     ---       #206
      00FF15FDH   LINE      CODE     ---       #207
      00FF1600H   LINE      CODE     ---       #209
      00FF1606H   LINE      CODE     ---       #210
      00FF160CH   LINE      CODE     ---       #211
      00FF1612H   LINE      CODE     ---       #212
      00FF1618H   LINE      CODE     ---       #213
      00FF161EH   LINE      CODE     ---       #214
      00FF1624H   LINE      CODE     ---       #215
      00FF162AH   LINE      CODE     ---       #216
      00FF1630H   LINE      CODE     ---       #218
      00FF1633H   LINE      CODE     ---       #220
      00FF1636H   LINE      CODE     ---       #222
      ---         BLOCKEND  ---      ---       LVL=0

      00FF22BCH   BLOCK     CODE     ---       LVL=0
      R10         REGSYM    ---      BYTE      ms
L251 LINKER/LOCATER V4.66.93.0                                                        06/19/2023  16:47:43  PAGE 18


      00FF22BEH   BLOCK     CODE     NEAR LAB  LVL=1
      WR8         REGSYM    ---      WORD      i
      ---         BLOCKEND  ---      ---       LVL=1
      00FF22BCH   LINE      CODE     ---       #234
      00FF22BEH   LINE      CODE     ---       #235
      00FF22BEH   LINE      CODE     ---       #237
      00FF22BEH   LINE      CODE     ---       #238
      00FF22C2H   LINE      CODE     ---       #239
      00FF22CAH   LINE      CODE     ---       #240
      00FF22D1H   LINE      CODE     ---       #241
      ---         BLOCKEND  ---      ---       LVL=0

      00FF1935H   BLOCK     CODE     ---       LVL=0
      00FF1935H   LINE      CODE     ---       #252
      00FF1935H   LINE      CODE     ---       #254
      00FF1938H   LINE      CODE     ---       #256
      00FF193BH   LINE      CODE     ---       #258
      00FF1945H   LINE      CODE     ---       #259
      00FF194BH   LINE      CODE     ---       #261
      00FF194DH   LINE      CODE     ---       #263
      00FF1950H   LINE      CODE     ---       #264
      00FF1953H   LINE      CODE     ---       #265
      00FF195FH   LINE      CODE     ---       #267
      00FF1964H   LINE      CODE     ---       #268
      00FF1967H   LINE      CODE     ---       #269
      00FF1969H   LINE      CODE     ---       #275
      00FF196FH   LINE      CODE     ---       #276
      00FF1971H   LINE      CODE     ---       #277
      00FF1971H   LINE      CODE     ---       #278
      ---         BLOCKEND  ---      ---       LVL=0

      ---         MODULE    ---      ---       usb
      00FF23EDH   PUBLIC    CODE     ---       usb_setup_in
      00FF242DH   PUBLIC    CODE     ---       usb_setup_out
      00FF10D2H   PUBLIC    CODE     ---       usb_ctrl_in
      00FF15AAH   PUBLIC    CODE     ---       usb_ctrl_out
      00FF00B3H   PUBLIC    CODE     ---       usb_OUT_done
      00FF000AH   PUBLIC    CODE     ---       usb_suspend
      00FF22E8H   PUBLIC    CODE     ---       usb_bulk_intr_in
      00FF20E9H   PUBLIC    CODE     ---       usb_bulk_intr_out
      00FF24ABH   PUBLIC    CODE     ---       usb_resume
      00FF1C41H   PUBLIC    CODE     ---       usb_IN
      00FF19ECH   PUBLIC    CODE     ---       usb_read_fifo?_
      00FF16D4H   PUBLIC    CODE     ---       usb_reset
      00FF0E42H   PUBLIC    CODE     ---       usb_setup
      00FF1D22H   PUBLIC    CODE     ---       usb_write_fifo?_
      00FF119AH   PUBLIC    CODE     ---       usb_init
      00FF243BH   PUBLIC    CODE     ---       usb_setup_stall
      00FF2473H   PUBLIC    CODE     ---       usb_setup_status
      00FF22FDH   PUBLIC    CODE     ---       usb_read_reg
      00FF1C70H   PUBLIC    CODE     ---       usb_in_ep1
      00FF1CF7H   PUBLIC    CODE     ---       usb_in_ep2
      00FF0A77H   PUBLIC    CODE     ---       usb_out_ep1
      00FF238EH   PUBLIC    CODE     ---       usb_write_reg
      00FF0F51H   PUBLIC    CODE     ---       usb_isr
      00000008H   PUBLIC    EDATA    ---       Setup
      00000010H   PUBLIC    EDATA    BYTE      OutNumber
      00000012H   PUBLIC    EDATA    BYTE      DeviceState
      00000013H   PUBLIC    EDATA    ---       Ep0State
      0000001AH   PUBLIC    EDATA    BYTE      InEpState
      0000001BH   PUBLIC    EDATA    BYTE      OutEpState
      00000020H.0 PUBLIC    BIT      BIT       bUsbOutReady
      00000020H.1 PUBLIC    BIT      BIT       bUsbFeatureReady
      00000020H.2 PUBLIC    BIT      BIT       bUsbInBusy
      00010000H   PUBLIC    XDATA    ---       UsbInBuffer
L251 LINKER/LOCATER V4.66.93.0                                                        06/19/2023  16:47:43  PAGE 19


      00010040H   PUBLIC    XDATA    ---       UsbOutBuffer
      00010080H   PUBLIC    XDATA    ---       UsbFeatureBuffer
      000000D0H   SFRSYM    DATA     BYTE      PSW
      0000009DH   SFRSYM    DATA     BYTE      IRCBAND
      00000097H   SFRSYM    DATA     BYTE      AUXR2
      000000EFH   SFRSYM    DATA     BYTE      AUXINTIF
      000000FDH   SFRSYM    DATA     BYTE      S4CON
      000000ACH   SFRSYM    DATA     BYTE      S3CON
      0000009AH   SFRSYM    DATA     BYTE      S2CON
      000000B7H   SFRSYM    DATA     BYTE      IPH
      000000CDH   SFRSYM    DATA     BYTE      SPSTAT
      000000DDH   SFRSYM    DATA     BYTE      T4T3M
      000000C1H   SFRSYM    DATA     BYTE      WDT_CONTR
      000000DFH   SFRSYM    DATA     BYTE      IP3
      000000F4H   SFRSYM    DATA     BYTE      USBCON
      000000B5H   SFRSYM    DATA     BYTE      IP2
      000000FFH   SFRSYM    DATA     BYTE      RSTCFG
      000000DCH   SFRSYM    DATA     BYTE      USBCLK
      000000ECH   SFRSYM    DATA     BYTE      USBDAT
      000000C7H   SFRSYM    DATA     BYTE      IAP_CONTR
      000000F9H   SFRSYM    DATA     BYTE      LINICR
      000000FCH   SFRSYM    DATA     BYTE      USBADR
      0000008EH   SFRSYM    DATA     BYTE      AUXR
      000000AFH   SFRSYM    DATA     BYTE      IE2
      00000088H   SFRSYM    DATA     BYTE      TCON
      00000098H   SFRSYM    DATA     BYTE      SCON
      000000F1H   SFRSYM    DATA     BYTE      CANICR
      00000087H   SFRSYM    DATA     BYTE      PCON
      000000BCH   SFRSYM    DATA     BYTE      ADC_CONTR
      000000AFH.7 SFRSYM    DATA     BIT       EUSB
      000000E7H   SFRSYM    DATA     BYTE      CMPCR2
      000000E6H   SFRSYM    DATA     BYTE      CMPCR1
      000000B8H   SFRSYM    DATA     BYTE      IP
      0000008FH   SFRSYM    DATA     BYTE      INTCLKO
      000000EEH   SFRSYM    DATA     BYTE      IP3H
      000000B6H   SFRSYM    DATA     BYTE      IP2H
      000000A8H   SFRSYM    DATA     BYTE      IE
      000000BBH   SFRSYM    DATA     BYTE      P_SW3
      000000BAH   SFRSYM    DATA     BYTE      P_SW2
      000000A2H   SFRSYM    DATA     BYTE      P_SW1
      000000CEH   SFRSYM    DATA     BYTE      SPCTL
      000000F8H   SFRSYM    DATA     BYTE      P7
      000000E8H   SFRSYM    DATA     BYTE      P6
      000000C8H   SFRSYM    DATA     BYTE      P5
      000000C0H   SFRSYM    DATA     BYTE      P4
      000000B0H   SFRSYM    DATA     BYTE      P3
      000000A0H   SFRSYM    DATA     BYTE      P2
      00000090H   SFRSYM    DATA     BYTE      P1
      00000080H   SFRSYM    DATA     BYTE      P0
      00000011H   SYMBOL    EDATA    CHAR      ispCheck

      00FF119AH   BLOCK     CODE     ---       LVL=0
      00FF119AH   LINE      CODE     ---       #35
      00FF119AH   LINE      CODE     ---       #37
      00FF11A0H   LINE      CODE     ---       #38
      00FF11A8H   LINE      CODE     ---       #39
      00FF11B0H   LINE      CODE     ---       #40
      00FF11B8H   LINE      CODE     ---       #41
      00FF11C0H   LINE      CODE     ---       #42
      00FF11C7H   LINE      CODE     ---       #44
      00FF11CDH   LINE      CODE     ---       #45
      00FF11D2H   LINE      CODE     ---       #46
      00FF11D6H   LINE      CODE     ---       #47
      00FF11DAH   LINE      CODE     ---       #49
      00FF11E6H   LINE      CODE     ---       #50
L251 LINKER/LOCATER V4.66.93.0                                                        06/19/2023  16:47:43  PAGE 20


      00FF11EAH   LINE      CODE     ---       #51
      00FF11EEH   LINE      CODE     ---       #52
      00FF11F4H   LINE      CODE     ---       #54
      00FF11F7H   LINE      CODE     ---       #55
      ---         BLOCKEND  ---      ---       LVL=0

      00FF22FDH   BLOCK     CODE     ---       LVL=0
      R10         REGSYM    ---      BYTE      addr
      00FF22FFH   BLOCK     CODE     NEAR LAB  LVL=1
      R11         REGSYM    ---      BYTE      dat
      ---         BLOCKEND  ---      ---       LVL=1
      00FF22FDH   LINE      CODE     ---       #57
      00FF22FFH   LINE      CODE     ---       #58
      00FF22FFH   LINE      CODE     ---       #61
      00FF2304H   LINE      CODE     ---       #62
      00FF230AH   LINE      CODE     ---       #63
      00FF230FH   LINE      CODE     ---       #64
      00FF2311H   LINE      CODE     ---       #66
      00FF2311H   LINE      CODE     ---       #67
      ---         BLOCKEND  ---      ---       LVL=0

      00FF238EH   BLOCK     CODE     ---       LVL=0
      R7          REGSYM    ---      BYTE      addr
      R10         REGSYM    ---      BYTE      dat
      00FF238EH   LINE      CODE     ---       #69
      00FF2392H   LINE      CODE     ---       #71
      00FF2397H   LINE      CODE     ---       #72
      00FF239DH   LINE      CODE     ---       #73
      00FF23A0H   LINE      CODE     ---       #74
      ---         BLOCKEND  ---      ---       LVL=0

      00FF19ECH   BLOCK     CODE     ---       LVL=0
      FFFFFFFEH   STKSYM    ---      BYTE      fifo
      REG=3       REGSYM    ---      ---       pdat
      00FF19F4H   BLOCK     CODE     NEAR LAB  LVL=1
      00000000H   STKSYM    ---      BYTE      cnt
      FFFFFFFFH   STKSYM    ---      BYTE      ret
      ---         BLOCKEND  ---      ---       LVL=1
      00FF19ECH   LINE      CODE     ---       #76
      00FF19F4H   LINE      CODE     ---       #77
      00FF19F4H   LINE      CODE     ---       #81
      00FF1A00H   LINE      CODE     ---       #82
      00FF1A02H   LINE      CODE     ---       #84
      00FF1A0EH   LINE      CODE     ---       #85
      00FF1A1BH   LINE      CODE     ---       #87
      00FF1A1FH   LINE      CODE     ---       #88
      ---         BLOCKEND  ---      ---       LVL=0

      00FF1D22H   BLOCK     CODE     ---       LVL=0
      00000000H   STKSYM    ---      BYTE      fifo
      REG=3       REGSYM    ---      ---       pdat
      FFFFFFFFH   STKSYM    ---      BYTE      cnt
      00FF1D22H   LINE      CODE     ---       #90
      00FF1D2AH   LINE      CODE     ---       #92
      00FF1D2CH   LINE      CODE     ---       #94
      00FF1D37H   LINE      CODE     ---       #95
      00FF1D46H   LINE      CODE     ---       #96
      ---         BLOCKEND  ---      ---       LVL=0

      00FF0F51H   BLOCK     CODE     ---       LVL=0
      00FF0F69H   BLOCK     CODE     NEAR LAB  LVL=1
      R14         REGSYM    ---      BYTE      intrusb
      R12         REGSYM    ---      BYTE      intrin
      R13         REGSYM    ---      BYTE      introut
      R15         REGSYM    ---      BYTE      adrTemp
L251 LINKER/LOCATER V4.66.93.0                                                        06/19/2023  16:47:43  PAGE 21


      ---         BLOCKEND  ---      ---       LVL=1
      00FF0F51H   LINE      CODE     ---       #98
      00FF0F69H   LINE      CODE     ---       #99
      00FF0F69H   LINE      CODE     ---       #105
      00FF0F6CH   LINE      CODE     ---       #107
      00FF0F73H   LINE      CODE     ---       #108
      00FF0F7AH   LINE      CODE     ---       #109
      00FF0F81H   LINE      CODE     ---       #111
      00FF0F89H   LINE      CODE     ---       #112
      00FF0F91H   LINE      CODE     ---       #114
      00FF0F99H   LINE      CODE     ---       #117
      00FF0FA1H   LINE      CODE     ---       #120
      00FF0FA9H   LINE      CODE     ---       #133
      00FF0FB1H   LINE      CODE     ---       #148
      00FF0FB9H   LINE      CODE     ---       #150
      00FF0FBCH   LINE      CODE     ---       #151
      ---         BLOCKEND  ---      ---       LVL=0

      00FF24ABH   BLOCK     CODE     ---       LVL=0
      00FF24ABH   LINE      CODE     ---       #153
      00FF24ABH   LINE      CODE     ---       #155
      ---         BLOCKEND  ---      ---       LVL=0

      00FF16D4H   BLOCK     CODE     ---       LVL=0
      00FF16D4H   LINE      CODE     ---       #157
      00FF16D4H   LINE      CODE     ---       #159
      00FF16DAH   LINE      CODE     ---       #160
      00FF16E0H   LINE      CODE     ---       #161
      00FF16E5H   LINE      CODE     ---       #164
      00FF16EDH   LINE      CODE     ---       #165
      00FF16F5H   LINE      CODE     ---       #168
      00FF16FDH   LINE      CODE     ---       #169
      00FF1705H   LINE      CODE     ---       #184
      00FF170DH   LINE      CODE     ---       #185
      00FF1715H   LINE      CODE     ---       #203
      ---         BLOCKEND  ---      ---       LVL=0

      00FF000AH   BLOCK     CODE     ---       LVL=0
      00FF000AH   LINE      CODE     ---       #206
      00FF000AH   LINE      CODE     ---       #208
      ---         BLOCKEND  ---      ---       LVL=0

      00FF0E42H   BLOCK     CODE     ---       LVL=0
      00FF0E44H   BLOCK     CODE     NEAR LAB  LVL=1
      R15         REGSYM    ---      BYTE      csr
      ---         BLOCKEND  ---      ---       LVL=1
      00FF0E42H   LINE      CODE     ---       #210
      00FF0E44H   LINE      CODE     ---       #211
      00FF0E44H   LINE      CODE     ---       #214
      00FF0E4BH   LINE      CODE     ---       #215
      00FF0E52H   LINE      CODE     ---       #217
      00FF0E55H   LINE      CODE     ---       #219
      00FF0E5FH   LINE      CODE     ---       #220
      00FF0E64H   LINE      CODE     ---       #221
      00FF0E64H   LINE      CODE     ---       #222
      00FF0E69H   LINE      CODE     ---       #224
      00FF0E73H   LINE      CODE     ---       #225
      00FF0E73H   LINE      CODE     ---       #227
      00FF0E82H   LINE      CODE     ---       #229
      00FF0E82H   LINE      CODE     ---       #230
      00FF0E87H   LINE      CODE     ---       #232
      00FF0E90H   LINE      CODE     ---       #233
      00FF0E9BH   LINE      CODE     ---       #234
      00FF0EADH   LINE      CODE     ---       #236
      00FF0EADH   LINE      CODE     ---       #237
L251 LINKER/LOCATER V4.66.93.0                                                        06/19/2023  16:47:43  PAGE 22


      00FF0EB0H   LINE      CODE     ---       #238
      00FF0EB2H   LINE      CODE     ---       #239
      00FF0EB2H   LINE      CODE     ---       #240
      00FF0EB5H   LINE      CODE     ---       #241
      00FF0EB7H   LINE      CODE     ---       #242
      00FF0EB7H   LINE      CODE     ---       #243
      00FF0EBAH   LINE      CODE     ---       #244
      00FF0EBCH   LINE      CODE     ---       #245
      00FF0EBCH   LINE      CODE     ---       #246
      00FF0EBFH   LINE      CODE     ---       #247
      00FF0EC1H   LINE      CODE     ---       #248
      00FF0EC1H   LINE      CODE     ---       #249
      00FF0EC1H   LINE      CODE     ---       #250
      00FF0EC1H   LINE      CODE     ---       #251
      00FF0EC1H   LINE      CODE     ---       #252
      00FF0EC4H   LINE      CODE     ---       #253
      00FF0EC6H   LINE      CODE     ---       #254
      00FF0EC6H   LINE      CODE     ---       #255
      00FF0EC9H   LINE      CODE     ---       #256
      00FF0EC9H   LINE      CODE     ---       #257
      00FF0EC9H   LINE      CODE     ---       #258
      ---         BLOCKEND  ---      ---       LVL=0

      00FF243BH   BLOCK     CODE     ---       LVL=0
      00FF243BH   LINE      CODE     ---       #260
      00FF243BH   LINE      CODE     ---       #262
      00FF2441H   LINE      CODE     ---       #263
      ---         BLOCKEND  ---      ---       LVL=0

      00FF23EDH   BLOCK     CODE     ---       LVL=0
      00FF23EDH   LINE      CODE     ---       #266
      00FF23EDH   LINE      CODE     ---       #268
      00FF23F3H   LINE      CODE     ---       #269
      00FF23FBH   LINE      CODE     ---       #270
      ---         BLOCKEND  ---      ---       LVL=0

      00FF242DH   BLOCK     CODE     ---       LVL=0
      00FF242DH   LINE      CODE     ---       #273
      00FF242DH   LINE      CODE     ---       #275
      00FF2433H   LINE      CODE     ---       #276
      ---         BLOCKEND  ---      ---       LVL=0

      00FF2473H   BLOCK     CODE     ---       LVL=0
      00FF2473H   LINE      CODE     ---       #279
      00FF2473H   LINE      CODE     ---       #281
      00FF2478H   LINE      CODE     ---       #282
      ---         BLOCKEND  ---      ---       LVL=0

      00FF10D2H   BLOCK     CODE     ---       LVL=0
      00FF10D4H   BLOCK     CODE     NEAR LAB  LVL=1
      R11         REGSYM    ---      BYTE      csr
      R15         REGSYM    ---      BYTE      cnt
      ---         BLOCKEND  ---      ---       LVL=1
      00FF10D2H   LINE      CODE     ---       #285
      00FF10D4H   LINE      CODE     ---       #286
      00FF10D4H   LINE      CODE     ---       #290
      00FF10DBH   LINE      CODE     ---       #291
      00FF10E0H   LINE      CODE     ---       #292
      00FF10E3H   LINE      CODE     ---       #294
      00FF10F4H   LINE      CODE     ---       #295
      00FF10FFH   LINE      CODE     ---       #296
      00FF110BH   LINE      CODE     ---       #297
      00FF1117H   LINE      CODE     ---       #298
      00FF111FH   LINE      CODE     ---       #300
      00FF1127H   LINE      CODE     ---       #301
L251 LINKER/LOCATER V4.66.93.0                                                        06/19/2023  16:47:43  PAGE 23


      00FF112CH   LINE      CODE     ---       #302
      00FF112EH   LINE      CODE     ---       #305
      00FF1136H   LINE      CODE     ---       #306
      00FF1136H   LINE      CODE     ---       #307
      ---         BLOCKEND  ---      ---       LVL=0

      00FF15AAH   BLOCK     CODE     ---       LVL=0
      R11         REGSYM    ---      BYTE      csr
      R7          REGSYM    ---      BYTE      cnt
      00FF15AAH   LINE      CODE     ---       #309
      00FF15AAH   LINE      CODE     ---       #310
      00FF15AAH   LINE      CODE     ---       #314
      00FF15B1H   LINE      CODE     ---       #315
      00FF15B6H   LINE      CODE     ---       #316
      00FF15B9H   LINE      CODE     ---       #318
      00FF15C2H   LINE      CODE     ---       #319
      00FF15CEH   LINE      CODE     ---       #320
      00FF15D8H   LINE      CODE     ---       #321
      00FF15E0H   LINE      CODE     ---       #323
      00FF15E8H   LINE      CODE     ---       #324
      00FF15EDH   LINE      CODE     ---       #325
      00FF15EEH   LINE      CODE     ---       #328
      00FF15F6H   LINE      CODE     ---       #329
      00FF15F6H   LINE      CODE     ---       #330
      ---         BLOCKEND  ---      ---       LVL=0

      00FF22E8H   BLOCK     CODE     ---       LVL=0
      REG=0       REGSYM    ---      ---       pData
      R7          REGSYM    ---      BYTE      bSize
      R10         REGSYM    ---      BYTE      ep
      00FF22E8H   LINE      CODE     ---       #332
      00FF22ECH   LINE      CODE     ---       #334
      00FF22F5H   LINE      CODE     ---       #335
      ---         BLOCKEND  ---      ---       LVL=0

      00FF20E9H   BLOCK     CODE     ---       LVL=0
      REG=0       REGSYM    ---      ---       pData
      R7          REGSYM    ---      BYTE      ep
      00FF20EBH   BLOCK     CODE     NEAR LAB  LVL=1
      R15         REGSYM    ---      BYTE      cnt
      ---         BLOCKEND  ---      ---       LVL=1
      00FF20E9H   LINE      CODE     ---       #338
      00FF20EBH   LINE      CODE     ---       #339
      00FF20EBH   LINE      CODE     ---       #342
      00FF20F6H   LINE      CODE     ---       #343
      00FF20FDH   LINE      CODE     ---       #345
      00FF20FFH   LINE      CODE     ---       #346
      ---         BLOCKEND  ---      ---       LVL=0

      00FF1C70H   BLOCK     CODE     ---       LVL=0
      00FF1C72H   BLOCK     CODE     NEAR LAB  LVL=1
      R15         REGSYM    ---      BYTE      csr
      ---         BLOCKEND  ---      ---       LVL=1
      00FF1C70H   LINE      CODE     ---       #349
      00FF1C72H   LINE      CODE     ---       #350
      00FF1C72H   LINE      CODE     ---       #353
      00FF1C7AH   LINE      CODE     ---       #354
      00FF1C81H   LINE      CODE     ---       #355
      00FF1C84H   LINE      CODE     ---       #357
      00FF1C8CH   LINE      CODE     ---       #358
      00FF1C8CH   LINE      CODE     ---       #359
      00FF1C91H   LINE      CODE     ---       #361
      00FF1C98H   LINE      CODE     ---       #362
      00FF1C98H   LINE      CODE     ---       #364
      00FF1C9AH   LINE      CODE     ---       #365
L251 LINKER/LOCATER V4.66.93.0                                                        06/19/2023  16:47:43  PAGE 24


      ---         BLOCKEND  ---      ---       LVL=0

      00FF1CF7H   BLOCK     CODE     ---       LVL=0
      00FF1CF9H   BLOCK     CODE     NEAR LAB  LVL=1
      R15         REGSYM    ---      BYTE      csr
      ---         BLOCKEND  ---      ---       LVL=1
      00FF1CF7H   LINE      CODE     ---       #369
      00FF1CF9H   LINE      CODE     ---       #370
      00FF1CF9H   LINE      CODE     ---       #373
      00FF1D01H   LINE      CODE     ---       #374
      00FF1D08H   LINE      CODE     ---       #375
      00FF1D0BH   LINE      CODE     ---       #377
      00FF1D13H   LINE      CODE     ---       #378
      00FF1D13H   LINE      CODE     ---       #379
      00FF1D18H   LINE      CODE     ---       #381
      00FF1D1FH   LINE      CODE     ---       #382
      ---         BLOCKEND  ---      ---       LVL=0

      00FF0A77H   BLOCK     CODE     ---       LVL=0
      00FF0A79H   BLOCK     CODE     NEAR LAB  LVL=1
      R15         REGSYM    ---      BYTE      csr
      R15         REGSYM    ---      BYTE      cnt
      ---         BLOCKEND  ---      ---       LVL=1
      00FF0A77H   LINE      CODE     ---       #444
      00FF0A79H   LINE      CODE     ---       #445
      00FF0A79H   LINE      CODE     ---       #449
      00FF0A81H   LINE      CODE     ---       #450
      00FF0A88H   LINE      CODE     ---       #451
      00FF0A8BH   LINE      CODE     ---       #453
      00FF0A93H   LINE      CODE     ---       #454
      00FF0A93H   LINE      CODE     ---       #455
      00FF0A9BH   LINE      CODE     ---       #457
      00FF0AACH   LINE      CODE     ---       #459
      00FF0AB7H   LINE      CODE     ---       #461
      00FF0ABBH   LINE      CODE     ---       #463
      00FF0ADFH   LINE      CODE     ---       #465
      00FF0AE4H   LINE      CODE     ---       #466
      00FF0AF3H   LINE      CODE     ---       #468
      00FF0AFAH   LINE      CODE     ---       #470
      00FF0AFDH   LINE      CODE     ---       #471
      00FF0B00H   LINE      CODE     ---       #472
      00FF0B0CH   LINE      CODE     ---       #474
      00FF0B13H   LINE      CODE     ---       #476
      00FF0B16H   LINE      CODE     ---       #477
      00FF0B18H   LINE      CODE     ---       #480
      00FF0B23H   LINE      CODE     ---       #481
      00FF0B27H   LINE      CODE     ---       #483
      00FF0B2CH   LINE      CODE     ---       #484
      00FF0B36H   LINE      CODE     ---       #485
      00FF0B36H   LINE      CODE     ---       #487
      00FF0B38H   LINE      CODE     ---       #489
      ---         BLOCKEND  ---      ---       LVL=0

      00FF1C41H   BLOCK     CODE     ---       LVL=0
      R15         REGSYM    ---      BYTE      cnt
      00FF1C41H   LINE      CODE     ---       #565
      00FF1C45H   LINE      CODE     ---       #567
      00FF1C48H   LINE      CODE     ---       #569
      00FF1C50H   LINE      CODE     ---       #570
      00FF1C58H   LINE      CODE     ---       #571
      00FF1C68H   LINE      CODE     ---       #572
      00FF1C6AH   LINE      CODE     ---       #574
      00FF1C6DH   LINE      CODE     ---       #575
      ---         BLOCKEND  ---      ---       LVL=0

L251 LINKER/LOCATER V4.66.93.0                                                        06/19/2023  16:47:43  PAGE 25


      00FF00B3H   BLOCK     CODE     ---       LVL=0
      00FF00B3H   LINE      CODE     ---       #577
      00FF00B3H   LINE      CODE     ---       #579
      00FF00B6H   LINE      CODE     ---       #581
      00FF00BEH   LINE      CODE     ---       #582
      00FF00C5H   LINE      CODE     ---       #583
      00FF00C7H   LINE      CODE     ---       #585
      00FF00CAH   LINE      CODE     ---       #586
      ---         BLOCKEND  ---      ---       LVL=0

      ---         MODULE    ---      ---       util
      00FF2366H   PUBLIC    CODE     ---       LCD12864_DisplayClear
      00FF1A26H   PUBLIC    CODE     ---       OLED12864_ScrollRight
      00FF2102H   PUBLIC    CODE     ---       OLED12864_DisplayOff
      00FF1A9AH   PUBLIC    CODE     ---       OLED12864_ScrollLeft
      00FF1E78H   PUBLIC    CODE     ---       OLED12864_SetAddressMode
      00FF1E99H   PUBLIC    CODE     ---       OLED12864_SetContrast
      00FF2134H   PUBLIC    CODE     ---       LCD12864_AutoWrapOff
      00FF18B7H   PUBLIC    CODE     ---       OLED12864_ShowPicture
      00FF1FE5H   PUBLIC    CODE     ---       OLED12864_ScrollStart
      00FF1BAAH   PUBLIC    CODE     ---       SEG7_ShowFloat
      00FF168BH   PUBLIC    CODE     ---       SEG7_ShowString
      00FF1B0BH   PUBLIC    CODE     ---       SEG7_ShowCode
      00FF171CH   PUBLIC    CODE     ---       LED40_SendData
      00FF1FFFH   PUBLIC    CODE     ---       OLED12864_DisplayOn
      00FF1EBAH   PUBLIC    CODE     ---       LCD12864_ReverseLine
      00FF214DH   PUBLIC    CODE     ---       OLED12864_ScrollStop
      00FF1763H   PUBLIC    CODE     ---       LED64_SendData
      00FF1C9DH   PUBLIC    CODE     ---       printf_hid
      00FF1972H   PUBLIC    CODE     ---       SEG7_ShowLong
      00FF2019H   PUBLIC    CODE     ---       LCD12864_ScrollRight
      00FF2033H   PUBLIC    CODE     ---       LCD12864_AutoWrapOn
      00FF2166H   PUBLIC    CODE     ---       LCD12864_DisplayOff
      00FF1B40H   PUBLIC    CODE     ---       reverse2
      00FF1139H   PUBLIC    CODE     ---       reverse4
      00FF2198H   PUBLIC    CODE     ---       LCD12864_ScrollLeft
      00FF21B1H   PUBLIC    CODE     ---       OLED12864_HorizontalMirror
      00FF150CH   PUBLIC    CODE     ---       LCD12864_ShowPicture
      00FF1A60H   PUBLIC    CODE     ---       OLED12864_ScrollUp
      00FF21CAH   PUBLIC    CODE     ---       OLED12864_DisplayContent
      00FF237AH   PUBLIC    CODE     ---       OLED12864_DisplayReverse
      00FF204DH   PUBLIC    CODE     ---       OLED12864_VerticalMirror
      00FF2067H   PUBLIC    CODE     ---       LCD12864_CursorReturnHome
      00FF2081H   PUBLIC    CODE     ---       OLED12864_DisplayEntire
      00FF209BH   PUBLIC    CODE     ---       LCD12864_DisplayOn
      00FF20B5H   PUBLIC    CODE     ---       LCD12864_CursorMoveRight
      00FF19AFH   PUBLIC    CODE     ---       LCD12864_ShowString
      00FF21E3H   PUBLIC    CODE     ---       LCD12864_CursorOff
      00FF2247H   PUBLIC    CODE     ---       sleep_ms
      00FF21FCH   PUBLIC    CODE     ---       LCD12864_CursorMoveLeft
      00FF1F75H   PUBLIC    CODE     ---       sleep_us
      00FF1D9BH   PUBLIC    CODE     ---       LCD12864_ScrollUp
      00FF20CFH   PUBLIC    CODE     ---       LCD12864_CursorOn
      000000AFH   PUBLIC    EDATA    BYTE      ?SEG7_ShowString?BYTE
      0000004DH   PUBLIC    EDATA    BYTE      ?printf_hid?BYTE
      000000D0H   SFRSYM    DATA     BYTE      PSW
      0000009DH   SFRSYM    DATA     BYTE      IRCBAND
      00000097H   SFRSYM    DATA     BYTE      AUXR2
      000000EFH   SFRSYM    DATA     BYTE      AUXINTIF
      000000FDH   SFRSYM    DATA     BYTE      S4CON
      000000ACH   SFRSYM    DATA     BYTE      S3CON
      0000009AH   SFRSYM    DATA     BYTE      S2CON
      000000B7H   SFRSYM    DATA     BYTE      IPH
      000000CDH   SFRSYM    DATA     BYTE      SPSTAT
      000000DDH   SFRSYM    DATA     BYTE      T4T3M
L251 LINKER/LOCATER V4.66.93.0                                                        06/19/2023  16:47:43  PAGE 26


      000000C1H   SFRSYM    DATA     BYTE      WDT_CONTR
      000000DFH   SFRSYM    DATA     BYTE      IP3
      000000F4H   SFRSYM    DATA     BYTE      USBCON
      000000B5H   SFRSYM    DATA     BYTE      IP2
      000000FFH   SFRSYM    DATA     BYTE      RSTCFG
      000000F9H   SFRSYM    DATA     BYTE      LINICR
      0000008EH   SFRSYM    DATA     BYTE      AUXR
      000000AFH   SFRSYM    DATA     BYTE      IE2
      00000088H   SFRSYM    DATA     BYTE      TCON
      00000098H   SFRSYM    DATA     BYTE      SCON
      000000F1H   SFRSYM    DATA     BYTE      CANICR
      00000087H   SFRSYM    DATA     BYTE      PCON
      000000BCH   SFRSYM    DATA     BYTE      ADC_CONTR
      000000E7H   SFRSYM    DATA     BYTE      CMPCR2
      000000E6H   SFRSYM    DATA     BYTE      CMPCR1
      000000B8H   SFRSYM    DATA     BYTE      IP
      0000008FH   SFRSYM    DATA     BYTE      INTCLKO
      000000EEH   SFRSYM    DATA     BYTE      IP3H
      000000B6H   SFRSYM    DATA     BYTE      IP2H
      000000A8H   SFRSYM    DATA     BYTE      IE
      000000BBH   SFRSYM    DATA     BYTE      P_SW3
      000000BAH   SFRSYM    DATA     BYTE      P_SW2
      000000A2H   SFRSYM    DATA     BYTE      P_SW1
      000000CEH   SFRSYM    DATA     BYTE      SPCTL
      000000F8H   SFRSYM    DATA     BYTE      P7
      000000E8H   SFRSYM    DATA     BYTE      P6
      000000C8H   SFRSYM    DATA     BYTE      P5
      000000C0H   SFRSYM    DATA     BYTE      P4
      000000B0H   SFRSYM    DATA     BYTE      P3
      000000A0H   SFRSYM    DATA     BYTE      P2
      00000090H   SFRSYM    DATA     BYTE      P1
      00000080H   SFRSYM    DATA     BYTE      P0
      00FF211BH   SYMBOL    CODE     ---       OLED12864_SetHeader
      00FF0D12H   SYMBOL    CODE     ---       OLED12864_SetBuffer
      00FF217FH   SYMBOL    CODE     ---       LCD12864_SetHeader
      00FF0DAAH   SYMBOL    CODE     ---       LCD12864_SetBuffer
      00FF2215H   SYMBOL    CODE     ---       SEG7_SetHeader

      00FF1139H   BLOCK     CODE     ---       LVL=0
      000000C1H   SYMBOL    EDATA    DWORD     d
      00FF113DH   BLOCK     CODE     NEAR LAB  LVL=1
      000000C5H   SYMBOL    EDATA    DWORD     ret
      ---         BLOCKEND  ---      ---       LVL=1
      00FF1139H   LINE      CODE     ---       #17
      00FF113DH   LINE      CODE     ---       #18
      00FF113DH   LINE      CODE     ---       #21
      00FF1153H   LINE      CODE     ---       #22
      00FF1169H   LINE      CODE     ---       #23
      00FF117FH   LINE      CODE     ---       #24
      00FF1195H   LINE      CODE     ---       #26
      00FF1199H   LINE      CODE     ---       #27
      ---         BLOCKEND  ---      ---       LVL=0

      00FF1B40H   BLOCK     CODE     ---       LVL=0
      00000021H   SYMBOL    EDATA    WORD      w
      00FF1B44H   BLOCK     CODE     NEAR LAB  LVL=1
      00000023H   SYMBOL    EDATA    WORD      ret
      ---         BLOCKEND  ---      ---       LVL=1
      00FF1B40H   LINE      CODE     ---       #29
      00FF1B44H   LINE      CODE     ---       #30
      00FF1B44H   LINE      CODE     ---       #33
      00FF1B5AH   LINE      CODE     ---       #34
      00FF1B70H   LINE      CODE     ---       #36
      00FF1B74H   LINE      CODE     ---       #37
      ---         BLOCKEND  ---      ---       LVL=0
L251 LINKER/LOCATER V4.66.93.0                                                        06/19/2023  16:47:43  PAGE 27



      00FF1F75H   BLOCK     CODE     ---       LVL=0
      WR6         REGSYM    ---      WORD      n
      00FF1F75H   LINE      CODE     ---       #39
      00FF1F75H   LINE      CODE     ---       #41
      00FF1F77H   LINE      CODE     ---       #50
      00FF1F78H   LINE      CODE     ---       #51
      00FF1F79H   LINE      CODE     ---       #52
      00FF1F7AH   LINE      CODE     ---       #53
      00FF1F7BH   LINE      CODE     ---       #55
      00FF1F7CH   LINE      CODE     ---       #56
      00FF1F7DH   LINE      CODE     ---       #57
      00FF1F7EH   LINE      CODE     ---       #58
      00FF1F7FH   LINE      CODE     ---       #59
      00FF1F80H   LINE      CODE     ---       #61
      00FF1F81H   LINE      CODE     ---       #62
      00FF1F82H   LINE      CODE     ---       #63
      00FF1F83H   LINE      CODE     ---       #64
      00FF1F84H   LINE      CODE     ---       #65
      00FF1F85H   LINE      CODE     ---       #67
      00FF1F86H   LINE      CODE     ---       #68
      00FF1F87H   LINE      CODE     ---       #69
      00FF1F88H   LINE      CODE     ---       #70
      00FF1F89H   LINE      CODE     ---       #71
      00FF1F91H   LINE      CODE     ---       #72
      ---         BLOCKEND  ---      ---       LVL=0

      00FF2247H   BLOCK     CODE     ---       LVL=0
      WR14        REGSYM    ---      WORD      n
      00FF2247H   LINE      CODE     ---       #74
      00FF224BH   LINE      CODE     ---       #76
      00FF225CH   LINE      CODE     ---       #78
      ---         BLOCKEND  ---      ---       LVL=0

      00FF2215H   BLOCK     CODE     ---       LVL=0
      00FF2215H   LINE      CODE     ---       #80
      00FF2215H   LINE      CODE     ---       #82
      00FF221BH   LINE      CODE     ---       #83
      00FF2221H   LINE      CODE     ---       #84
      00FF2227H   LINE      CODE     ---       #85
      00FF222DH   LINE      CODE     ---       #86
      ---         BLOCKEND  ---      ---       LVL=0

      00FF1972H   BLOCK     CODE     ---       LVL=0
      0000001CH   SYMBOL    EDATA    LONG      n
      R15         REGSYM    ---      CHAR      radix
      00FF1972H   LINE      CODE     ---       #88
      00FF197AH   LINE      CODE     ---       #90
      00FF197DH   LINE      CODE     ---       #91
      00FF1983H   LINE      CODE     ---       #92
      00FF1989H   LINE      CODE     ---       #93
      00FF198FH   LINE      CODE     ---       #94
      00FF1994H   LINE      CODE     ---       #95
      00FF19A7H   LINE      CODE     ---       #97
      00FF19ACH   LINE      CODE     ---       #98
      ---         BLOCKEND  ---      ---       LVL=0

      00FF1BAAH   BLOCK     CODE     ---       LVL=0
      DR12        REGSYM    ---      FLOAT     f
      00FF1BAAH   LINE      CODE     ---       #100
      00FF1BAEH   LINE      CODE     ---       #102
      00FF1BB1H   LINE      CODE     ---       #103
      00FF1BB7H   LINE      CODE     ---       #104
      00FF1BBDH   LINE      CODE     ---       #105
      00FF1BC2H   LINE      CODE     ---       #106
L251 LINKER/LOCATER V4.66.93.0                                                        06/19/2023  16:47:43  PAGE 28


      00FF1BC6H   LINE      CODE     ---       #107
      00FF1BD5H   LINE      CODE     ---       #109
      00FF1BDAH   LINE      CODE     ---       #110
      ---         BLOCKEND  ---      ---       LVL=0

      00FF1B0BH   BLOCK     CODE     ---       LVL=0
      REG=3       REGSYM    ---      ---       cod
      00FF1B0BH   LINE      CODE     ---       #112
      00FF1B0DH   LINE      CODE     ---       #114
      00FF1B10H   LINE      CODE     ---       #115
      00FF1B16H   LINE      CODE     ---       #116
      00FF1B1BH   LINE      CODE     ---       #117
      00FF1B1FH   LINE      CODE     ---       #118
      00FF1B23H   LINE      CODE     ---       #119
      00FF1B38H   LINE      CODE     ---       #121
      00FF1B3DH   LINE      CODE     ---       #122
      ---         BLOCKEND  ---      ---       LVL=0

      00FF168BH   BLOCK     CODE     ---       LVL=0
      000000AFH   SYMBOL    EDATA    ---       fmt
      00FF1691H   BLOCK     CODE     NEAR LAB  LVL=1
      REG=1       REGSYM    ---      ---       va
      WR14        REGSYM    ---      INT       ret
      ---         BLOCKEND  ---      ---       LVL=1
      00FF168BH   LINE      CODE     ---       #124
      00FF1691H   LINE      CODE     ---       #125
      00FF1691H   LINE      CODE     ---       #129
      00FF1694H   LINE      CODE     ---       #130
      00FF169AH   LINE      CODE     ---       #131
      00FF169FH   LINE      CODE     ---       #132
      00FF16A3H   LINE      CODE     ---       #133
      00FF16A7H   LINE      CODE     ---       #135
      00FF16AFH   LINE      CODE     ---       #136
      00FF16C8H   LINE      CODE     ---       #139
      00FF16CFH   LINE      CODE     ---       #141
      00FF16D1H   LINE      CODE     ---       #142
      ---         BLOCKEND  ---      ---       LVL=0

      00FF1C9DH   BLOCK     CODE     ---       LVL=0
      0000004DH   SYMBOL    EDATA    ---       fmt
      00FF1CA3H   BLOCK     CODE     NEAR LAB  LVL=1
      REG=1       REGSYM    ---      ---       va
      WR14        REGSYM    ---      INT       ret
      ---         BLOCKEND  ---      ---       LVL=1
      00FF1C9DH   LINE      CODE     ---       #144
      00FF1CA3H   LINE      CODE     ---       #145
      00FF1CA3H   LINE      CODE     ---       #149
      00FF1CABH   LINE      CODE     ---       #150
      00FF1CC0H   LINE      CODE     ---       #153
      00FF1CC5H   LINE      CODE     ---       #155
      00FF1CC7H   LINE      CODE     ---       #156
      ---         BLOCKEND  ---      ---       LVL=0

      00FF171CH   BLOCK     CODE     ---       LVL=0
      REG=0       REGSYM    ---      ---       dat
      R15         REGSYM    ---      BYTE      size
      00FF171CH   LINE      CODE     ---       #158
      00FF1720H   LINE      CODE     ---       #160
      00FF1725H   LINE      CODE     ---       #161
      00FF1728H   LINE      CODE     ---       #163
      00FF172EH   LINE      CODE     ---       #164
      00FF1734H   LINE      CODE     ---       #165
      00FF173AH   LINE      CODE     ---       #166
      00FF1740H   LINE      CODE     ---       #167
      00FF1746H   LINE      CODE     ---       #168
L251 LINKER/LOCATER V4.66.93.0                                                        06/19/2023  16:47:43  PAGE 29


      00FF1759H   LINE      CODE     ---       #170
      00FF1760H   LINE      CODE     ---       #171
      ---         BLOCKEND  ---      ---       LVL=0

      00FF1763H   BLOCK     CODE     ---       LVL=0
      REG=0       REGSYM    ---      ---       dat
      R15         REGSYM    ---      BYTE      size
      00FF1763H   LINE      CODE     ---       #173
      00FF1767H   LINE      CODE     ---       #175
      00FF176CH   LINE      CODE     ---       #176
      00FF176FH   LINE      CODE     ---       #178
      00FF1775H   LINE      CODE     ---       #179
      00FF177BH   LINE      CODE     ---       #180
      00FF1781H   LINE      CODE     ---       #181
      00FF1787H   LINE      CODE     ---       #182
      00FF178DH   LINE      CODE     ---       #183
      00FF17A0H   LINE      CODE     ---       #185
      00FF17A7H   LINE      CODE     ---       #186
      ---         BLOCKEND  ---      ---       LVL=0

      00FF217FH   BLOCK     CODE     ---       LVL=0
      00FF217FH   LINE      CODE     ---       #188
      00FF217FH   LINE      CODE     ---       #190
      00FF2185H   LINE      CODE     ---       #191
      00FF218BH   LINE      CODE     ---       #192
      00FF2191H   LINE      CODE     ---       #193
      00FF2197H   LINE      CODE     ---       #194
      ---         BLOCKEND  ---      ---       LVL=0

      00FF2166H   BLOCK     CODE     ---       LVL=0
      00FF2166H   LINE      CODE     ---       #196
      00FF2166H   LINE      CODE     ---       #198
      00FF2169H   LINE      CODE     ---       #199
      00FF216FH   LINE      CODE     ---       #200
      00FF2175H   LINE      CODE     ---       #201
      00FF217AH   LINE      CODE     ---       #203
      ---         BLOCKEND  ---      ---       LVL=0

      00FF209BH   BLOCK     CODE     ---       LVL=0
      00FF209BH   LINE      CODE     ---       #206
      00FF209BH   LINE      CODE     ---       #208
      00FF209EH   LINE      CODE     ---       #209
      00FF20A4H   LINE      CODE     ---       #210
      00FF20AAH   LINE      CODE     ---       #211
      00FF20B0H   LINE      CODE     ---       #213
      ---         BLOCKEND  ---      ---       LVL=0

      00FF21E3H   BLOCK     CODE     ---       LVL=0
      00FF21E3H   LINE      CODE     ---       #216
      00FF21E3H   LINE      CODE     ---       #218
      00FF21E6H   LINE      CODE     ---       #219
      00FF21ECH   LINE      CODE     ---       #220
      00FF21F2H   LINE      CODE     ---       #221
      00FF21F7H   LINE      CODE     ---       #223
      ---         BLOCKEND  ---      ---       LVL=0

      00FF20CFH   BLOCK     CODE     ---       LVL=0
      00FF20CFH   LINE      CODE     ---       #226
      00FF20CFH   LINE      CODE     ---       #228
      00FF20D2H   LINE      CODE     ---       #229
      00FF20D8H   LINE      CODE     ---       #230
      00FF20DEH   LINE      CODE     ---       #231
      00FF20E4H   LINE      CODE     ---       #233
      ---         BLOCKEND  ---      ---       LVL=0

L251 LINKER/LOCATER V4.66.93.0                                                        06/19/2023  16:47:43  PAGE 30


      00FF21FCH   BLOCK     CODE     ---       LVL=0
      00FF21FCH   LINE      CODE     ---       #236
      00FF21FCH   LINE      CODE     ---       #238
      00FF21FFH   LINE      CODE     ---       #239
      00FF2205H   LINE      CODE     ---       #240
      00FF220BH   LINE      CODE     ---       #241
      00FF2210H   LINE      CODE     ---       #243
      ---         BLOCKEND  ---      ---       LVL=0

      00FF20B5H   BLOCK     CODE     ---       LVL=0
      00FF20B5H   LINE      CODE     ---       #246
      00FF20B5H   LINE      CODE     ---       #248
      00FF20B8H   LINE      CODE     ---       #249
      00FF20BEH   LINE      CODE     ---       #250
      00FF20C4H   LINE      CODE     ---       #251
      00FF20CAH   LINE      CODE     ---       #253
      ---         BLOCKEND  ---      ---       LVL=0

      00FF2067H   BLOCK     CODE     ---       LVL=0
      00FF2067H   LINE      CODE     ---       #256
      00FF2067H   LINE      CODE     ---       #258
      00FF206AH   LINE      CODE     ---       #259
      00FF2070H   LINE      CODE     ---       #260
      00FF2076H   LINE      CODE     ---       #261
      00FF207CH   LINE      CODE     ---       #263
      ---         BLOCKEND  ---      ---       LVL=0

      00FF2198H   BLOCK     CODE     ---       LVL=0
      00FF2198H   LINE      CODE     ---       #266
      00FF2198H   LINE      CODE     ---       #268
      00FF219BH   LINE      CODE     ---       #269
      00FF21A1H   LINE      CODE     ---       #270
      00FF21A7H   LINE      CODE     ---       #271
      00FF21ACH   LINE      CODE     ---       #273
      ---         BLOCKEND  ---      ---       LVL=0

      00FF2019H   BLOCK     CODE     ---       LVL=0
      00FF2019H   LINE      CODE     ---       #276
      00FF2019H   LINE      CODE     ---       #278
      00FF201CH   LINE      CODE     ---       #279
      00FF2022H   LINE      CODE     ---       #280
      00FF2028H   LINE      CODE     ---       #281
      00FF202EH   LINE      CODE     ---       #283
      ---         BLOCKEND  ---      ---       LVL=0

      00FF1D9BH   BLOCK     CODE     ---       LVL=0
      R15         REGSYM    ---      BYTE      line
      00FF1D9BH   LINE      CODE     ---       #286
      00FF1D9FH   LINE      CODE     ---       #288
      00FF1DA2H   LINE      CODE     ---       #289
      00FF1DA8H   LINE      CODE     ---       #290
      00FF1DAEH   LINE      CODE     ---       #291
      00FF1DB4H   LINE      CODE     ---       #292
      00FF1DBAH   LINE      CODE     ---       #294
      00FF1DBFH   LINE      CODE     ---       #295
      ---         BLOCKEND  ---      ---       LVL=0

      00FF2134H   BLOCK     CODE     ---       LVL=0
      00FF2134H   LINE      CODE     ---       #297
      00FF2134H   LINE      CODE     ---       #299
      00FF2137H   LINE      CODE     ---       #300
      00FF213DH   LINE      CODE     ---       #301
      00FF2143H   LINE      CODE     ---       #302
      00FF2148H   LINE      CODE     ---       #304
      ---         BLOCKEND  ---      ---       LVL=0
L251 LINKER/LOCATER V4.66.93.0                                                        06/19/2023  16:47:43  PAGE 31



      00FF2033H   BLOCK     CODE     ---       LVL=0
      00FF2033H   LINE      CODE     ---       #307
      00FF2033H   LINE      CODE     ---       #309
      00FF2036H   LINE      CODE     ---       #310
      00FF203CH   LINE      CODE     ---       #311
      00FF2042H   LINE      CODE     ---       #312
      00FF2048H   LINE      CODE     ---       #314
      ---         BLOCKEND  ---      ---       LVL=0

      00FF1EBAH   BLOCK     CODE     ---       LVL=0
      R15         REGSYM    ---      BYTE      line
      00FF1EBAH   LINE      CODE     ---       #317
      00FF1EBEH   LINE      CODE     ---       #319
      00FF1EC1H   LINE      CODE     ---       #320
      00FF1EC7H   LINE      CODE     ---       #321
      00FF1ECDH   LINE      CODE     ---       #322
      00FF1ED3H   LINE      CODE     ---       #324
      00FF1ED8H   LINE      CODE     ---       #325
      ---         BLOCKEND  ---      ---       LVL=0

      00FF2366H   BLOCK     CODE     ---       LVL=0
      00FF2366H   LINE      CODE     ---       #327
      00FF2366H   LINE      CODE     ---       #329
      00FF2369H   LINE      CODE     ---       #330
      00FF236FH   LINE      CODE     ---       #331
      00FF2375H   LINE      CODE     ---       #333
      ---         BLOCKEND  ---      ---       LVL=0

      00FF0DAAH   BLOCK     CODE     ---       LVL=0
      REG=3       REGSYM    ---      ---       dat
      000000D0H   SYMBOL    EDATA    WORD      size
      00FF0DB2H   BLOCK     CODE     NEAR LAB  LVL=1
      000000D2H   SYMBOL    EDATA    BYTE      cnt
      000000D3H   SYMBOL    EDATA    WORD      addr
      ---         BLOCKEND  ---      ---       LVL=1
      00FF0DAAH   LINE      CODE     ---       #336
      00FF0DB2H   LINE      CODE     ---       #337
      00FF0DB2H   LINE      CODE     ---       #341
      00FF0DB8H   LINE      CODE     ---       #342
      00FF0DBAH   LINE      CODE     ---       #344
      00FF0DC0H   LINE      CODE     ---       #345
      00FF0DCAH   LINE      CODE     ---       #346
      00FF0DCEH   LINE      CODE     ---       #348
      00FF0DD1H   LINE      CODE     ---       #349
      00FF0DDFH   LINE      CODE     ---       #350
      00FF0DE5H   LINE      CODE     ---       #351
      00FF0DF4H   LINE      CODE     ---       #352
      00FF0E0BH   LINE      CODE     ---       #354
      00FF0E14H   LINE      CODE     ---       #356
      00FF0E1CH   LINE      CODE     ---       #357
      00FF0E2AH   LINE      CODE     ---       #358
      00FF0E34H   LINE      CODE     ---       #359
      00FF0E3FH   LINE      CODE     ---       #360
      ---         BLOCKEND  ---      ---       LVL=0

      00FF19AFH   BLOCK     CODE     ---       LVL=0
      000000E7H   SYMBOL    EDATA    BYTE      x
      000000E8H   SYMBOL    EDATA    BYTE      y
      REG=3       REGSYM    ---      ---       str
      00FF19AFH   LINE      CODE     ---       #362
      00FF19BBH   LINE      CODE     ---       #364
      00FF19C5H   LINE      CODE     ---       #366
      00FF19C8H   LINE      CODE     ---       #367
      00FF19CEH   LINE      CODE     ---       #368
L251 LINKER/LOCATER V4.66.93.0                                                        06/19/2023  16:47:43  PAGE 32


      00FF19D4H   LINE      CODE     ---       #369
      00FF19DCH   LINE      CODE     ---       #370
      00FF19E4H   LINE      CODE     ---       #372
      00FF19E9H   LINE      CODE     ---       #373
      ---         BLOCKEND  ---      ---       LVL=0

      00FF150CH   BLOCK     CODE     ---       LVL=0
      R12         REGSYM    ---      BYTE      x
      R13         REGSYM    ---      BYTE      y
      R14         REGSYM    ---      BYTE      cx
      R15         REGSYM    ---      BYTE      cy
      REG=7       REGSYM    ---      ---       dat
      00FF150CH   LINE      CODE     ---       #375
      00FF1518H   LINE      CODE     ---       #377
      00FF152CH   LINE      CODE     ---       #379
      00FF152FH   LINE      CODE     ---       #380
      00FF1535H   LINE      CODE     ---       #381
      00FF153BH   LINE      CODE     ---       #382
      00FF1541H   LINE      CODE     ---       #383
      00FF1547H   LINE      CODE     ---       #384
      00FF154DH   LINE      CODE     ---       #385
      00FF1553H   LINE      CODE     ---       #387
      00FF1558H   LINE      CODE     ---       #388
      ---         BLOCKEND  ---      ---       LVL=0

      00FF211BH   BLOCK     CODE     ---       LVL=0
      00FF211BH   LINE      CODE     ---       #390
      00FF211BH   LINE      CODE     ---       #392
      00FF2121H   LINE      CODE     ---       #393
      00FF2127H   LINE      CODE     ---       #394
      00FF212DH   LINE      CODE     ---       #395
      00FF2133H   LINE      CODE     ---       #396
      ---         BLOCKEND  ---      ---       LVL=0

      00FF2102H   BLOCK     CODE     ---       LVL=0
      00FF2102H   LINE      CODE     ---       #398
      00FF2102H   LINE      CODE     ---       #400
      00FF2105H   LINE      CODE     ---       #401
      00FF210BH   LINE      CODE     ---       #402
      00FF2111H   LINE      CODE     ---       #403
      00FF2116H   LINE      CODE     ---       #405
      ---         BLOCKEND  ---      ---       LVL=0

      00FF1FFFH   BLOCK     CODE     ---       LVL=0
      00FF1FFFH   LINE      CODE     ---       #408
      00FF1FFFH   LINE      CODE     ---       #410
      00FF2002H   LINE      CODE     ---       #411
      00FF2008H   LINE      CODE     ---       #412
      00FF200EH   LINE      CODE     ---       #413
      00FF2014H   LINE      CODE     ---       #415
      ---         BLOCKEND  ---      ---       LVL=0

      00FF21CAH   BLOCK     CODE     ---       LVL=0
      00FF21CAH   LINE      CODE     ---       #418
      00FF21CAH   LINE      CODE     ---       #420
      00FF21CDH   LINE      CODE     ---       #421
      00FF21D3H   LINE      CODE     ---       #422
      00FF21D9H   LINE      CODE     ---       #423
      00FF21DEH   LINE      CODE     ---       #425
      ---         BLOCKEND  ---      ---       LVL=0

      00FF2081H   BLOCK     CODE     ---       LVL=0
      00FF2081H   LINE      CODE     ---       #428
      00FF2081H   LINE      CODE     ---       #430
      00FF2084H   LINE      CODE     ---       #431
L251 LINKER/LOCATER V4.66.93.0                                                        06/19/2023  16:47:43  PAGE 33


      00FF208AH   LINE      CODE     ---       #432
      00FF2090H   LINE      CODE     ---       #433
      00FF2096H   LINE      CODE     ---       #435
      ---         BLOCKEND  ---      ---       LVL=0

      00FF21B1H   BLOCK     CODE     ---       LVL=0
      00FF21B1H   LINE      CODE     ---       #438
      00FF21B1H   LINE      CODE     ---       #440
      00FF21B4H   LINE      CODE     ---       #441
      00FF21BAH   LINE      CODE     ---       #442
      00FF21C0H   LINE      CODE     ---       #443
      00FF21C5H   LINE      CODE     ---       #445
      ---         BLOCKEND  ---      ---       LVL=0

      00FF204DH   BLOCK     CODE     ---       LVL=0
      00FF204DH   LINE      CODE     ---       #448
      00FF204DH   LINE      CODE     ---       #450
      00FF2050H   LINE      CODE     ---       #451
      00FF2056H   LINE      CODE     ---       #452
      00FF205CH   LINE      CODE     ---       #453
      00FF2062H   LINE      CODE     ---       #455
      ---         BLOCKEND  ---      ---       LVL=0

      00FF237AH   BLOCK     CODE     ---       LVL=0
      00FF237AH   LINE      CODE     ---       #458
      00FF237AH   LINE      CODE     ---       #460
      00FF237DH   LINE      CODE     ---       #461
      00FF2383H   LINE      CODE     ---       #462
      00FF2389H   LINE      CODE     ---       #464
      ---         BLOCKEND  ---      ---       LVL=0

      00FF1E99H   BLOCK     CODE     ---       LVL=0
      R15         REGSYM    ---      BYTE      bContrast
      00FF1E99H   LINE      CODE     ---       #467
      00FF1E9DH   LINE      CODE     ---       #469
      00FF1EA0H   LINE      CODE     ---       #470
      00FF1EA6H   LINE      CODE     ---       #471
      00FF1EACH   LINE      CODE     ---       #472
      00FF1EB2H   LINE      CODE     ---       #474
      00FF1EB7H   LINE      CODE     ---       #475
      ---         BLOCKEND  ---      ---       LVL=0

      00FF1E78H   BLOCK     CODE     ---       LVL=0
      R15         REGSYM    ---      BYTE      bMode
      00FF1E78H   LINE      CODE     ---       #477
      00FF1E7CH   LINE      CODE     ---       #479
      00FF1E7FH   LINE      CODE     ---       #480
      00FF1E85H   LINE      CODE     ---       #481
      00FF1E8BH   LINE      CODE     ---       #482
      00FF1E91H   LINE      CODE     ---       #484
      00FF1E96H   LINE      CODE     ---       #485
      ---         BLOCKEND  ---      ---       LVL=0

      00FF1A9AH   BLOCK     CODE     ---       LVL=0
      R12         REGSYM    ---      BYTE      bPageStart
      R13         REGSYM    ---      BYTE      bPageEnd
      WR14        REGSYM    ---      WORD      nInterval
      00FF1A9AH   LINE      CODE     ---       #487
      00FF1AA0H   LINE      CODE     ---       #489
      00FF1AA3H   LINE      CODE     ---       #490
      00FF1AA9H   LINE      CODE     ---       #491
      00FF1AAFH   LINE      CODE     ---       #492
      00FF1AB4H   LINE      CODE     ---       #493
      00FF1ABAH   LINE      CODE     ---       #494
      00FF1AC0H   LINE      CODE     ---       #495
L251 LINKER/LOCATER V4.66.93.0                                                        06/19/2023  16:47:43  PAGE 34


      00FF1ACBH   LINE      CODE     ---       #497
      00FF1AD0H   LINE      CODE     ---       #498
      ---         BLOCKEND  ---      ---       LVL=0

      00FF1A26H   BLOCK     CODE     ---       LVL=0
      R12         REGSYM    ---      BYTE      bPageStart
      R13         REGSYM    ---      BYTE      bPageEnd
      WR14        REGSYM    ---      WORD      nInterval
      00FF1A26H   LINE      CODE     ---       #500
      00FF1A2CH   LINE      CODE     ---       #502
      00FF1A2FH   LINE      CODE     ---       #503
      00FF1A35H   LINE      CODE     ---       #504
      00FF1A3BH   LINE      CODE     ---       #505
      00FF1A41H   LINE      CODE     ---       #506
      00FF1A47H   LINE      CODE     ---       #507
      00FF1A4DH   LINE      CODE     ---       #508
      00FF1A58H   LINE      CODE     ---       #510
      00FF1A5DH   LINE      CODE     ---       #511
      ---         BLOCKEND  ---      ---       LVL=0

      00FF1A60H   BLOCK     CODE     ---       LVL=0
      R12         REGSYM    ---      BYTE      bPageStart
      R13         REGSYM    ---      BYTE      bPageEnd
      WR14        REGSYM    ---      WORD      nInterval
      00FF1A60H   LINE      CODE     ---       #513
      00FF1A66H   LINE      CODE     ---       #515
      00FF1A69H   LINE      CODE     ---       #516
      00FF1A6FH   LINE      CODE     ---       #517
      00FF1A75H   LINE      CODE     ---       #518
      00FF1A7BH   LINE      CODE     ---       #519
      00FF1A81H   LINE      CODE     ---       #520
      00FF1A87H   LINE      CODE     ---       #521
      00FF1A92H   LINE      CODE     ---       #523
      00FF1A97H   LINE      CODE     ---       #524
      ---         BLOCKEND  ---      ---       LVL=0

      00FF1FE5H   BLOCK     CODE     ---       LVL=0
      00FF1FE5H   LINE      CODE     ---       #526
      00FF1FE5H   LINE      CODE     ---       #528
      00FF1FE8H   LINE      CODE     ---       #529
      00FF1FEEH   LINE      CODE     ---       #530
      00FF1FF4H   LINE      CODE     ---       #531
      00FF1FFAH   LINE      CODE     ---       #533
      ---         BLOCKEND  ---      ---       LVL=0

      00FF214DH   BLOCK     CODE     ---       LVL=0
      00FF214DH   LINE      CODE     ---       #536
      00FF214DH   LINE      CODE     ---       #538
      00FF2150H   LINE      CODE     ---       #539
      00FF2156H   LINE      CODE     ---       #540
      00FF215CH   LINE      CODE     ---       #541
      00FF2161H   LINE      CODE     ---       #543
      ---         BLOCKEND  ---      ---       LVL=0

      00FF0D12H   BLOCK     CODE     ---       LVL=0
      REG=3       REGSYM    ---      ---       dat
      000000D5H   SYMBOL    EDATA    WORD      size
      00FF0D1AH   BLOCK     CODE     NEAR LAB  LVL=1
      000000D7H   SYMBOL    EDATA    BYTE      cnt
      000000D8H   SYMBOL    EDATA    WORD      addr
      ---         BLOCKEND  ---      ---       LVL=1
      00FF0D12H   LINE      CODE     ---       #546
      00FF0D1AH   LINE      CODE     ---       #547
      00FF0D1AH   LINE      CODE     ---       #551
      00FF0D20H   LINE      CODE     ---       #552
L251 LINKER/LOCATER V4.66.93.0                                                        06/19/2023  16:47:43  PAGE 35


      00FF0D22H   LINE      CODE     ---       #554
      00FF0D28H   LINE      CODE     ---       #555
      00FF0D32H   LINE      CODE     ---       #556
      00FF0D36H   LINE      CODE     ---       #558
      00FF0D39H   LINE      CODE     ---       #559
      00FF0D47H   LINE      CODE     ---       #560
      00FF0D4DH   LINE      CODE     ---       #561
      00FF0D5CH   LINE      CODE     ---       #562
      00FF0D73H   LINE      CODE     ---       #564
      00FF0D7CH   LINE      CODE     ---       #566
      00FF0D84H   LINE      CODE     ---       #567
      00FF0D92H   LINE      CODE     ---       #568
      00FF0D9CH   LINE      CODE     ---       #569
      00FF0DA7H   LINE      CODE     ---       #570
      ---         BLOCKEND  ---      ---       LVL=0

      00FF18B7H   BLOCK     CODE     ---       LVL=0
      R12         REGSYM    ---      BYTE      x
      R13         REGSYM    ---      BYTE      y
      R14         REGSYM    ---      BYTE      cx
      R15         REGSYM    ---      BYTE      cy
      REG=7       REGSYM    ---      ---       dat
      00FF18B7H   LINE      CODE     ---       #572
      00FF18C1H   LINE      CODE     ---       #574
      00FF18C8H   LINE      CODE     ---       #576
      00FF18CBH   LINE      CODE     ---       #577
      00FF18D1H   LINE      CODE     ---       #578
      00FF18D7H   LINE      CODE     ---       #579
      00FF18DDH   LINE      CODE     ---       #580
      00FF18E3H   LINE      CODE     ---       #581
      00FF18E9H   LINE      CODE     ---       #582
      00FF18EFH   LINE      CODE     ---       #584
      00FF18F4H   LINE      CODE     ---       #585
      ---         BLOCKEND  ---      ---       LVL=0

      ---         MODULE    ---      ---       usb_req_class
      00FF22D2H   PUBLIC    CODE     ---       usb_set_ctrl_line_state
      00FF1DC2H   PUBLIC    CODE     ---       usb_get_line_coding
      00FF1DE8H   PUBLIC    CODE     ---       usb_set_line_coding
      00FF1FCAH   PUBLIC    CODE     ---       usb_req_class
      000000C9H   PUBLIC    EDATA    ---       LineCoding
      000000D0H   SFRSYM    DATA     BYTE      PSW
      0000009DH   SFRSYM    DATA     BYTE      IRCBAND
      00000097H   SFRSYM    DATA     BYTE      AUXR2
      000000EFH   SFRSYM    DATA     BYTE      AUXINTIF
      000000FDH   SFRSYM    DATA     BYTE      S4CON
      000000ACH   SFRSYM    DATA     BYTE      S3CON
      0000009AH   SFRSYM    DATA     BYTE      S2CON
      000000B7H   SFRSYM    DATA     BYTE      IPH
      000000CDH   SFRSYM    DATA     BYTE      SPSTAT
      000000DDH   SFRSYM    DATA     BYTE      T4T3M
      000000C1H   SFRSYM    DATA     BYTE      WDT_CONTR
      000000DFH   SFRSYM    DATA     BYTE      IP3
      000000F4H   SFRSYM    DATA     BYTE      USBCON
      000000B5H   SFRSYM    DATA     BYTE      IP2
      000000FFH   SFRSYM    DATA     BYTE      RSTCFG
      000000F9H   SFRSYM    DATA     BYTE      LINICR
      0000008EH   SFRSYM    DATA     BYTE      AUXR
      000000AFH   SFRSYM    DATA     BYTE      IE2
      00000088H   SFRSYM    DATA     BYTE      TCON
      00000098H   SFRSYM    DATA     BYTE      SCON
      000000F1H   SFRSYM    DATA     BYTE      CANICR
      00000087H   SFRSYM    DATA     BYTE      PCON
      000000BCH   SFRSYM    DATA     BYTE      ADC_CONTR
      000000E7H   SFRSYM    DATA     BYTE      CMPCR2
L251 LINKER/LOCATER V4.66.93.0                                                        06/19/2023  16:47:43  PAGE 36


      000000E6H   SFRSYM    DATA     BYTE      CMPCR1
      000000B8H   SFRSYM    DATA     BYTE      IP
      0000008FH   SFRSYM    DATA     BYTE      INTCLKO
      000000EEH   SFRSYM    DATA     BYTE      IP3H
      000000B6H   SFRSYM    DATA     BYTE      IP2H
      000000A8H   SFRSYM    DATA     BYTE      IE
      000000BBH   SFRSYM    DATA     BYTE      P_SW3
      000000BAH   SFRSYM    DATA     BYTE      P_SW2
      000000A2H   SFRSYM    DATA     BYTE      P_SW1
      000000CEH   SFRSYM    DATA     BYTE      SPCTL
      000000F8H   SFRSYM    DATA     BYTE      P7
      000000E8H   SFRSYM    DATA     BYTE      P6
      000000C8H   SFRSYM    DATA     BYTE      P5
      000000C0H   SFRSYM    DATA     BYTE      P4
      000000B0H   SFRSYM    DATA     BYTE      P3
      000000A0H   SFRSYM    DATA     BYTE      P2
      00000090H   SFRSYM    DATA     BYTE      P1
      00000080H   SFRSYM    DATA     BYTE      P0

      00FF1FCAH   BLOCK     CODE     ---       LVL=0
      00FF1FCAH   LINE      CODE     ---       #20
      00FF1FCAH   LINE      CODE     ---       #22
      00FF1FD9H   LINE      CODE     ---       #24
      00FF1FD9H   LINE      CODE     ---       #25
      00FF1FDCH   LINE      CODE     ---       #26
      00FF1FDCH   LINE      CODE     ---       #27
      00FF1FDCH   LINE      CODE     ---       #28
      00FF1FDFH   LINE      CODE     ---       #29
      00FF1FDFH   LINE      CODE     ---       #30
      00FF1FDFH   LINE      CODE     ---       #31
      00FF1FE2H   LINE      CODE     ---       #32
      00FF1FE2H   LINE      CODE     ---       #33
      00FF1FE2H   LINE      CODE     ---       #34
      00FF1FE5H   LINE      CODE     ---       #35
      00FF1FE5H   LINE      CODE     ---       #36
      00FF1FE5H   LINE      CODE     ---       #37
      ---         BLOCKEND  ---      ---       LVL=0

      00FF1DE8H   BLOCK     CODE     ---       LVL=0
      00FF1DE8H   LINE      CODE     ---       #39
      00FF1DE8H   LINE      CODE     ---       #41
      00FF1DF8H   LINE      CODE     ---       #44
      00FF1DFBH   LINE      CODE     ---       #45
      00FF1DFBH   LINE      CODE     ---       #46
      00FF1DFBH   LINE      CODE     ---       #48
      00FF1E03H   LINE      CODE     ---       #49
      00FF1E0BH   LINE      CODE     ---       #51
      00FF1E0EH   LINE      CODE     ---       #52
      ---         BLOCKEND  ---      ---       LVL=0

      00FF1DC2H   BLOCK     CODE     ---       LVL=0
      00FF1DC2H   LINE      CODE     ---       #54
      00FF1DC2H   LINE      CODE     ---       #56
      00FF1DD2H   LINE      CODE     ---       #59
      00FF1DD5H   LINE      CODE     ---       #60
      00FF1DD5H   LINE      CODE     ---       #61
      00FF1DD5H   LINE      CODE     ---       #63
      00FF1DDDH   LINE      CODE     ---       #64
      00FF1DE5H   LINE      CODE     ---       #66
      00FF1DE8H   LINE      CODE     ---       #67
      ---         BLOCKEND  ---      ---       LVL=0

      00FF22D2H   BLOCK     CODE     ---       LVL=0
      00FF22D2H   LINE      CODE     ---       #69
      00FF22D2H   LINE      CODE     ---       #71
L251 LINKER/LOCATER V4.66.93.0                                                        06/19/2023  16:47:43  PAGE 37


      00FF22E2H   LINE      CODE     ---       #74
      00FF22E5H   LINE      CODE     ---       #75
      00FF22E5H   LINE      CODE     ---       #76
      00FF22E5H   LINE      CODE     ---       #78
      00FF22E8H   LINE      CODE     ---       #79
      ---         BLOCKEND  ---      ---       LVL=0

      ---         MODULE    ---      ---       usb_req_std
      00FF18F7H   PUBLIC    CODE     ---       usb_get_interface
      00FF0B3BH   PUBLIC    CODE     ---       usb_clear_feature
      00FF1D4BH   PUBLIC    CODE     ---       usb_set_interface
      00FF0BDAH   PUBLIC    CODE     ---       usb_get_descriptor
      00FF249FH   PUBLIC    CODE     ---       usb_set_descriptor
      00FF11F8H   PUBLIC    CODE     ---       usb_req_std
      00FF24A2H   PUBLIC    CODE     ---       usb_synch_frame
      00FF1641H   PUBLIC    CODE     ---       usb_set_address
      00FF0C79H   PUBLIC    CODE     ---       usb_set_feature
      00FF1416H   PUBLIC    CODE     ---       usb_get_configuration
      00FF000EH   PUBLIC    CODE     ---       usb_set_configuration
      00FF0974H   PUBLIC    CODE     ---       usb_get_status
      000000D0H   SFRSYM    DATA     BYTE      PSW
      0000009DH   SFRSYM    DATA     BYTE      IRCBAND
      00000097H   SFRSYM    DATA     BYTE      AUXR2
      000000EFH   SFRSYM    DATA     BYTE      AUXINTIF
      000000FDH   SFRSYM    DATA     BYTE      S4CON
      000000ACH   SFRSYM    DATA     BYTE      S3CON
      0000009AH   SFRSYM    DATA     BYTE      S2CON
      000000B7H   SFRSYM    DATA     BYTE      IPH
      000000CDH   SFRSYM    DATA     BYTE      SPSTAT
      000000DDH   SFRSYM    DATA     BYTE      T4T3M
      000000C1H   SFRSYM    DATA     BYTE      WDT_CONTR
      000000DFH   SFRSYM    DATA     BYTE      IP3
      000000F4H   SFRSYM    DATA     BYTE      USBCON
      000000B5H   SFRSYM    DATA     BYTE      IP2
      000000FFH   SFRSYM    DATA     BYTE      RSTCFG
      000000F9H   SFRSYM    DATA     BYTE      LINICR
      0000008EH   SFRSYM    DATA     BYTE      AUXR
      000000AFH   SFRSYM    DATA     BYTE      IE2
      00000088H   SFRSYM    DATA     BYTE      TCON
      00000098H   SFRSYM    DATA     BYTE      SCON
      000000F1H   SFRSYM    DATA     BYTE      CANICR
      00000087H   SFRSYM    DATA     BYTE      PCON
      000000BCH   SFRSYM    DATA     BYTE      ADC_CONTR
      000000E7H   SFRSYM    DATA     BYTE      CMPCR2
      000000E6H   SFRSYM    DATA     BYTE      CMPCR1
      000000B8H   SFRSYM    DATA     BYTE      IP
      0000008FH   SFRSYM    DATA     BYTE      INTCLKO
      000000EEH   SFRSYM    DATA     BYTE      IP3H
      000000B6H   SFRSYM    DATA     BYTE      IP2H
      000000A8H   SFRSYM    DATA     BYTE      IE
      000000BBH   SFRSYM    DATA     BYTE      P_SW3
      000000BAH   SFRSYM    DATA     BYTE      P_SW2
      000000A2H   SFRSYM    DATA     BYTE      P_SW1
      000000CEH   SFRSYM    DATA     BYTE      SPCTL
      000000F8H   SFRSYM    DATA     BYTE      P7
      000000E8H   SFRSYM    DATA     BYTE      P6
      000000C8H   SFRSYM    DATA     BYTE      P5
      000000C0H   SFRSYM    DATA     BYTE      P4
      000000B0H   SFRSYM    DATA     BYTE      P3
      000000A0H   SFRSYM    DATA     BYTE      P2
      00000090H   SFRSYM    DATA     BYTE      P1
      00000080H   SFRSYM    DATA     BYTE      P0

      00FF11F8H   BLOCK     CODE     ---       LVL=0
      00FF11F8H   LINE      CODE     ---       #19
L251 LINKER/LOCATER V4.66.93.0                                                        06/19/2023  16:47:43  PAGE 38


      00FF11F8H   LINE      CODE     ---       #21
      00FF1230H   LINE      CODE     ---       #23
      00FF1230H   LINE      CODE     ---       #24
      00FF1233H   LINE      CODE     ---       #25
      00FF1233H   LINE      CODE     ---       #26
      00FF1233H   LINE      CODE     ---       #27
      00FF1236H   LINE      CODE     ---       #28
      00FF1236H   LINE      CODE     ---       #29
      00FF1236H   LINE      CODE     ---       #30
      00FF1239H   LINE      CODE     ---       #31
      00FF1239H   LINE      CODE     ---       #32
      00FF1239H   LINE      CODE     ---       #33
      00FF123CH   LINE      CODE     ---       #34
      00FF123CH   LINE      CODE     ---       #35
      00FF123CH   LINE      CODE     ---       #36
      00FF123FH   LINE      CODE     ---       #37
      00FF123FH   LINE      CODE     ---       #38
      00FF123FH   LINE      CODE     ---       #39
      00FF1242H   LINE      CODE     ---       #40
      00FF1242H   LINE      CODE     ---       #41
      00FF1242H   LINE      CODE     ---       #42
      00FF1245H   LINE      CODE     ---       #43
      00FF1245H   LINE      CODE     ---       #44
      00FF1245H   LINE      CODE     ---       #45
      00FF1248H   LINE      CODE     ---       #46
      00FF1248H   LINE      CODE     ---       #47
      00FF1248H   LINE      CODE     ---       #48
      00FF124BH   LINE      CODE     ---       #49
      00FF124BH   LINE      CODE     ---       #50
      00FF124BH   LINE      CODE     ---       #51
      00FF124EH   LINE      CODE     ---       #52
      00FF124EH   LINE      CODE     ---       #53
      00FF124EH   LINE      CODE     ---       #54
      00FF1251H   LINE      CODE     ---       #55
      00FF1251H   LINE      CODE     ---       #56
      00FF1251H   LINE      CODE     ---       #57
      00FF1254H   LINE      CODE     ---       #58
      00FF1254H   LINE      CODE     ---       #59
      00FF1254H   LINE      CODE     ---       #60
      ---         BLOCKEND  ---      ---       LVL=0

      00FF0974H   BLOCK     CODE     ---       LVL=0
      00FF0976H   BLOCK     CODE     NEAR LAB  LVL=1
      R10         REGSYM    ---      BYTE      ep
      ---         BLOCKEND  ---      ---       LVL=1
      00FF0974H   LINE      CODE     ---       #62
      00FF0976H   LINE      CODE     ---       #63
      00FF0976H   LINE      CODE     ---       #66
      00FF0997H   LINE      CODE     ---       #71
      00FF0997H   LINE      CODE     ---       #72
      00FF099AH   LINE      CODE     ---       #73
      00FF099AH   LINE      CODE     ---       #75
      00FF09ABH   LINE      CODE     ---       #77
      00FF09ABH   LINE      CODE     ---       #78
      00FF09B7H   LINE      CODE     ---       #81
      00FF09B7H   LINE      CODE     ---       #82
      00FF09BAH   LINE      CODE     ---       #83
      00FF09BAH   LINE      CODE     ---       #86
      00FF09BAH   LINE      CODE     ---       #87
      00FF09BAH   LINE      CODE     ---       #88
      00FF09BAH   LINE      CODE     ---       #89
      00FF09BCH   LINE      CODE     ---       #90
      00FF09BCH   LINE      CODE     ---       #91
      00FF09D2H   LINE      CODE     ---       #95
      00FF09D2H   LINE      CODE     ---       #96
L251 LINKER/LOCATER V4.66.93.0                                                        06/19/2023  16:47:43  PAGE 39


      00FF09D5H   LINE      CODE     ---       #97
      00FF09D5H   LINE      CODE     ---       #100
      00FF09DDH   LINE      CODE     ---       #101
      00FF09DDH   LINE      CODE     ---       #102
      00FF09DDH   LINE      CODE     ---       #103
      00FF09DFH   LINE      CODE     ---       #104
      00FF09DFH   LINE      CODE     ---       #105
      00FF09ECH   LINE      CODE     ---       #108
      00FF09ECH   LINE      CODE     ---       #109
      00FF09EEH   LINE      CODE     ---       #110
      00FF09EEH   LINE      CODE     ---       #113
      00FF09F7H   LINE      CODE     ---       #114
      00FF0A04H   LINE      CODE     ---       #117
      00FF0A04H   LINE      CODE     ---       #120
      00FF0A04H   LINE      CODE     ---       #132
      00FF0A1DH   LINE      CODE     ---       #134
      00FF0A25H   LINE      CODE     ---       #135
      00FF0A25H   LINE      CODE     ---       #136
      00FF0A27H   LINE      CODE     ---       #139
      00FF0A2FH   LINE      CODE     ---       #140
      00FF0A2FH   LINE      CODE     ---       #141
      00FF0A2FH   LINE      CODE     ---       #142
      00FF0A31H   LINE      CODE     ---       #145
      00FF0A31H   LINE      CODE     ---       #160
      00FF0A4AH   LINE      CODE     ---       #162
      00FF0A52H   LINE      CODE     ---       #163
      00FF0A52H   LINE      CODE     ---       #164
      00FF0A54H   LINE      CODE     ---       #167
      00FF0A60H   LINE      CODE     ---       #168
      00FF0A68H   LINE      CODE     ---       #169
      00FF0A68H   LINE      CODE     ---       #170
      00FF0A6AH   LINE      CODE     ---       #172
      00FF0A6AH   LINE      CODE     ---       #173
      00FF0A6AH   LINE      CODE     ---       #174
      00FF0A6CH   LINE      CODE     ---       #175
      00FF0A6CH   LINE      CODE     ---       #176
      00FF0A6CH   LINE      CODE     ---       #177
      00FF0A6CH   LINE      CODE     ---       #178
      00FF0A6CH   LINE      CODE     ---       #179
      00FF0A6FH   LINE      CODE     ---       #180
      00FF0A71H   LINE      CODE     ---       #181
      00FF0A71H   LINE      CODE     ---       #183
      00FF0A74H   LINE      CODE     ---       #184
      ---         BLOCKEND  ---      ---       LVL=0

      00FF0B3BH   BLOCK     CODE     ---       LVL=0
      R7          REGSYM    ---      BYTE      ep
      00FF0B3BH   LINE      CODE     ---       #186
      00FF0B3BH   LINE      CODE     ---       #187
      00FF0B3BH   LINE      CODE     ---       #190
      00FF0B66H   LINE      CODE     ---       #197
      00FF0B66H   LINE      CODE     ---       #198
      00FF0B68H   LINE      CODE     ---       #199
      00FF0B68H   LINE      CODE     ---       #201
      00FF0B71H   LINE      CODE     ---       #202
      00FF0B7EH   LINE      CODE     ---       #205
      00FF0B7EH   LINE      CODE     ---       #208
      00FF0B7EH   LINE      CODE     ---       #220
      00FF0B98H   LINE      CODE     ---       #221
      00FF0B9DH   LINE      CODE     ---       #222
      00FF0BA2H   LINE      CODE     ---       #223
      00FF0BA2H   LINE      CODE     ---       #224
      00FF0BA4H   LINE      CODE     ---       #227
      00FF0BA4H   LINE      CODE     ---       #242
      00FF0BBEH   LINE      CODE     ---       #243
L251 LINKER/LOCATER V4.66.93.0                                                        06/19/2023  16:47:43  PAGE 40


      00FF0BC3H   LINE      CODE     ---       #244
      00FF0BCBH   LINE      CODE     ---       #245
      00FF0BD2H   LINE      CODE     ---       #246
      00FF0BD4H   LINE      CODE     ---       #248
      00FF0BD4H   LINE      CODE     ---       #249
      00FF0BD7H   LINE      CODE     ---       #250
      00FF0BD7H   LINE      CODE     ---       #251
      00FF0BD7H   LINE      CODE     ---       #253
      00FF0BDAH   LINE      CODE     ---       #254
      ---         BLOCKEND  ---      ---       LVL=0

      00FF0C79H   BLOCK     CODE     ---       LVL=0
      R7          REGSYM    ---      BYTE      ep
      00FF0C79H   LINE      CODE     ---       #256
      00FF0C79H   LINE      CODE     ---       #257
      00FF0C79H   LINE      CODE     ---       #260
      00FF0CA4H   LINE      CODE     ---       #267
      00FF0CA4H   LINE      CODE     ---       #268
      00FF0CA6H   LINE      CODE     ---       #269
      00FF0CA6H   LINE      CODE     ---       #271
      00FF0CAFH   LINE      CODE     ---       #272
      00FF0CBCH   LINE      CODE     ---       #275
      00FF0CBCH   LINE      CODE     ---       #278
      00FF0CBCH   LINE      CODE     ---       #290
      00FF0CD3H   LINE      CODE     ---       #291
      00FF0CD8H   LINE      CODE     ---       #292
      00FF0CDDH   LINE      CODE     ---       #293
      00FF0CDDH   LINE      CODE     ---       #294
      00FF0CDFH   LINE      CODE     ---       #297
      00FF0CDFH   LINE      CODE     ---       #312
      00FF0CF6H   LINE      CODE     ---       #313
      00FF0CFBH   LINE      CODE     ---       #314
      00FF0D03H   LINE      CODE     ---       #315
      00FF0D0AH   LINE      CODE     ---       #316
      00FF0D0CH   LINE      CODE     ---       #318
      00FF0D0CH   LINE      CODE     ---       #319
      00FF0D0FH   LINE      CODE     ---       #320
      00FF0D0FH   LINE      CODE     ---       #321
      00FF0D0FH   LINE      CODE     ---       #323
      00FF0D12H   LINE      CODE     ---       #324
      ---         BLOCKEND  ---      ---       LVL=0

      00FF1641H   BLOCK     CODE     ---       LVL=0
      00FF1643H   BLOCK     CODE     NEAR LAB  LVL=1
      R15         REGSYM    ---      BYTE      addr
      ---         BLOCKEND  ---      ---       LVL=1
      00FF1641H   LINE      CODE     ---       #326
      00FF1643H   LINE      CODE     ---       #327
      00FF1643H   LINE      CODE     ---       #330
      00FF166CH   LINE      CODE     ---       #337
      00FF166FH   LINE      CODE     ---       #338
      00FF1671H   LINE      CODE     ---       #339
      00FF1671H   LINE      CODE     ---       #341
      00FF1671H   LINE      CODE     ---       #342
      00FF1677H   LINE      CODE     ---       #343
      00FF167BH   LINE      CODE     ---       #345
      00FF167DH   LINE      CODE     ---       #346
      00FF167FH   LINE      CODE     ---       #349
      00FF1685H   LINE      CODE     ---       #350
      00FF1685H   LINE      CODE     ---       #352
      00FF1688H   LINE      CODE     ---       #353
      ---         BLOCKEND  ---      ---       LVL=0

      00FF0BDAH   BLOCK     CODE     ---       LVL=0
      00FF0BDAH   LINE      CODE     ---       #355
L251 LINKER/LOCATER V4.66.93.0                                                        06/19/2023  16:47:43  PAGE 41


      00FF0BDAH   LINE      CODE     ---       #357
      00FF0BE5H   LINE      CODE     ---       #359
      00FF0BE5H   LINE      CODE     ---       #360
      00FF0BE8H   LINE      CODE     ---       #361
      00FF0BE8H   LINE      CODE     ---       #363
      00FF0BF7H   LINE      CODE     ---       #365
      00FF0BF7H   LINE      CODE     ---       #366
      00FF0C03H   LINE      CODE     ---       #367
      00FF0C07H   LINE      CODE     ---       #368
      00FF0C09H   LINE      CODE     ---       #369
      00FF0C09H   LINE      CODE     ---       #370
      00FF0C15H   LINE      CODE     ---       #371
      00FF0C19H   LINE      CODE     ---       #372
      00FF0C1BH   LINE      CODE     ---       #373
      00FF0C1BH   LINE      CODE     ---       #374
      00FF0C29H   LINE      CODE     ---       #376
      00FF0C29H   LINE      CODE     ---       #377
      00FF0C35H   LINE      CODE     ---       #378
      00FF0C39H   LINE      CODE     ---       #379
      00FF0C3BH   LINE      CODE     ---       #380
      00FF0C3BH   LINE      CODE     ---       #381
      00FF0C47H   LINE      CODE     ---       #382
      00FF0C4BH   LINE      CODE     ---       #383
      00FF0C4DH   LINE      CODE     ---       #384
      00FF0C4DH   LINE      CODE     ---       #385
      00FF0C59H   LINE      CODE     ---       #386
      00FF0C61H   LINE      CODE     ---       #387
      00FF0C63H   LINE      CODE     ---       #388
      00FF0C63H   LINE      CODE     ---       #389
      00FF0C63H   LINE      CODE     ---       #390
      00FF0C65H   LINE      CODE     ---       #391
      00FF0C65H   LINE      CODE     ---       #392
      00FF0C65H   LINE      CODE     ---       #393
      00FF0C65H   LINE      CODE     ---       #394
      00FF0C68H   LINE      CODE     ---       #395
      00FF0C68H   LINE      CODE     ---       #396
      00FF0C68H   LINE      CODE     ---       #398
      00FF0C72H   LINE      CODE     ---       #400
      00FF0C76H   LINE      CODE     ---       #401
      00FF0C76H   LINE      CODE     ---       #403
      00FF0C79H   LINE      CODE     ---       #404
      ---         BLOCKEND  ---      ---       LVL=0

      00FF249FH   BLOCK     CODE     ---       LVL=0
      00FF249FH   LINE      CODE     ---       #406
      00FF249FH   LINE      CODE     ---       #408
      ---         BLOCKEND  ---      ---       LVL=0

      00FF1416H   BLOCK     CODE     ---       LVL=0
      00FF1416H   LINE      CODE     ---       #411
      00FF1416H   LINE      CODE     ---       #413
      00FF143FH   LINE      CODE     ---       #420
      00FF1442H   LINE      CODE     ---       #421
      00FF1442H   LINE      CODE     ---       #422
      00FF1442H   LINE      CODE     ---       #424
      00FF1449H   LINE      CODE     ---       #426
      00FF1451H   LINE      CODE     ---       #427
      00FF1451H   LINE      CODE     ---       #428
      00FF1453H   LINE      CODE     ---       #431
      00FF145FH   LINE      CODE     ---       #432
      00FF1467H   LINE      CODE     ---       #433
      00FF1467H   LINE      CODE     ---       #435
      00FF146AH   LINE      CODE     ---       #436
      ---         BLOCKEND  ---      ---       LVL=0

L251 LINKER/LOCATER V4.66.93.0                                                        06/19/2023  16:47:43  PAGE 42


      00FF000EH   BLOCK     CODE     ---       LVL=0
      00FF000EH   LINE      CODE     ---       #438
      00FF000EH   LINE      CODE     ---       #440
      00FF0037H   LINE      CODE     ---       #447
      00FF003AH   LINE      CODE     ---       #448
      00FF003AH   LINE      CODE     ---       #449
      00FF003AH   LINE      CODE     ---       #451
      00FF0041H   LINE      CODE     ---       #453
      00FF0047H   LINE      CODE     ---       #454
      00FF004CH   LINE      CODE     ---       #455
      00FF0050H   LINE      CODE     ---       #457
      00FF0058H   LINE      CODE     ---       #458
      00FF0060H   LINE      CODE     ---       #459
      00FF0068H   LINE      CODE     ---       #462
      00FF0070H   LINE      CODE     ---       #463
      00FF0078H   LINE      CODE     ---       #464
      00FF0080H   LINE      CODE     ---       #482
      00FF0088H   LINE      CODE     ---       #483
      00FF008FH   LINE      CODE     ---       #484
      00FF0097H   LINE      CODE     ---       #506
      00FF009EH   LINE      CODE     ---       #507
      00FF00A0H   LINE      CODE     ---       #510
      00FF00A6H   LINE      CODE     ---       #511
      00FF00ACH   LINE      CODE     ---       #512
      00FF00B0H   LINE      CODE     ---       #513
      00FF00B0H   LINE      CODE     ---       #515
      00FF00B3H   LINE      CODE     ---       #516
      ---         BLOCKEND  ---      ---       LVL=0

      00FF18F7H   BLOCK     CODE     ---       LVL=0
      00FF18F7H   LINE      CODE     ---       #518
      00FF18F7H   LINE      CODE     ---       #520
      00FF191BH   LINE      CODE     ---       #526
      00FF191EH   LINE      CODE     ---       #527
      00FF191EH   LINE      CODE     ---       #528
      00FF191EH   LINE      CODE     ---       #530
      00FF192AH   LINE      CODE     ---       #531
      00FF1932H   LINE      CODE     ---       #533
      00FF1935H   LINE      CODE     ---       #534
      ---         BLOCKEND  ---      ---       LVL=0

      00FF1D4BH   BLOCK     CODE     ---       LVL=0
      00FF1D4BH   LINE      CODE     ---       #536
      00FF1D4BH   LINE      CODE     ---       #538
      00FF1D6DH   LINE      CODE     ---       #544
      00FF1D70H   LINE      CODE     ---       #545
      00FF1D70H   LINE      CODE     ---       #546
      00FF1D70H   LINE      CODE     ---       #548
      00FF1D73H   LINE      CODE     ---       #549
      ---         BLOCKEND  ---      ---       LVL=0

      00FF24A2H   BLOCK     CODE     ---       LVL=0
      00FF24A2H   LINE      CODE     ---       #551
      00FF24A2H   LINE      CODE     ---       #553
      ---         BLOCKEND  ---      ---       LVL=0

      ---         MODULE    ---      ---       usb_req_vendor
      00FF24A5H   PUBLIC    CODE     ---       usb_req_vendor
      000000D0H   SFRSYM    DATA     BYTE      PSW
      0000009DH   SFRSYM    DATA     BYTE      IRCBAND
      00000097H   SFRSYM    DATA     BYTE      AUXR2
      000000EFH   SFRSYM    DATA     BYTE      AUXINTIF
      000000FDH   SFRSYM    DATA     BYTE      S4CON
      000000ACH   SFRSYM    DATA     BYTE      S3CON
      0000009AH   SFRSYM    DATA     BYTE      S2CON
L251 LINKER/LOCATER V4.66.93.0                                                        06/19/2023  16:47:43  PAGE 43


      000000B7H   SFRSYM    DATA     BYTE      IPH
      000000CDH   SFRSYM    DATA     BYTE      SPSTAT
      000000DDH   SFRSYM    DATA     BYTE      T4T3M
      000000C1H   SFRSYM    DATA     BYTE      WDT_CONTR
      000000DFH   SFRSYM    DATA     BYTE      IP3
      000000F4H   SFRSYM    DATA     BYTE      USBCON
      000000B5H   SFRSYM    DATA     BYTE      IP2
      000000FFH   SFRSYM    DATA     BYTE      RSTCFG
      000000F9H   SFRSYM    DATA     BYTE      LINICR
      0000008EH   SFRSYM    DATA     BYTE      AUXR
      000000AFH   SFRSYM    DATA     BYTE      IE2
      00000088H   SFRSYM    DATA     BYTE      TCON
      00000098H   SFRSYM    DATA     BYTE      SCON
      000000F1H   SFRSYM    DATA     BYTE      CANICR
      00000087H   SFRSYM    DATA     BYTE      PCON
      000000BCH   SFRSYM    DATA     BYTE      ADC_CONTR
      000000E7H   SFRSYM    DATA     BYTE      CMPCR2
      000000E6H   SFRSYM    DATA     BYTE      CMPCR1
      000000B8H   SFRSYM    DATA     BYTE      IP
      0000008FH   SFRSYM    DATA     BYTE      INTCLKO
      000000EEH   SFRSYM    DATA     BYTE      IP3H
      000000B6H   SFRSYM    DATA     BYTE      IP2H
      000000A8H   SFRSYM    DATA     BYTE      IE
      000000BBH   SFRSYM    DATA     BYTE      P_SW3
      000000BAH   SFRSYM    DATA     BYTE      P_SW2
      000000A2H   SFRSYM    DATA     BYTE      P_SW1
      000000CEH   SFRSYM    DATA     BYTE      SPCTL
      000000F8H   SFRSYM    DATA     BYTE      P7
      000000E8H   SFRSYM    DATA     BYTE      P6
      000000C8H   SFRSYM    DATA     BYTE      P5
      000000C0H   SFRSYM    DATA     BYTE      P4
      000000B0H   SFRSYM    DATA     BYTE      P3
      000000A0H   SFRSYM    DATA     BYTE      P2
      00000090H   SFRSYM    DATA     BYTE      P1
      00000080H   SFRSYM    DATA     BYTE      P0

      00FF24A5H   BLOCK     CODE     ---       LVL=0
      00FF24A5H   LINE      CODE     ---       #17
      00FF24A5H   LINE      CODE     ---       #19
      ---         BLOCKEND  ---      ---       LVL=0

      ---         MODULE    ---      ---       usb_desc
      00FF0FD5H   PUBLIC    CODE     ---       PRODUCTDESC
      00FF0FF3H   PUBLIC    CODE     ---       LANGIDDESC
      00FF0FF7H   PUBLIC    CODE     ---       DEVICEDESC
      00FF1009H   PUBLIC    CODE     ---       CONFIGDESC
      00FF104CH   PUBLIC    CODE     ---       PACKET0
      00FF104EH   PUBLIC    CODE     ---       PACKET1
      00FF1050H   PUBLIC    CODE     ---       MANUFACTDESC
      000000D0H   SFRSYM    DATA     BYTE      PSW
      0000009DH   SFRSYM    DATA     BYTE      IRCBAND
      00000097H   SFRSYM    DATA     BYTE      AUXR2
      000000EFH   SFRSYM    DATA     BYTE      AUXINTIF
      000000FDH   SFRSYM    DATA     BYTE      S4CON
      000000ACH   SFRSYM    DATA     BYTE      S3CON
      0000009AH   SFRSYM    DATA     BYTE      S2CON
      000000B7H   SFRSYM    DATA     BYTE      IPH
      000000CDH   SFRSYM    DATA     BYTE      SPSTAT
      000000DDH   SFRSYM    DATA     BYTE      T4T3M
      000000C1H   SFRSYM    DATA     BYTE      WDT_CONTR
      000000DFH   SFRSYM    DATA     BYTE      IP3
      000000F4H   SFRSYM    DATA     BYTE      USBCON
      000000B5H   SFRSYM    DATA     BYTE      IP2
      000000FFH   SFRSYM    DATA     BYTE      RSTCFG
      000000F9H   SFRSYM    DATA     BYTE      LINICR
L251 LINKER/LOCATER V4.66.93.0                                                        06/19/2023  16:47:43  PAGE 44


      0000008EH   SFRSYM    DATA     BYTE      AUXR
      000000AFH   SFRSYM    DATA     BYTE      IE2
      00000088H   SFRSYM    DATA     BYTE      TCON
      00000098H   SFRSYM    DATA     BYTE      SCON
      000000F1H   SFRSYM    DATA     BYTE      CANICR
      00000087H   SFRSYM    DATA     BYTE      PCON
      000000BCH   SFRSYM    DATA     BYTE      ADC_CONTR
      000000E7H   SFRSYM    DATA     BYTE      CMPCR2
      000000E6H   SFRSYM    DATA     BYTE      CMPCR1
      000000B8H   SFRSYM    DATA     BYTE      IP
      0000008FH   SFRSYM    DATA     BYTE      INTCLKO
      000000EEH   SFRSYM    DATA     BYTE      IP3H
      000000B6H   SFRSYM    DATA     BYTE      IP2H
      000000A8H   SFRSYM    DATA     BYTE      IE
      000000BBH   SFRSYM    DATA     BYTE      P_SW3
      000000BAH   SFRSYM    DATA     BYTE      P_SW2
      000000A2H   SFRSYM    DATA     BYTE      P_SW1
      000000CEH   SFRSYM    DATA     BYTE      SPCTL
      000000F8H   SFRSYM    DATA     BYTE      P7
      000000E8H   SFRSYM    DATA     BYTE      P6
      000000C8H   SFRSYM    DATA     BYTE      P5
      000000C0H   SFRSYM    DATA     BYTE      P4
      000000B0H   SFRSYM    DATA     BYTE      P3
      000000A0H   SFRSYM    DATA     BYTE      P2
      00000090H   SFRSYM    DATA     BYTE      P1
      00000080H   SFRSYM    DATA     BYTE      P0

      ---         MODULE    ---      ---       debug
      00FF1D73H   PUBLIC    CODE     ---       Debug_Init
      000000D0H   SFRSYM    DATA     BYTE      PSW
      0000009DH   SFRSYM    DATA     BYTE      IRCBAND
      00000097H   SFRSYM    DATA     BYTE      AUXR2
      000000EFH   SFRSYM    DATA     BYTE      AUXINTIF
      000000FDH   SFRSYM    DATA     BYTE      S4CON
      000000ACH   SFRSYM    DATA     BYTE      S3CON
      0000009AH   SFRSYM    DATA     BYTE      S2CON
      000000B7H   SFRSYM    DATA     BYTE      IPH
      000000CDH   SFRSYM    DATA     BYTE      SPSTAT
      000000DDH   SFRSYM    DATA     BYTE      T4T3M
      000000C1H   SFRSYM    DATA     BYTE      WDT_CONTR
      000000DFH   SFRSYM    DATA     BYTE      IP3
      000000F4H   SFRSYM    DATA     BYTE      USBCON
      000000B5H   SFRSYM    DATA     BYTE      IP2
      000000FFH   SFRSYM    DATA     BYTE      RSTCFG
      000000DCH   SFRSYM    DATA     BYTE      USBCLK
      000000F9H   SFRSYM    DATA     BYTE      LINICR
      0000008EH   SFRSYM    DATA     BYTE      AUXR
      000000AFH   SFRSYM    DATA     BYTE      IE2
      00000088H   SFRSYM    DATA     BYTE      TCON
      00000098H   SFRSYM    DATA     BYTE      SCON
      000000F1H   SFRSYM    DATA     BYTE      CANICR
      00000087H   SFRSYM    DATA     BYTE      PCON
      000000BCH   SFRSYM    DATA     BYTE      ADC_CONTR
      000000E7H   SFRSYM    DATA     BYTE      CMPCR2
      000000E6H   SFRSYM    DATA     BYTE      CMPCR1
      000000B8H   SFRSYM    DATA     BYTE      IP
      0000008FH   SFRSYM    DATA     BYTE      INTCLKO
      000000EEH   SFRSYM    DATA     BYTE      IP3H
      000000B6H   SFRSYM    DATA     BYTE      IP2H
      000000A8H   SFRSYM    DATA     BYTE      IE
      000000BBH   SFRSYM    DATA     BYTE      P_SW3
      000000BAH   SFRSYM    DATA     BYTE      P_SW2
      000000A2H   SFRSYM    DATA     BYTE      P_SW1
      000000CEH   SFRSYM    DATA     BYTE      SPCTL
      000000F8H   SFRSYM    DATA     BYTE      P7
L251 LINKER/LOCATER V4.66.93.0                                                        06/19/2023  16:47:43  PAGE 45


      000000E8H   SFRSYM    DATA     BYTE      P6
      000000C8H   SFRSYM    DATA     BYTE      P5
      000000C0H   SFRSYM    DATA     BYTE      P4
      000000B0H   SFRSYM    DATA     BYTE      P3
      000000A0H   SFRSYM    DATA     BYTE      P2
      000000B1H   SFRSYM    DATA     BYTE      P3M1
      00000090H   SFRSYM    DATA     BYTE      P1
      000000B2H   SFRSYM    DATA     BYTE      P3M0
      00000080H   SFRSYM    DATA     BYTE      P0

      00FF1D73H   BLOCK     CODE     ---       LVL=0
      00FF1D73H   LINE      CODE     ---       #5
      00FF1D73H   LINE      CODE     ---       #9
      00FF1D76H   LINE      CODE     ---       #10
      00FF1D79H   LINE      CODE     ---       #12
      00FF1D86H   LINE      CODE     ---       #13
      00FF1D94H   LINE      CODE     ---       #15
      00FF1D97H   LINE      CODE     ---       #16
      00FF1D9AH   LINE      CODE     ---       #19
      ---         BLOCKEND  ---      ---       LVL=0

      ---         MODULE    ---      ---       i2c
      00FF1F57H   PUBLIC    CODE     ---       I2C_RecvACK
      00FF222EH   PUBLIC    CODE     ---       I2C_SendNAK
      00FF2277H   PUBLIC    CODE     ---       I2C_SendData
      00FF155BH   PUBLIC    CODE     ---       I2C_Write
      00FF1F92H   PUBLIC    CODE     ---       I2C_RecvData
      00FF23FEH   PUBLIC    CODE     ---       I2C_Start
      00FF1E56H   PUBLIC    CODE     ---       I2C_Init
      00FF228EH   PUBLIC    CODE     ---       I2C_Wait
      00FF1058H   PUBLIC    CODE     ---       I2C_read
      00FF2499H   PUBLIC    CODE     ---       I2C_SendByte
      00FF240EH   PUBLIC    CODE     ---       I2C_Stop
      00FF241EH   PUBLIC    CODE     ---       I2C_RecvByte
      00FF225FH   PUBLIC    CODE     ---       I2C_SendACK
      000000D0H   SFRSYM    DATA     BYTE      PSW
      0000009DH   SFRSYM    DATA     BYTE      IRCBAND
      00000097H   SFRSYM    DATA     BYTE      AUXR2
      000000EFH   SFRSYM    DATA     BYTE      AUXINTIF
      000000FDH   SFRSYM    DATA     BYTE      S4CON
      000000ACH   SFRSYM    DATA     BYTE      S3CON
      0000009AH   SFRSYM    DATA     BYTE      S2CON
      000000B7H   SFRSYM    DATA     BYTE      IPH
      000000CDH   SFRSYM    DATA     BYTE      SPSTAT
      000000DDH   SFRSYM    DATA     BYTE      T4T3M
      000000C1H   SFRSYM    DATA     BYTE      WDT_CONTR
      000000DFH   SFRSYM    DATA     BYTE      IP3
      000000F4H   SFRSYM    DATA     BYTE      USBCON
      000000B5H   SFRSYM    DATA     BYTE      IP2
      000000FFH   SFRSYM    DATA     BYTE      RSTCFG
      000000F9H   SFRSYM    DATA     BYTE      LINICR
      0000008EH   SFRSYM    DATA     BYTE      AUXR
      000000AFH   SFRSYM    DATA     BYTE      IE2
      00000088H   SFRSYM    DATA     BYTE      TCON
      00000098H   SFRSYM    DATA     BYTE      SCON
      000000F1H   SFRSYM    DATA     BYTE      CANICR
      00000087H   SFRSYM    DATA     BYTE      PCON
      000000BCH   SFRSYM    DATA     BYTE      ADC_CONTR
      000000E7H   SFRSYM    DATA     BYTE      CMPCR2
      000000E6H   SFRSYM    DATA     BYTE      CMPCR1
      000000B8H   SFRSYM    DATA     BYTE      IP
      0000008FH   SFRSYM    DATA     BYTE      INTCLKO
      000000EEH   SFRSYM    DATA     BYTE      IP3H
      000000B6H   SFRSYM    DATA     BYTE      IP2H
      000000A8H   SFRSYM    DATA     BYTE      IE
L251 LINKER/LOCATER V4.66.93.0                                                        06/19/2023  16:47:43  PAGE 46


      000000BBH   SFRSYM    DATA     BYTE      P_SW3
      000000BAH   SFRSYM    DATA     BYTE      P_SW2
      000000A2H   SFRSYM    DATA     BYTE      P_SW1
      000000CEH   SFRSYM    DATA     BYTE      SPCTL
      000000F8H   SFRSYM    DATA     BYTE      P7
      000000E8H   SFRSYM    DATA     BYTE      P6
      000000C8H   SFRSYM    DATA     BYTE      P5
      000000C0H   SFRSYM    DATA     BYTE      P4
      000000B0H   SFRSYM    DATA     BYTE      P3
      000000A0H   SFRSYM    DATA     BYTE      P2
      00000090H   SFRSYM    DATA     BYTE      P1
      00000080H   SFRSYM    DATA     BYTE      P0

      00FF228EH   BLOCK     CODE     ---       LVL=0
      00FF228EH   LINE      CODE     ---       #5
      00FF228EH   LINE      CODE     ---       #7
      00FF229CH   LINE      CODE     ---       #8
      00FF22A4H   LINE      CODE     ---       #9
      ---         BLOCKEND  ---      ---       LVL=0

      00FF23FEH   BLOCK     CODE     ---       LVL=0
      00FF23FEH   LINE      CODE     ---       #11
      00FF23FEH   LINE      CODE     ---       #13
      00FF240BH   LINE      CODE     ---       #14
      ---         BLOCKEND  ---      ---       LVL=0

      00FF240EH   BLOCK     CODE     ---       LVL=0
      00FF240EH   LINE      CODE     ---       #17
      00FF240EH   LINE      CODE     ---       #19
      00FF241BH   LINE      CODE     ---       #20
      ---         BLOCKEND  ---      ---       LVL=0

      00FF2277H   BLOCK     CODE     ---       LVL=0
      R11         REGSYM    ---      CHAR      dat
      00FF2277H   LINE      CODE     ---       #23
      00FF2277H   LINE      CODE     ---       #25
      00FF2282H   LINE      CODE     ---       #26
      00FF228BH   LINE      CODE     ---       #27
      ---         BLOCKEND  ---      ---       LVL=0

      00FF1F57H   BLOCK     CODE     ---       LVL=0
      00FF1F57H   LINE      CODE     ---       #30
      00FF1F57H   LINE      CODE     ---       #32
      00FF1F64H   LINE      CODE     ---       #33
      00FF1F67H   LINE      CODE     ---       #34
      00FF1F74H   LINE      CODE     ---       #35
      ---         BLOCKEND  ---      ---       LVL=0

      00FF1F92H   BLOCK     CODE     ---       LVL=0
      00FF1F92H   LINE      CODE     ---       #37
      00FF1F92H   LINE      CODE     ---       #39
      00FF1F9FH   LINE      CODE     ---       #40
      00FF1FA2H   LINE      CODE     ---       #41
      00FF1FADH   LINE      CODE     ---       #42
      ---         BLOCKEND  ---      ---       LVL=0

      00FF225FH   BLOCK     CODE     ---       LVL=0
      00FF225FH   LINE      CODE     ---       #44
      00FF225FH   LINE      CODE     ---       #46
      00FF226BH   LINE      CODE     ---       #47
      00FF2274H   LINE      CODE     ---       #48
      ---         BLOCKEND  ---      ---       LVL=0

      00FF222EH   BLOCK     CODE     ---       LVL=0
      00FF222EH   LINE      CODE     ---       #51
L251 LINKER/LOCATER V4.66.93.0                                                        06/19/2023  16:47:43  PAGE 47


      00FF222EH   LINE      CODE     ---       #53
      00FF223BH   LINE      CODE     ---       #54
      00FF2244H   LINE      CODE     ---       #55
      ---         BLOCKEND  ---      ---       LVL=0

      00FF1E56H   BLOCK     CODE     ---       LVL=0
      00FF1E56H   LINE      CODE     ---       #58
      00FF1E56H   LINE      CODE     ---       #60
      00FF1E66H   LINE      CODE     ---       #61
      00FF1E6FH   LINE      CODE     ---       #62
      00FF1E77H   LINE      CODE     ---       #63
      ---         BLOCKEND  ---      ---       LVL=0

      00FF2499H   BLOCK     CODE     ---       LVL=0
      R7          REGSYM    ---      BYTE      dat
      00FF2499H   LINE      CODE     ---       #65
      00FF2499H   LINE      CODE     ---       #67
      00FF249CH   LINE      CODE     ---       #68
      ---         BLOCKEND  ---      ---       LVL=0

      00FF241EH   BLOCK     CODE     ---       LVL=0
      00FF2420H   BLOCK     CODE     NEAR LAB  LVL=1
      R15         REGSYM    ---      BYTE      dat
      ---         BLOCKEND  ---      ---       LVL=1
      00FF241EH   LINE      CODE     ---       #71
      00FF2420H   LINE      CODE     ---       #72
      00FF2420H   LINE      CODE     ---       #74
      00FF2425H   LINE      CODE     ---       #75
      00FF2428H   LINE      CODE     ---       #76
      00FF242AH   LINE      CODE     ---       #77
      ---         BLOCKEND  ---      ---       LVL=0

      00FF155BH   BLOCK     CODE     ---       LVL=0
      000000DFH   SYMBOL    EDATA    BYTE      dev_addr
      000000E0H   SYMBOL    EDATA    BYTE      reg_addr
      REG=3       REGSYM    ---      ---       p
      000000E1H   SYMBOL    EDATA    BYTE      len
      00FF156BH   BLOCK     CODE     NEAR LAB  LVL=1
      000000E2H   SYMBOL    EDATA    BYTE      i
      ---         BLOCKEND  ---      ---       LVL=1
      00FF155BH   LINE      CODE     ---       #79
      00FF156BH   LINE      CODE     ---       #80
      00FF156BH   LINE      CODE     ---       #81
      00FF156BH   LINE      CODE     ---       #82
      00FF156EH   LINE      CODE     ---       #83
      00FF1577H   LINE      CODE     ---       #84
      00FF157EH   LINE      CODE     ---       #85
      00FF1581H   LINE      CODE     ---       #87
      00FF1591H   LINE      CODE     ---       #88
      00FF15A4H   LINE      CODE     ---       #89
      00FF15A7H   LINE      CODE     ---       #90
      ---         BLOCKEND  ---      ---       LVL=0

      00FF1058H   BLOCK     CODE     ---       LVL=0
      000000E3H   SYMBOL    EDATA    BYTE      dev_addr
      000000E4H   SYMBOL    EDATA    BYTE      reg_addr
      REG=3       REGSYM    ---      ---       buf
      000000E5H   SYMBOL    EDATA    BYTE      len
      00FF1068H   BLOCK     CODE     NEAR LAB  LVL=1
      000000E6H   SYMBOL    EDATA    BYTE      i
      ---         BLOCKEND  ---      ---       LVL=1
      00FF1058H   LINE      CODE     ---       #92
      00FF1068H   LINE      CODE     ---       #93
      00FF1068H   LINE      CODE     ---       #94
      00FF1068H   LINE      CODE     ---       #95
L251 LINKER/LOCATER V4.66.93.0                                                        06/19/2023  16:47:43  PAGE 48


      00FF106BH   LINE      CODE     ---       #96
      00FF1074H   LINE      CODE     ---       #97
      00FF107BH   LINE      CODE     ---       #98
      00FF107EH   LINE      CODE     ---       #99
      00FF108BH   LINE      CODE     ---       #100
      00FF108EH   LINE      CODE     ---       #102
      00FF109EH   LINE      CODE     ---       #103
      00FF10B9H   LINE      CODE     ---       #104
      00FF10C9H   LINE      CODE     ---       #105
      00FF10CCH   LINE      CODE     ---       #106
      00FF10CFH   LINE      CODE     ---       #107
      ---         BLOCKEND  ---      ---       LVL=0

      ---         MODULE    ---      ---       mpu6050
      00FF0ECCH   PUBLIC    CODE     ---       mpu6050_read
      00FF146AH   PUBLIC    CODE     ---       mpu6050_init
      000000D0H   SFRSYM    DATA     BYTE      PSW
      0000009DH   SFRSYM    DATA     BYTE      IRCBAND
      00000097H   SFRSYM    DATA     BYTE      AUXR2
      000000EFH   SFRSYM    DATA     BYTE      AUXINTIF
      000000FDH   SFRSYM    DATA     BYTE      S4CON
      000000ACH   SFRSYM    DATA     BYTE      S3CON
      0000009AH   SFRSYM    DATA     BYTE      S2CON
      000000B7H   SFRSYM    DATA     BYTE      IPH
      000000CDH   SFRSYM    DATA     BYTE      SPSTAT
      000000DDH   SFRSYM    DATA     BYTE      T4T3M
      000000C1H   SFRSYM    DATA     BYTE      WDT_CONTR
      000000DFH   SFRSYM    DATA     BYTE      IP3
      000000F4H   SFRSYM    DATA     BYTE      USBCON
      000000B5H   SFRSYM    DATA     BYTE      IP2
      000000FFH   SFRSYM    DATA     BYTE      RSTCFG
      000000F9H   SFRSYM    DATA     BYTE      LINICR
      0000008EH   SFRSYM    DATA     BYTE      AUXR
      000000AFH   SFRSYM    DATA     BYTE      IE2
      00000088H   SFRSYM    DATA     BYTE      TCON
      00000098H   SFRSYM    DATA     BYTE      SCON
      000000F1H   SFRSYM    DATA     BYTE      CANICR
      00000087H   SFRSYM    DATA     BYTE      PCON
      000000BCH   SFRSYM    DATA     BYTE      ADC_CONTR
      000000E7H   SFRSYM    DATA     BYTE      CMPCR2
      000000E6H   SFRSYM    DATA     BYTE      CMPCR1
      000000B8H   SFRSYM    DATA     BYTE      IP
      0000008FH   SFRSYM    DATA     BYTE      INTCLKO
      000000EEH   SFRSYM    DATA     BYTE      IP3H
      000000B6H   SFRSYM    DATA     BYTE      IP2H
      000000A8H   SFRSYM    DATA     BYTE      IE
      000000BBH   SFRSYM    DATA     BYTE      P_SW3
      000000BAH   SFRSYM    DATA     BYTE      P_SW2
      000000A2H   SFRSYM    DATA     BYTE      P_SW1
      000000CEH   SFRSYM    DATA     BYTE      SPCTL
      000000F8H   SFRSYM    DATA     BYTE      P7
      000000E8H   SFRSYM    DATA     BYTE      P6
      000000C8H   SFRSYM    DATA     BYTE      P5
      000000C0H   SFRSYM    DATA     BYTE      P4
      000000B0H   SFRSYM    DATA     BYTE      P3
      000000A0H   SFRSYM    DATA     BYTE      P2
      00000090H   SFRSYM    DATA     BYTE      P1
      00000080H   SFRSYM    DATA     BYTE      P0

      00FF146AH   BLOCK     CODE     ---       LVL=0
      000000EBH   SYMBOL    EDATA    ---       dat
      00FF146AH   LINE      CODE     ---       #3
      00FF146AH   LINE      CODE     ---       #4
      00FF146AH   LINE      CODE     ---       #7
      00FF146FH   LINE      CODE     ---       #8
L251 LINKER/LOCATER V4.66.93.0                                                        06/19/2023  16:47:43  PAGE 49


      00FF147EH   LINE      CODE     ---       #10
      00FF1484H   LINE      CODE     ---       #11
      00FF1493H   LINE      CODE     ---       #13
      00FF1499H   LINE      CODE     ---       #14
      00FF14A8H   LINE      CODE     ---       #16
      00FF14AEH   LINE      CODE     ---       #17
      ---         BLOCKEND  ---      ---       LVL=0

      00FF0ECCH   BLOCK     CODE     ---       LVL=0
      REG=3       REGSYM    ---      ---       mpu6050_data
      00FF0ED0H   BLOCK     CODE     NEAR LAB  LVL=1
      000000B3H   SYMBOL    EDATA    ---       buf
      ---         BLOCKEND  ---      ---       LVL=1
      00FF0ECCH   LINE      CODE     ---       #20
      00FF0ED0H   LINE      CODE     ---       #21
      00FF0ED0H   LINE      CODE     ---       #24
      00FF0EDFH   LINE      CODE     ---       #25
      00FF0EEEH   LINE      CODE     ---       #26
      00FF0EFEH   LINE      CODE     ---       #27
      00FF0F0EH   LINE      CODE     ---       #28
      00FF0F1EH   LINE      CODE     ---       #29
      00FF0F2EH   LINE      CODE     ---       #30
      00FF0F3EH   LINE      CODE     ---       #31
      00FF0F4EH   LINE      CODE     ---       #32
      ---         BLOCKEND  ---      ---       LVL=0

      ---         MODULE    ---      ---       pwm
      00FF2312H   PUBLIC    CODE     ---       pwm1_setduty
      00FF2327H   PUBLIC    CODE     ---       pwm4_setduty
      00FF23A1H   PUBLIC    CODE     ---       pwm1n_disable
      00FF23B4H   PUBLIC    CODE     ---       pwm1p_disable
      00FF23C7H   PUBLIC    CODE     ---       pwm4n_disable
      00FF23DAH   PUBLIC    CODE     ---       pwm4p_disable
      00FF1EDBH   PUBLIC    CODE     ---       pwm1n_enable
      00FF1EFAH   PUBLIC    CODE     ---       pwm1p_enable
      00FF1F19H   PUBLIC    CODE     ---       pwm4n_enable
      00FF1F38H   PUBLIC    CODE     ---       pwm4p_enable
      00FF1254H   PUBLIC    CODE     ---       pwm1n_config
      00FF130CH   PUBLIC    CODE     ---       pwm1p_config
      00FF1366H   PUBLIC    CODE     ---       pwm4n_config
      00FF12B0H   PUBLIC    CODE     ---       pwm4p_config
      00FF17AAH   PUBLIC    CODE     ---       pwm_init
      00FF233CH   PUBLIC    CODE     ---       pwma_setcycle
      000000D0H   SFRSYM    DATA     BYTE      PSW
      0000009DH   SFRSYM    DATA     BYTE      IRCBAND
      00000097H   SFRSYM    DATA     BYTE      AUXR2
      000000EFH   SFRSYM    DATA     BYTE      AUXINTIF
      000000FDH   SFRSYM    DATA     BYTE      S4CON
      000000ACH   SFRSYM    DATA     BYTE      S3CON
      0000009AH   SFRSYM    DATA     BYTE      S2CON
      000000B7H   SFRSYM    DATA     BYTE      IPH
      000000CDH   SFRSYM    DATA     BYTE      SPSTAT
      000000DDH   SFRSYM    DATA     BYTE      T4T3M
      000000C1H   SFRSYM    DATA     BYTE      WDT_CONTR
      000000DFH   SFRSYM    DATA     BYTE      IP3
      000000F4H   SFRSYM    DATA     BYTE      USBCON
      000000B5H   SFRSYM    DATA     BYTE      IP2
      000000FFH   SFRSYM    DATA     BYTE      RSTCFG
      000000F9H   SFRSYM    DATA     BYTE      LINICR
      0000008EH   SFRSYM    DATA     BYTE      AUXR
      000000AFH   SFRSYM    DATA     BYTE      IE2
      00000090H.7 SFRSYM    DATA     BIT       P17
      00000090H.6 SFRSYM    DATA     BIT       P16
      00000088H   SFRSYM    DATA     BYTE      TCON
      00000098H   SFRSYM    DATA     BYTE      SCON
L251 LINKER/LOCATER V4.66.93.0                                                        06/19/2023  16:47:43  PAGE 50


      00000090H.1 SFRSYM    DATA     BIT       P11
      000000F1H   SFRSYM    DATA     BYTE      CANICR
      00000087H   SFRSYM    DATA     BYTE      PCON
      00000090H.0 SFRSYM    DATA     BIT       P10
      000000BCH   SFRSYM    DATA     BYTE      ADC_CONTR
      000000E7H   SFRSYM    DATA     BYTE      CMPCR2
      000000E6H   SFRSYM    DATA     BYTE      CMPCR1
      000000B8H   SFRSYM    DATA     BYTE      IP
      0000008FH   SFRSYM    DATA     BYTE      INTCLKO
      000000EEH   SFRSYM    DATA     BYTE      IP3H
      000000B6H   SFRSYM    DATA     BYTE      IP2H
      000000A8H   SFRSYM    DATA     BYTE      IE
      000000BBH   SFRSYM    DATA     BYTE      P_SW3
      000000BAH   SFRSYM    DATA     BYTE      P_SW2
      000000A2H   SFRSYM    DATA     BYTE      P_SW1
      000000CEH   SFRSYM    DATA     BYTE      SPCTL
      000000F8H   SFRSYM    DATA     BYTE      P7
      000000E8H   SFRSYM    DATA     BYTE      P6
      000000C8H   SFRSYM    DATA     BYTE      P5
      000000C0H   SFRSYM    DATA     BYTE      P4
      000000B0H   SFRSYM    DATA     BYTE      P3
      000000A0H   SFRSYM    DATA     BYTE      P2
      00000090H   SFRSYM    DATA     BYTE      P1
      00000080H   SFRSYM    DATA     BYTE      P0

      00FF17AAH   BLOCK     CODE     ---       LVL=0
      00FF17AAH   LINE      CODE     ---       #3
      00FF17AAH   LINE      CODE     ---       #5
      00FF17B6H   LINE      CODE     ---       #6
      00FF17BDH   LINE      CODE     ---       #7
      00FF17C6H   LINE      CODE     ---       #8
      00FF17CDH   LINE      CODE     ---       #10
      00FF17D5H   LINE      CODE     ---       #11
      00FF17DEH   LINE      CODE     ---       #13
      00FF17E7H   LINE      CODE     ---       #14
      00FF17F0H   LINE      CODE     ---       #15
      ---         BLOCKEND  ---      ---       LVL=0

      00FF1EFAH   BLOCK     CODE     ---       LVL=0
      00FF1EFAH   LINE      CODE     ---       #17
      00FF1EFAH   LINE      CODE     ---       #19
      00FF1EFDH   LINE      CODE     ---       #20
      00FF1EFFH   LINE      CODE     ---       #21
      00FF1F0CH   LINE      CODE     ---       #22
      00FF1F18H   LINE      CODE     ---       #23
      ---         BLOCKEND  ---      ---       LVL=0

      00FF1EDBH   BLOCK     CODE     ---       LVL=0
      00FF1EDBH   LINE      CODE     ---       #25
      00FF1EDBH   LINE      CODE     ---       #27
      00FF1EDEH   LINE      CODE     ---       #28
      00FF1EE0H   LINE      CODE     ---       #29
      00FF1EEDH   LINE      CODE     ---       #30
      00FF1EF9H   LINE      CODE     ---       #31
      ---         BLOCKEND  ---      ---       LVL=0

      00FF1F38H   BLOCK     CODE     ---       LVL=0
      00FF1F38H   LINE      CODE     ---       #33
      00FF1F38H   LINE      CODE     ---       #35
      00FF1F3BH   LINE      CODE     ---       #36
      00FF1F3DH   LINE      CODE     ---       #37
      00FF1F4AH   LINE      CODE     ---       #38
      00FF1F56H   LINE      CODE     ---       #39
      ---         BLOCKEND  ---      ---       LVL=0

L251 LINKER/LOCATER V4.66.93.0                                                        06/19/2023  16:47:43  PAGE 51


      00FF1F19H   BLOCK     CODE     ---       LVL=0
      00FF1F19H   LINE      CODE     ---       #41
      00FF1F19H   LINE      CODE     ---       #43
      00FF1F1CH   LINE      CODE     ---       #44
      00FF1F1EH   LINE      CODE     ---       #45
      00FF1F2BH   LINE      CODE     ---       #46
      00FF1F37H   LINE      CODE     ---       #47
      ---         BLOCKEND  ---      ---       LVL=0

      00FF23B4H   BLOCK     CODE     ---       LVL=0
      00FF23B4H   LINE      CODE     ---       #49
      00FF23B4H   LINE      CODE     ---       #51
      00FF23C4H   LINE      CODE     ---       #52
      00FF23C6H   LINE      CODE     ---       #53
      ---         BLOCKEND  ---      ---       LVL=0

      00FF23A1H   BLOCK     CODE     ---       LVL=0
      00FF23A1H   LINE      CODE     ---       #55
      00FF23A1H   LINE      CODE     ---       #57
      00FF23B1H   LINE      CODE     ---       #58
      00FF23B3H   LINE      CODE     ---       #59
      ---         BLOCKEND  ---      ---       LVL=0

      00FF23DAH   BLOCK     CODE     ---       LVL=0
      00FF23DAH   LINE      CODE     ---       #61
      00FF23DAH   LINE      CODE     ---       #63
      00FF23EAH   LINE      CODE     ---       #64
      00FF23ECH   LINE      CODE     ---       #65
      ---         BLOCKEND  ---      ---       LVL=0

      00FF23C7H   BLOCK     CODE     ---       LVL=0
      00FF23C7H   LINE      CODE     ---       #67
      00FF23C7H   LINE      CODE     ---       #69
      00FF23D7H   LINE      CODE     ---       #70
      00FF23D9H   LINE      CODE     ---       #71
      ---         BLOCKEND  ---      ---       LVL=0

      00FF233CH   BLOCK     CODE     ---       LVL=0
      WR0         REGSYM    ---      WORD      cycle
      00FF233CH   LINE      CODE     ---       #73
      00FF233EH   LINE      CODE     ---       #75
      00FF2349H   LINE      CODE     ---       #76
      00FF2350H   LINE      CODE     ---       #77
      ---         BLOCKEND  ---      ---       LVL=0

      00FF2312H   BLOCK     CODE     ---       LVL=0
      WR0         REGSYM    ---      WORD      duty
      00FF2312H   LINE      CODE     ---       #79
      00FF2314H   LINE      CODE     ---       #81
      00FF231FH   LINE      CODE     ---       #82
      00FF2326H   LINE      CODE     ---       #83
      ---         BLOCKEND  ---      ---       LVL=0

      00FF2327H   BLOCK     CODE     ---       LVL=0
      WR0         REGSYM    ---      WORD      duty
      00FF2327H   LINE      CODE     ---       #85
      00FF2329H   LINE      CODE     ---       #87
      00FF2334H   LINE      CODE     ---       #88
      00FF233BH   LINE      CODE     ---       #89
      ---         BLOCKEND  ---      ---       LVL=0

      00FF130CH   BLOCK     CODE     ---       LVL=0
      00FF130CH   LINE      CODE     ---       #91
      00FF130CH   LINE      CODE     ---       #93
      00FF1318H   LINE      CODE     ---       #94
L251 LINKER/LOCATER V4.66.93.0                                                        06/19/2023  16:47:43  PAGE 52


      00FF1325H   LINE      CODE     ---       #96
      00FF132AH   LINE      CODE     ---       #97
      00FF1331H   LINE      CODE     ---       #98
      00FF1339H   LINE      CODE     ---       #99
      00FF1342H   LINE      CODE     ---       #100
      00FF134AH   LINE      CODE     ---       #101
      00FF1353H   LINE      CODE     ---       #102
      00FF135CH   LINE      CODE     ---       #103
      00FF1365H   LINE      CODE     ---       #104
      ---         BLOCKEND  ---      ---       LVL=0

      00FF1254H   BLOCK     CODE     ---       LVL=0
      00FF1254H   LINE      CODE     ---       #106
      00FF1254H   LINE      CODE     ---       #108
      00FF1260H   LINE      CODE     ---       #109
      00FF126DH   LINE      CODE     ---       #110
      00FF1272H   LINE      CODE     ---       #112
      00FF127BH   LINE      CODE     ---       #113
      00FF1283H   LINE      CODE     ---       #114
      00FF128CH   LINE      CODE     ---       #115
      00FF1294H   LINE      CODE     ---       #116
      00FF129DH   LINE      CODE     ---       #117
      00FF12A6H   LINE      CODE     ---       #118
      00FF12AFH   LINE      CODE     ---       #119
      ---         BLOCKEND  ---      ---       LVL=0

      00FF12B0H   BLOCK     CODE     ---       LVL=0
      00FF12B0H   LINE      CODE     ---       #121
      00FF12B0H   LINE      CODE     ---       #123
      00FF12BCH   LINE      CODE     ---       #124
      00FF12C9H   LINE      CODE     ---       #126
      00FF12CEH   LINE      CODE     ---       #127
      00FF12D7H   LINE      CODE     ---       #128
      00FF12DFH   LINE      CODE     ---       #129
      00FF12E8H   LINE      CODE     ---       #130
      00FF12F0H   LINE      CODE     ---       #131
      00FF12F9H   LINE      CODE     ---       #132
      00FF1302H   LINE      CODE     ---       #133
      00FF130BH   LINE      CODE     ---       #134
      ---         BLOCKEND  ---      ---       LVL=0

      00FF1366H   BLOCK     CODE     ---       LVL=0
      00FF1366H   LINE      CODE     ---       #136
      00FF1366H   LINE      CODE     ---       #138
      00FF1372H   LINE      CODE     ---       #139
      00FF137FH   LINE      CODE     ---       #140
      00FF1384H   LINE      CODE     ---       #142
      00FF138DH   LINE      CODE     ---       #143
      00FF1395H   LINE      CODE     ---       #144
      00FF139EH   LINE      CODE     ---       #145
      00FF13A6H   LINE      CODE     ---       #146
      00FF13AFH   LINE      CODE     ---       #147
      00FF13B6H   LINE      CODE     ---       #148
      00FF13BFH   LINE      CODE     ---       #149
      ---         BLOCKEND  ---      ---       LVL=0

      ---         MODULE    ---      ---       spi
      00FF24A8H   PUBLIC    CODE     ---       spi_init
      00FF1E33H   PUBLIC    CODE     ---       SPI_RW
      000000D0H   SFRSYM    DATA     BYTE      PSW
      0000009DH   SFRSYM    DATA     BYTE      IRCBAND
      00000097H   SFRSYM    DATA     BYTE      AUXR2
      000000EFH   SFRSYM    DATA     BYTE      AUXINTIF
      000000FDH   SFRSYM    DATA     BYTE      S4CON
      000000ACH   SFRSYM    DATA     BYTE      S3CON
L251 LINKER/LOCATER V4.66.93.0                                                        06/19/2023  16:47:43  PAGE 53


      0000009AH   SFRSYM    DATA     BYTE      S2CON
      000000B7H   SFRSYM    DATA     BYTE      IPH
      000000CDH   SFRSYM    DATA     BYTE      SPSTAT
      000000DDH   SFRSYM    DATA     BYTE      T4T3M
      000000C1H   SFRSYM    DATA     BYTE      WDT_CONTR
      000000DFH   SFRSYM    DATA     BYTE      IP3
      000000F4H   SFRSYM    DATA     BYTE      USBCON
      000000B5H   SFRSYM    DATA     BYTE      IP2
      000000FFH   SFRSYM    DATA     BYTE      RSTCFG
      000000F9H   SFRSYM    DATA     BYTE      LINICR
      0000008EH   SFRSYM    DATA     BYTE      AUXR
      000000AFH   SFRSYM    DATA     BYTE      IE2
      000000A0H.5 SFRSYM    DATA     BIT       P25
      000000A0H.4 SFRSYM    DATA     BIT       P24
      00000088H   SFRSYM    DATA     BYTE      TCON
      000000A0H.3 SFRSYM    DATA     BIT       P23
      00000098H   SFRSYM    DATA     BYTE      SCON
      000000F1H   SFRSYM    DATA     BYTE      CANICR
      00000087H   SFRSYM    DATA     BYTE      PCON
      000000BCH   SFRSYM    DATA     BYTE      ADC_CONTR
      000000E7H   SFRSYM    DATA     BYTE      CMPCR2
      000000E6H   SFRSYM    DATA     BYTE      CMPCR1
      000000B8H   SFRSYM    DATA     BYTE      IP
      0000008FH   SFRSYM    DATA     BYTE      INTCLKO
      000000EEH   SFRSYM    DATA     BYTE      IP3H
      000000B6H   SFRSYM    DATA     BYTE      IP2H
      000000A8H   SFRSYM    DATA     BYTE      IE
      000000BBH   SFRSYM    DATA     BYTE      P_SW3
      000000BAH   SFRSYM    DATA     BYTE      P_SW2
      000000A2H   SFRSYM    DATA     BYTE      P_SW1
      000000CEH   SFRSYM    DATA     BYTE      SPCTL
      000000F8H   SFRSYM    DATA     BYTE      P7
      000000E8H   SFRSYM    DATA     BYTE      P6
      000000C8H   SFRSYM    DATA     BYTE      P5
      000000C0H   SFRSYM    DATA     BYTE      P4
      000000B0H   SFRSYM    DATA     BYTE      P3
      000000A0H   SFRSYM    DATA     BYTE      P2
      00000090H   SFRSYM    DATA     BYTE      P1
      00000080H   SFRSYM    DATA     BYTE      P0

      00FF24A8H   BLOCK     CODE     ---       LVL=0
      00FF24A8H   LINE      CODE     ---       #3
      00FF24A8H   LINE      CODE     ---       #5
      00FF24AAH   LINE      CODE     ---       #6
      ---         BLOCKEND  ---      ---       LVL=0

      00FF1E33H   BLOCK     CODE     ---       LVL=0
      R6          REGSYM    ---      BYTE      byte
      00FF1E35H   BLOCK     CODE     NEAR LAB  LVL=1
      R7          REGSYM    ---      BYTE      i
      ---         BLOCKEND  ---      ---       LVL=1
      00FF1E33H   LINE      CODE     ---       #8
      00FF1E35H   LINE      CODE     ---       #9
      00FF1E35H   LINE      CODE     ---       #11
      00FF1E38H   LINE      CODE     ---       #13
      00FF1E3DH   LINE      CODE     ---       #14
      00FF1E41H   LINE      CODE     ---       #16
      00FF1E43H   LINE      CODE     ---       #17
      00FF1E45H   LINE      CODE     ---       #18
      00FF1E47H   LINE      CODE     ---       #19
      00FF1E4DH   LINE      CODE     ---       #20
      00FF1E4FH   LINE      CODE     ---       #21
      00FF1E53H   LINE      CODE     ---       #22
      00FF1E55H   LINE      CODE     ---       #23
      ---         BLOCKEND  ---      ---       LVL=0
L251 LINKER/LOCATER V4.66.93.0                                                        06/19/2023  16:47:43  PAGE 54



      ---         MODULE    ---      ---       rf24
      00FF1B75H   PUBLIC    CODE     ---       RF24_RxPacket
      00FF17F1H   PUBLIC    CODE     ---       RF24_TxPacket
      00FF2449H   PUBLIC    CODE     ---       RF24_Set_Channel
      00FF1835H   PUBLIC    CODE     ---       RF24_Read_Buf
      00FF248DH   PUBLIC    CODE     ---       RF24_Read_Reg
      00FF2457H   PUBLIC    CODE     ---       RF24_Set_P0_Size
      00FF1AD3H   PUBLIC    CODE     ---       RF24_Write_Buf
      00FF22A5H   PUBLIC    CODE     ---       RF24_Write_Reg
      00FF2351H   PUBLIC    CODE     ---       RF24_RX_Mode
      00FF2480H   PUBLIC    CODE     ---       RF24_TX_Mode
      00FF0003H   PUBLIC    CODE     ---       RF24_Init
      00FF1CCAH   PUBLIC    CODE     ---       RF24_Set_Rate
      00FF1FAEH   PUBLIC    CODE     ---       RF24_Set_Power
      000000DAH   PUBLIC    EDATA    ---       TX_ADDRESS
      000000D0H   SFRSYM    DATA     BYTE      PSW
      0000009DH   SFRSYM    DATA     BYTE      IRCBAND
      00000097H   SFRSYM    DATA     BYTE      AUXR2
      000000EFH   SFRSYM    DATA     BYTE      AUXINTIF
      000000FDH   SFRSYM    DATA     BYTE      S4CON
      000000ACH   SFRSYM    DATA     BYTE      S3CON
      0000009AH   SFRSYM    DATA     BYTE      S2CON
      000000B7H   SFRSYM    DATA     BYTE      IPH
      000000CDH   SFRSYM    DATA     BYTE      SPSTAT
      000000DDH   SFRSYM    DATA     BYTE      T4T3M
      000000C1H   SFRSYM    DATA     BYTE      WDT_CONTR
      000000DFH   SFRSYM    DATA     BYTE      IP3
      000000F4H   SFRSYM    DATA     BYTE      USBCON
      000000B5H   SFRSYM    DATA     BYTE      IP2
      000000FFH   SFRSYM    DATA     BYTE      RSTCFG
      000000F9H   SFRSYM    DATA     BYTE      LINICR
      0000008EH   SFRSYM    DATA     BYTE      AUXR
      000000AFH   SFRSYM    DATA     BYTE      IE2
      000000A0H.7 SFRSYM    DATA     BIT       P27
      000000A0H.6 SFRSYM    DATA     BIT       P26
      000000A0H.5 SFRSYM    DATA     BIT       P25
      00000088H   SFRSYM    DATA     BYTE      TCON
      00000098H   SFRSYM    DATA     BYTE      SCON
      000000A0H.2 SFRSYM    DATA     BIT       P22
      000000F1H   SFRSYM    DATA     BYTE      CANICR
      00000087H   SFRSYM    DATA     BYTE      PCON
      000000BCH   SFRSYM    DATA     BYTE      ADC_CONTR
      000000E7H   SFRSYM    DATA     BYTE      CMPCR2
      000000E6H   SFRSYM    DATA     BYTE      CMPCR1
      000000B8H   SFRSYM    DATA     BYTE      IP
      0000008FH   SFRSYM    DATA     BYTE      INTCLKO
      000000EEH   SFRSYM    DATA     BYTE      IP3H
      000000B6H   SFRSYM    DATA     BYTE      IP2H
      000000A8H   SFRSYM    DATA     BYTE      IE
      000000BBH   SFRSYM    DATA     BYTE      P_SW3
      000000BAH   SFRSYM    DATA     BYTE      P_SW2
      000000A2H   SFRSYM    DATA     BYTE      P_SW1
      000000CEH   SFRSYM    DATA     BYTE      SPCTL
      000000F8H   SFRSYM    DATA     BYTE      P7
      000000E8H   SFRSYM    DATA     BYTE      P6
      000000C8H   SFRSYM    DATA     BYTE      P5
      000000C0H   SFRSYM    DATA     BYTE      P4
      000000B0H   SFRSYM    DATA     BYTE      P3
      000000A0H   SFRSYM    DATA     BYTE      P2
      00000090H   SFRSYM    DATA     BYTE      P1
      00000080H   SFRSYM    DATA     BYTE      P0

      00FF0003H   BLOCK     CODE     ---       LVL=0
      00FF0003H   LINE      CODE     ---       #10
L251 LINKER/LOCATER V4.66.93.0                                                        06/19/2023  16:47:43  PAGE 55


      00FF0003H   LINE      CODE     ---       #12
      00FF0005H   LINE      CODE     ---       #13
      00FF0007H   LINE      CODE     ---       #14
      00FF0009H   LINE      CODE     ---       #16
      ---         BLOCKEND  ---      ---       LVL=0

      00FF22A5H   BLOCK     CODE     ---       LVL=0
      R7          REGSYM    ---      BYTE      reg
      R15         REGSYM    ---      BYTE      value
      00FF22A9H   BLOCK     CODE     NEAR LAB  LVL=1
      R14         REGSYM    ---      BYTE      status
      ---         BLOCKEND  ---      ---       LVL=1
      00FF22A5H   LINE      CODE     ---       #25
      00FF22A9H   LINE      CODE     ---       #26
      00FF22A9H   LINE      CODE     ---       #29
      00FF22ABH   LINE      CODE     ---       #30
      00FF22B0H   LINE      CODE     ---       #31
      00FF22B5H   LINE      CODE     ---       #32
      00FF22B7H   LINE      CODE     ---       #34
      00FF22B9H   LINE      CODE     ---       #35
      ---         BLOCKEND  ---      ---       LVL=0

      00FF1AD3H   BLOCK     CODE     ---       LVL=0
      R7          REGSYM    ---      BYTE      reg
      REG=3       REGSYM    ---      ---       pBuf
      00000025H   SYMBOL    EDATA    BYTE      bytes
      00FF1ADBH   BLOCK     CODE     NEAR LAB  LVL=1
      00000026H   SYMBOL    EDATA    BYTE      status
      00000027H   SYMBOL    EDATA    BYTE      byte_ctr
      ---         BLOCKEND  ---      ---       LVL=1
      00FF1AD3H   LINE      CODE     ---       #45
      00FF1ADBH   LINE      CODE     ---       #46
      00FF1ADBH   LINE      CODE     ---       #49
      00FF1ADDH   LINE      CODE     ---       #50
      00FF1AE4H   LINE      CODE     ---       #51
      00FF1AE7H   LINE      CODE     ---       #52
      00FF1B02H   LINE      CODE     ---       #53
      00FF1B04H   LINE      CODE     ---       #55
      00FF1B08H   LINE      CODE     ---       #56
      ---         BLOCKEND  ---      ---       LVL=0

      00FF248DH   BLOCK     CODE     ---       LVL=0
      R7          REGSYM    ---      BYTE      reg
      R11         REGSYM    ---      BYTE      value
      00FF248DH   LINE      CODE     ---       #64
      00FF248DH   LINE      CODE     ---       #65
      00FF248DH   LINE      CODE     ---       #68
      00FF248FH   LINE      CODE     ---       #69
      00FF2492H   LINE      CODE     ---       #70
      00FF2496H   LINE      CODE     ---       #71
      00FF2498H   LINE      CODE     ---       #73
      00FF2498H   LINE      CODE     ---       #74
      ---         BLOCKEND  ---      ---       LVL=0

      00FF1835H   BLOCK     CODE     ---       LVL=0
      R7          REGSYM    ---      BYTE      reg
      REG=3       REGSYM    ---      ---       pBuf
      00000025H   SYMBOL    EDATA    BYTE      bytes
      00FF183DH   BLOCK     CODE     NEAR LAB  LVL=1
      00000026H   SYMBOL    EDATA    BYTE      status
      00000027H   SYMBOL    EDATA    BYTE      byte_ctr
      ---         BLOCKEND  ---      ---       LVL=1
      00FF1835H   LINE      CODE     ---       #84
      00FF183DH   LINE      CODE     ---       #85
      00FF183DH   LINE      CODE     ---       #88
L251 LINKER/LOCATER V4.66.93.0                                                        06/19/2023  16:47:43  PAGE 56


      00FF183FH   LINE      CODE     ---       #89
      00FF1846H   LINE      CODE     ---       #90
      00FF1849H   LINE      CODE     ---       #91
      00FF186DH   LINE      CODE     ---       #92
      00FF186FH   LINE      CODE     ---       #94
      00FF1873H   LINE      CODE     ---       #95
      ---         BLOCKEND  ---      ---       LVL=0

      00FF2351H   BLOCK     CODE     ---       LVL=0
      00FF2351H   LINE      CODE     ---       #103
      00FF2351H   LINE      CODE     ---       #105
      00FF2353H   LINE      CODE     ---       #112
      00FF235BH   LINE      CODE     ---       #113
      00FF2363H   LINE      CODE     ---       #114
      00FF2365H   LINE      CODE     ---       #115
      ---         BLOCKEND  ---      ---       LVL=0

      00FF2480H   BLOCK     CODE     ---       LVL=0
      00FF2480H   LINE      CODE     ---       #123
      00FF2480H   LINE      CODE     ---       #125
      00FF2482H   LINE      CODE     ---       #134
      00FF248AH   LINE      CODE     ---       #135
      00FF248CH   LINE      CODE     ---       #136
      ---         BLOCKEND  ---      ---       LVL=0

      00FF1B75H   BLOCK     CODE     ---       LVL=0
      REG=3       REGSYM    ---      ---       rxbuf
      00FF1B79H   BLOCK     CODE     NEAR LAB  LVL=1
      000000ECH   SYMBOL    EDATA    BYTE      state
      ---         BLOCKEND  ---      ---       LVL=1
      00FF1B75H   LINE      CODE     ---       #145
      00FF1B79H   LINE      CODE     ---       #146
      00FF1B79H   LINE      CODE     ---       #148
      00FF1B84H   LINE      CODE     ---       #149
      00FF1B89H   LINE      CODE     ---       #151
      00FF1B90H   LINE      CODE     ---       #153
      00FF1B9AH   LINE      CODE     ---       #154
      00FF1BA2H   LINE      CODE     ---       #155
      00FF1BA5H   LINE      CODE     ---       #156
      00FF1BA5H   LINE      CODE     ---       #157
      00FF1BA7H   LINE      CODE     ---       #158
      ---         BLOCKEND  ---      ---       LVL=0

      00FF17F1H   BLOCK     CODE     ---       LVL=0
      REG=1       REGSYM    ---      ---       txbuf
      00FF17F3H   BLOCK     CODE     NEAR LAB  LVL=1
      R15         REGSYM    ---      BYTE      state
      ---         BLOCKEND  ---      ---       LVL=1
      00FF17F1H   LINE      CODE     ---       #168
      00FF17F3H   LINE      CODE     ---       #169
      00FF17F3H   LINE      CODE     ---       #171
      00FF17F5H   LINE      CODE     ---       #172
      00FF17FDH   LINE      CODE     ---       #173
      00FF17FFH   LINE      CODE     ---       #175
      00FF1808H   LINE      CODE     ---       #176
      00FF180FH   LINE      CODE     ---       #177
      00FF1816H   LINE      CODE     ---       #178
      00FF181BH   LINE      CODE     ---       #180
      00FF1823H   LINE      CODE     ---       #181
      00FF1827H   LINE      CODE     ---       #182
      00FF1827H   LINE      CODE     ---       #183
      00FF182CH   LINE      CODE     ---       #185
      00FF1830H   LINE      CODE     ---       #186
      00FF1830H   LINE      CODE     ---       #187
      00FF1832H   LINE      CODE     ---       #188
L251 LINKER/LOCATER V4.66.93.0                                                        06/19/2023  16:47:43  PAGE 57


      ---         BLOCKEND  ---      ---       LVL=0

      00FF1FAEH   BLOCK     CODE     ---       LVL=0
      R15         REGSYM    ---      BYTE      p
      00FF1FB2H   BLOCK     CODE     NEAR LAB  LVL=1
      R7          REGSYM    ---      BYTE      temp
      ---         BLOCKEND  ---      ---       LVL=1
      00FF1FAEH   LINE      CODE     ---       #190
      00FF1FB2H   LINE      CODE     ---       #191
      00FF1FB2H   LINE      CODE     ---       #193
      00FF1FB4H   LINE      CODE     ---       #194
      00FF1FBBH   LINE      CODE     ---       #195
      00FF1FBEH   LINE      CODE     ---       #196
      00FF1FC0H   LINE      CODE     ---       #197
      00FF1FC5H   LINE      CODE     ---       #198
      00FF1FC7H   LINE      CODE     ---       #199
      ---         BLOCKEND  ---      ---       LVL=0

      00FF2449H   BLOCK     CODE     ---       LVL=0
      R10         REGSYM    ---      BYTE      ch
      00FF2449H   LINE      CODE     ---       #201
      00FF244BH   LINE      CODE     ---       #203
      00FF244DH   LINE      CODE     ---       #204
      00FF2454H   LINE      CODE     ---       #205
      00FF2456H   LINE      CODE     ---       #206
      ---         BLOCKEND  ---      ---       LVL=0

      00FF1CCAH   BLOCK     CODE     ---       LVL=0
      R15         REGSYM    ---      BYTE      rate
      00FF1CCEH   BLOCK     CODE     NEAR LAB  LVL=1
      R7          REGSYM    ---      BYTE      temp
      ---         BLOCKEND  ---      ---       LVL=1
      00FF1CCAH   LINE      CODE     ---       #208
      00FF1CCEH   LINE      CODE     ---       #209
      00FF1CCEH   LINE      CODE     ---       #211
      00FF1CD0H   LINE      CODE     ---       #212
      00FF1CD7H   LINE      CODE     ---       #213
      00FF1CDAH   LINE      CODE     ---       #214
      00FF1CE4H   LINE      CODE     ---       #215
      00FF1CEDH   LINE      CODE     ---       #216
      00FF1CF2H   LINE      CODE     ---       #217
      00FF1CF4H   LINE      CODE     ---       #218
      ---         BLOCKEND  ---      ---       LVL=0

      00FF2457H   BLOCK     CODE     ---       LVL=0
      R10         REGSYM    ---      BYTE      len
      00FF2457H   LINE      CODE     ---       #220
      00FF2459H   LINE      CODE     ---       #222
      00FF245BH   LINE      CODE     ---       #223
      00FF2462H   LINE      CODE     ---       #224
      00FF2464H   LINE      CODE     ---       #225
      ---         BLOCKEND  ---      ---       LVL=0

      ---         MODULE    ---      ---       timer
      00FF1BDDH   PUBLIC    CODE     ---       timer0_isr
      00FF1C10H   PUBLIC    CODE     ---       timer0_init
      000000D0H   SFRSYM    DATA     BYTE      PSW
      0000009DH   SFRSYM    DATA     BYTE      IRCBAND
      00000097H   SFRSYM    DATA     BYTE      AUXR2
      000000EFH   SFRSYM    DATA     BYTE      AUXINTIF
      000000FDH   SFRSYM    DATA     BYTE      S4CON
      000000ACH   SFRSYM    DATA     BYTE      S3CON
      0000009AH   SFRSYM    DATA     BYTE      S2CON
      000000B7H   SFRSYM    DATA     BYTE      IPH
      000000CDH   SFRSYM    DATA     BYTE      SPSTAT
L251 LINKER/LOCATER V4.66.93.0                                                        06/19/2023  16:47:43  PAGE 58


      000000DDH   SFRSYM    DATA     BYTE      T4T3M
      000000C1H   SFRSYM    DATA     BYTE      WDT_CONTR
      00000088H.4 SFRSYM    DATA     BIT       TR0
      0000008AH   SFRSYM    DATA     BYTE      TL0
      0000008CH   SFRSYM    DATA     BYTE      TH0
      000000DFH   SFRSYM    DATA     BYTE      IP3
      000000F4H   SFRSYM    DATA     BYTE      USBCON
      000000B5H   SFRSYM    DATA     BYTE      IP2
      000000FFH   SFRSYM    DATA     BYTE      RSTCFG
      000000A8H.1 SFRSYM    DATA     BIT       ET0
      000000F9H   SFRSYM    DATA     BYTE      LINICR
      0000008EH   SFRSYM    DATA     BYTE      AUXR
      000000AFH   SFRSYM    DATA     BYTE      IE2
      00000088H   SFRSYM    DATA     BYTE      TCON
      00000089H   SFRSYM    DATA     BYTE      TMOD
      00000098H   SFRSYM    DATA     BYTE      SCON
      000000F1H   SFRSYM    DATA     BYTE      CANICR
      00000087H   SFRSYM    DATA     BYTE      PCON
      000000BCH   SFRSYM    DATA     BYTE      ADC_CONTR
      000000E7H   SFRSYM    DATA     BYTE      CMPCR2
      000000E6H   SFRSYM    DATA     BYTE      CMPCR1
      000000B8H   SFRSYM    DATA     BYTE      IP
      0000008FH   SFRSYM    DATA     BYTE      INTCLKO
      000000EEH   SFRSYM    DATA     BYTE      IP3H
      000000B6H   SFRSYM    DATA     BYTE      IP2H
      000000A8H   SFRSYM    DATA     BYTE      IE
      000000BBH   SFRSYM    DATA     BYTE      P_SW3
      000000BAH   SFRSYM    DATA     BYTE      P_SW2
      000000A2H   SFRSYM    DATA     BYTE      P_SW1
      000000CEH   SFRSYM    DATA     BYTE      SPCTL
      000000F8H   SFRSYM    DATA     BYTE      P7
      000000E8H   SFRSYM    DATA     BYTE      P6
      000000C8H   SFRSYM    DATA     BYTE      P5
      000000C0H   SFRSYM    DATA     BYTE      P4
      000000B0H   SFRSYM    DATA     BYTE      P3
      000000A0H   SFRSYM    DATA     BYTE      P2
      00000090H   SFRSYM    DATA     BYTE      P1
      00000080H   SFRSYM    DATA     BYTE      P0
      000000E9H   SYMBOL    EDATA    ---       timer0_fun

      00FF1BDDH   BLOCK     CODE     ---       LVL=0
      00FF1BDDH   LINE      CODE     ---       #4
      00FF1BF3H   LINE      CODE     ---       #6
      00FF1BF9H   LINE      CODE     ---       #7
      ---         BLOCKEND  ---      ---       LVL=0

      00FF1C10H   BLOCK     CODE     ---       LVL=0
      WR28        REGSYM    ---      WORD      _us
      REG=15      REGSYM    ---      ---       p
      00FF1C14H   BLOCK     CODE     NEAR LAB  LVL=1
      WR28        REGSYM    ---      WORD      tmp
      ---         BLOCKEND  ---      ---       LVL=1
      00FF1C10H   LINE      CODE     ---       #9
      00FF1C14H   LINE      CODE     ---       #10
      00FF1C14H   LINE      CODE     ---       #11
      00FF1C29H   LINE      CODE     ---       #12
      00FF1C2CH   LINE      CODE     ---       #13
      00FF1C32H   LINE      CODE     ---       #14
      00FF1C38H   LINE      CODE     ---       #15
      00FF1C3AH   LINE      CODE     ---       #16
      00FF1C3CH   LINE      CODE     ---       #17
      00FF1C40H   LINE      CODE     ---       #18
      ---         BLOCKEND  ---      ---       LVL=0

      ---         MODULE    ---      ---       VSPRINTF
L251 LINKER/LOCATER V4.66.93.0                                                        06/19/2023  16:47:43  PAGE 59


      00000049H   PUBLIC    EDATA    ---       ?VSPRINTF?BYTE
      00FF00CEH   PUBLIC    CODE     NEAR LAB  VSPRINTF

      ---         MODULE    ---      ---       ?C?PRNFMT
      00FF0117H   PUBLIC    CODE     ---       ?C?PRNFMT

      ---         MODULE    ---      ---       ?C?FPCONVERT
      00FF0534H   PUBLIC    CODE     ---       ?C?FPCONVERT
      00FF05ECH   PUBLIC    CODE     ---       ?C?FPROUND

      ---         MODULE    ---      ---       ?C?FPMUL
      00FF062FH   PUBLIC    CODE     ---       ?C?FPMUL

      ---         MODULE    ---      ---       ?C?FPDIV
      00FF06CFH   PUBLIC    CODE     ---       ?C?FPDIV

      ---         MODULE    ---      ---       ?C?FTNPWR
      00FF0780H   PUBLIC    CODE     ---       ?C?FTNPWR

      ---         MODULE    ---      ---       ?C?FPGETOPN
      00FF07B7H   PUBLIC    CODE     ---       ?C?FPGETOPN2
      00FF07F4H   PUBLIC    CODE     ---       ?C?FPNANRESULT
      00FF07FCH   PUBLIC    CODE     ---       ?C?FPOVERFLOW
      00FF07D0H   PUBLIC    CODE     ---       ?C?FPRESULT
      00FF07E6H   PUBLIC    CODE     ---       ?C?FPRESULT2
      00FF07F9H   PUBLIC    CODE     ---       ?C?FPUNDERFLOW

      ---         MODULE    ---      ---       ?C_START
      00FF0000H   PUBLIC    CODE     ---       ?C?STARTUP
      00FF0000H   PUBLIC    CODE     ---       ?C_STARTUP

      ---         MODULE    ---      ---       ?C?INITEDATA
      00FF188BH   PUBLIC    CODE     ---       ?C?INITEDATA

      ---         MODULE    ---      ---       ?C?LMUL
      00FF0808H   PUBLIC    CODE     ---       ?C?LMUL

      ---         MODULE    ---      ---       ?C?ULDIV
      00FF081BH   PUBLIC    CODE     NEAR LAB  ?C?ULDIV
      00FF0819H   PUBLIC    CODE     NEAR LAB  ?C?ULIDIV

      ---         MODULE    ---      ---       STRLEN
      00FF2465H   PUBLIC    CODE     ---       strlen?_

      ---         MODULE    ---      ---       memcpy
      00FF1E0EH   PUBLIC    CODE     ---       memcpy?_

      ---         MODULE    ---      ---       ?C?INITEDATA_END
      00FF256BH   PUBLIC    HCONST   WORD      ?C?INITEDATA_END

Program Size: data=8.5 edata+hdata=484 xdata=192 const=193 code=9388
L251 RUN COMPLETE.  0 WARNING(S),  0 ERROR(S)
