L251 LINKER/LOCATER V4.66.93.0                                                          06/20/2023  10:07:46  PAGE 1


L251 LINKER/LOCATER V4.66.93.0, INVOKED BY:
C:\KEIL_C251\C251\BIN\L251.EXE .\obj\main.obj, .\src\stc_usb_cdc_32g.LIB, .\obj\debug.obj, .\obj\i2c.obj, .\obj\mpu6050.
>> obj, .\obj\pwm.obj, .\obj\spi.obj, .\obj\rf24.obj, .\obj\timer.obj TO .\obj\stc_usb_ser PRINT (.\obj\stc_usb_ser.map)
>>  CASE DISABLEWARNING (57) CLASSES (EDATA (0X0-0XFFF), HDATA (0X0-0XFFF))


CPU MODE:     251 SOURCE MODE
INTR FRAME:   2 BYTES SAVED ON INTERRUPT
MEMORY MODEL: XSMALL WITH FLOATING POINT ARITHMETIC


INPUT MODULES INCLUDED:
  .\obj\main.obj (main)
         COMMENT TYPE 0: C251 V5.60.0
  .\src\stc_usb_cdc_32g.LIB (usb)
         COMMENT TYPE 0: C251 V5.60.0
  .\src\stc_usb_cdc_32g.LIB (util)
         COMMENT TYPE 0: C251 V5.60.0
  .\src\stc_usb_cdc_32g.LIB (usb_req_class)
         COMMENT TYPE 0: C251 V5.60.0
  .\src\stc_usb_cdc_32g.LIB (usb_req_std)
         COMMENT TYPE 0: C251 V5.60.0
  .\src\stc_usb_cdc_32g.LIB (usb_req_vendor)
         COMMENT TYPE 0: C251 V5.60.0
  .\src\stc_usb_cdc_32g.LIB (usb_desc)
         COMMENT TYPE 0: C251 V5.60.0
  .\obj\debug.obj (debug)
         COMMENT TYPE 0: C251 V5.60.0
  .\obj\i2c.obj (i2c)
         COMMENT TYPE 0: C251 V5.60.0
  .\obj\mpu6050.obj (mpu6050)
         COMMENT TYPE 0: C251 V5.60.0
  .\obj\pwm.obj (pwm)
         COMMENT TYPE 0: C251 V5.60.0
  .\obj\spi.obj (spi)
         COMMENT TYPE 0: C251 V5.60.0
  .\obj\rf24.obj (rf24)
         COMMENT TYPE 0: C251 V5.60.0
  .\obj\timer.obj (timer)
         COMMENT TYPE 0: C251 V5.60.0
  C:\KEIL_C251\C251\LIB\C2SFPXS.LIB (VSPRINTF)
         COMMENT TYPE 0: A251 V4.69.6.0
  C:\KEIL_C251\C251\LIB\C2SFPXS.LIB (?C?PRNFMT)
         COMMENT TYPE 0: A251 V4.69.6.0
  C:\KEIL_C251\C251\LIB\C2SFPXS.LIB (?C?FPCONVERT)
         COMMENT TYPE 0: A251 V4.69.6.0
  C:\KEIL_C251\C251\LIB\C2SFPXS.LIB (?C?FPMUL)
         COMMENT TYPE 0: A251 V4.69.6.0
  C:\KEIL_C251\C251\LIB\C2SFPXS.LIB (?C?FPDIV)
         COMMENT TYPE 0: A251 V4.69.6.0
  C:\KEIL_C251\C251\LIB\C2SFPXS.LIB (?C?FTNPWR)
         COMMENT TYPE 0: A251 V4.69.6.0
  C:\KEIL_C251\C251\LIB\C2SFPXS.LIB (?C?FPGETOPN)
         COMMENT TYPE 0: A251 V4.69.6.0
  C:\KEIL_C251\C251\LIB\C2SXS.LIB (?C_START)
         COMMENT TYPE 0: A251 V4.69.6.0
  C:\KEIL_C251\C251\LIB\C2SXS.LIB (?C?INITEDATA)
         COMMENT TYPE 0: A251 V4.69.6.0
  C:\KEIL_C251\C251\LIB\C2SXS.LIB (?C?LMUL)
         COMMENT TYPE 0: A251 V4.69.6.0
  C:\KEIL_C251\C251\LIB\C2SXS.LIB (?C?ULDIV)
         COMMENT TYPE 0: A251 V4.69.6.0
  C:\KEIL_C251\C251\LIB\C2SXS.LIB (STRLEN)
         COMMENT TYPE 0: C251 V5.58.7
  C:\KEIL_C251\C251\LIB\C2SXS.LIB (memcpy)
         COMMENT TYPE 0: C251 V5.58.7
L251 LINKER/LOCATER V4.66.93.0                                                        06/20/2023  10:07:46  PAGE 2


  C:\KEIL_C251\C251\LIB\C2SXS.LIB (?C?INITEDATA_END)
         COMMENT TYPE 0: A251 V4.69.6.0


ACTIVE MEMORY CLASSES OF MODULE:  .\obj\stc_usb_ser (main)

BASE        START       END         USED      MEMORY CLASS
==========================================================
000000H     000000H     000FFFH     0001E4H   EDATA
000000H     000000H     000FFFH               HDATA
000000H     FF0000H     FFFFFFH     0000B5H   HCONST
FF0000H     FF0000H     FFFFFFH     002491H   CODE
000020H.0   000020H.0   00002FH.7   000000H.6 BIT
010000H     010000H     01FFFFH     0000C0H   XDATA
FF0000H     FF0000H     FFFFFFH     000004H   CONST
000000H     000000H     00007FH     000008H   DATA


MEMORY MAP OF MODULE:  .\obj\stc_usb_ser (main)


START     STOP      LENGTH    ALIGN  RELOC    MEMORY CLASS   SEGMENT NAME
=========================================================================
000000H   000007H   000008H   ---    AT..     DATA           "REG BANK 0"
000008H   00001BH   000014H   BYTE   UNIT     EDATA          ?ED?USB
00001CH   00001FH   000004H   BYTE   UNIT     EDATA          ?ED?SEG7_SHOWLONG?UTIL
000020H.0 000020H.2 000000H.3 BIT    UNIT     BIT            ?BI?MAIN
000020H.3 000020H.5 000000H.3 BIT    UNIT     BIT            ?BI?USB
000020H.6 000020H   000000H.2 ---    ---      **GAP**
000021H   000054H   000034H   BYTE   UNIT     EDATA          _EDATA_GROUP_
000055H   000086H   000032H   BYTE   UNIT     EDATA          ?ED?MAIN
000087H   0000B2H   00002CH   BYTE   UNIT     EDATA          ?ED?SEG7_SHOWSTRING?UTIL
0000B3H   0000C0H   00000EH   BYTE   UNIT     EDATA          ?ED?MPU6050_READ?MPU6050
0000C1H   0000C8H   000008H   BYTE   UNIT     EDATA          ?ED?REVERSE4?UTIL
0000C9H   0000CFH   000007H   BYTE   UNIT     EDATA          ?ED?USB_REQ_CLASS
0000D0H   0000D4H   000005H   BYTE   UNIT     EDATA          ?ED?LCD12864_SETBUFFER?UTIL
0000D5H   0000D9H   000005H   BYTE   UNIT     EDATA          ?ED?OLED12864_SETBUFFER?UTIL
0000DAH   0000DEH   000005H   BYTE   UNIT     EDATA          ?ED?RF24
0000DFH   0000E2H   000004H   BYTE   UNIT     EDATA          ?ED?I2C_WRITE?I2C
0000E3H   0000E6H   000004H   BYTE   UNIT     EDATA          ?ED?I2C_READ?I2C
0000E7H   0000E8H   000002H   BYTE   UNIT     EDATA          ?ED?LCD12864_SHOWSTRING?UTIL
0000E9H   0000EAH   000002H   BYTE   UNIT     EDATA          ?ED?TIMER
0000EBH   0000EBH   000001H   BYTE   UNIT     EDATA          ?ED?MPU6050_INIT?MPU6050
0000ECH   0000ECH   000001H   BYTE   UNIT     EDATA          ?ED?RF24_RXPACKET?RF24
0000EDH   0001ECH   000100H   BYTE   UNIT     EDATA          ?STACK
0001EDH   00FFFFH   00FE13H   ---    ---      **GAP**
010000H   0100BFH   0000C0H   BYTE   INSEG    XDATA          ?XD?USB
0100C0H   FEFFFFH   FDFF40H   ---    ---      **GAP**
FF0000H   FF0002H   000003H   ---    OFFS..   CODE           ?CO?start251?4
FF0003H   FF0009H   000007H   BYTE   INSEG    CODE           ?PR?RF24_INIT?RF24
FF000AH   FF000AH   000001H   BYTE   INSEG    CODE           ?PR?USB_SUSPEND?USB
FF000BH   FF000DH   000003H   ---    OFFS..   CODE           ?PR?IV?1
FF000EH   FF00B8H   0000ABH   BYTE   INSEG    CODE           ?PR?MAIN?MAIN
FF00B9H   FF00C9H   000011H   BYTE   INSEG    CODE           ?PR?USB_SETUP_IN?USB
FF00CAH   FF00CAH   000001H   BYTE   INSEG    CODE           ?PR?USB_RESUME?USB
FF00CBH   FF00CDH   000003H   ---    OFFS..   CODE           ?PR?IV?25
FF00CEH   FF086BH   00079EH   BYTE   UNIT     CODE           ?C?LIB_CODE
FF086CH   FF096EH   000103H   BYTE   INSEG    CODE           ?PR?USB_GET_STATUS?USB_REQ_STD
FF096FH   FF0A32H   0000C4H   BYTE   INSEG    CODE           ?PR?USB_OUT_EP1?USB
FF0A33H   FF0AD7H   0000A5H   BYTE   INSEG    CODE           ?PR?USB_SET_CONFIGURATION?USB_REQ_STD
FF0AD8H   FF0B76H   00009FH   BYTE   INSEG    CODE           ?PR?USB_CLEAR_FEATURE?USB_REQ_STD
FF0B77H   FF0C15H   00009FH   BYTE   INSEG    CODE           ?PR?USB_GET_DESCRIPTOR?USB_REQ_STD
FF0C16H   FF0CAEH   000099H   BYTE   INSEG    CODE           ?PR?USB_SET_FEATURE?USB_REQ_STD
FF0CAFH   FF0D46H   000098H   BYTE   INSEG    CODE           ?PR?OLED12864_SETBUFFER?UTIL
FF0D47H   FF0DDEH   000098H   BYTE   INSEG    CODE           ?PR?LCD12864_SETBUFFER?UTIL
L251 LINKER/LOCATER V4.66.93.0                                                        06/20/2023  10:07:46  PAGE 3


FF0DDFH   FF0E73H   000095H   BYTE   INSEG    CODE           ?PR?SYS_INIT?MAIN
FF0E74H   FF0EFDH   00008AH   BYTE   INSEG    CODE           ?PR?USB_SETUP?USB
FF0EFEH   FF0F82H   000085H   BYTE   INSEG    CODE           ?PR?MPU6050_READ?MPU6050
FF0F83H   FF1006H   000084H   BYTE   INSEG    CODE           ?PR?USB_ISR?USB
FF1007H   FF1089H   000083H   BYTE   UNIT     CODE           ?CO?USB_DESC
FF108AH   FF1103H   00007AH   BYTE   INSEG    CODE           ?PR?I2C_READ?I2C
FF1104H   FF116AH   000067H   BYTE   INSEG    CODE           ?PR?USB_CTRL_IN?USB
FF116BH   FF11CBH   000061H   BYTE   INSEG    CODE           ?PR?REVERSE4?UTIL
FF11CCH   FF1229H   00005EH   BYTE   INSEG    CODE           ?PR?USB_INIT?USB
FF122AH   FF1285H   00005CH   BYTE   INSEG    CODE           ?PR?USB_REQ_STD?USB_REQ_STD
FF1286H   FF12E1H   00005CH   BYTE   INSEG    CODE           ?PR?PWM1N_CONFIG?PWM
FF12E2H   FF133DH   00005CH   BYTE   INSEG    CODE           ?PR?PWM4P_CONFIG?PWM
FF133EH   FF1397H   00005AH   BYTE   INSEG    CODE           ?PR?PWM1P_CONFIG?PWM
FF1398H   FF13F1H   00005AH   BYTE   INSEG    CODE           ?PR?PWM4N_CONFIG?PWM
FF13F2H   FF1445H   000054H   BYTE   INSEG    CODE           ?PR?USB_GET_CONFIGURATION?USB_REQ_STD
FF1446H   FF1498H   000053H   BYTE   INSEG    CODE           ?PR?MPU6050_INIT?MPU6050
FF1499H   FF14E7H   00004FH   BYTE   INSEG    CODE           ?PR?I2C_SCAN?MAIN
FF14E8H   FF1536H   00004FH   BYTE   INSEG    CODE           ?PR?LCD12864_SHOWPICTURE?UTIL
FF1537H   FF1585H   00004FH   BYTE   INSEG    CODE           ?PR?I2C_WRITE?I2C
FF1586H   FF15D2H   00004DH   BYTE   INSEG    CODE           ?PR?USB_CTRL_OUT?USB
FF15D3H   FF161CH   00004AH   BYTE   INSEG    CODE           ?PR?USB_SET_ADDRESS?USB_REQ_STD
FF161DH   FF1665H   000049H   BYTE   INSEG    CODE           ?PR?SEG7_SHOWSTRING?UTIL
FF1666H   FF16ADH   000048H   BYTE   INSEG    CODE           ?PR?USB_RESET?USB
FF16AEH   FF16F4H   000047H   BYTE   INSEG    CODE           ?PR?LED40_SENDDATA?UTIL
FF16F5H   FF173BH   000047H   BYTE   INSEG    CODE           ?PR?LED64_SENDDATA?UTIL
FF173CH   FF1782H   000047H   BYTE   INSEG    CODE           ?PR?PWM_INIT?PWM
FF1783H   FF17C6H   000044H   BYTE   INSEG    CODE           ?PR?RF24_TXPACKET?RF24
FF17C7H   FF1809H   000043H   BYTE   INSEG    CODE           ?PR?UPDATE_1MS?MAIN
FF180AH   FF181CH   000013H   BYTE   UNIT     CODE           ?C_C51STARTUP
FF181DH   FF1820H   000004H   BYTE   UNIT     CODE           ?C_C51STARTUP?1
FF1821H   FF1849H   000029H   BYTE   UNIT     CODE           ?C_C51STARTUP?2
FF184AH   FF184CH   000003H   BYTE   UNIT     CODE           ?C_C51STARTUP?3
FF184DH   FF188DH   000041H   BYTE   INSEG    CODE           ?PR?RF24_READ_BUF?RF24
FF188EH   FF18CDH   000040H   BYTE   INSEG    CODE           ?PR?OLED12864_SHOWPICTURE?UTIL
FF18CEH   FF190BH   00003EH   BYTE   INSEG    CODE           ?PR?USB_GET_INTERFACE?USB_REQ_STD
FF190CH   FF1948H   00003DH   BYTE   INSEG    CODE           ?PR?KEYRESETSCAN?MAIN
FF1949H   FF1985H   00003DH   BYTE   INSEG    CODE           ?PR?SEG7_SHOWLONG?UTIL
FF1986H   FF19C2H   00003DH   BYTE   INSEG    CODE           ?PR?LCD12864_SHOWSTRING?UTIL
FF19C3H   FF19FCH   00003AH   BYTE   INSEG    CODE           ?PR?USB_READ_FIFO?_?USB
FF19FDH   FF1A36H   00003AH   BYTE   INSEG    CODE           ?PR?OLED12864_SCROLLRIGHT?UTIL
FF1A37H   FF1A70H   00003AH   BYTE   INSEG    CODE           ?PR?OLED12864_SCROLLUP?UTIL
FF1A71H   FF1AA9H   000039H   BYTE   INSEG    CODE           ?PR?OLED12864_SCROLLLEFT?UTIL
FF1AAAH   FF1AE1H   000038H   BYTE   INSEG    CODE           ?PR?RF24_WRITE_BUF?RF24
FF1AE2H   FF1B16H   000035H   BYTE   INSEG    CODE           ?PR?SEG7_SHOWCODE?UTIL
FF1B17H   FF1B4BH   000035H   BYTE   INSEG    CODE           ?PR?REVERSE2?UTIL
FF1B4CH   FF1B80H   000035H   BYTE   INSEG    CODE           ?PR?RF24_RXPACKET?RF24
FF1B81H   FF1BB3H   000033H   BYTE   INSEG    CODE           ?PR?SEG7_SHOWFLOAT?UTIL
FF1BB4H   FF1BE6H   000033H   BYTE   INSEG    CODE           ?PR?TIMER0_ISR?TIMER
FF1BE7H   FF1C17H   000031H   BYTE   INSEG    CODE           ?PR?TIMER0_INIT?TIMER
FF1C18H   FF1C46H   00002FH   BYTE   INSEG    CODE           ?PR?USB_IN?USB
FF1C47H   FF1C73H   00002DH   BYTE   INSEG    CODE           ?PR?USB_IN_EP1?USB
FF1C74H   FF1CA0H   00002DH   BYTE   INSEG    CODE           ?PR?PRINTF_HID?UTIL
FF1CA1H   FF1CCDH   00002DH   BYTE   INSEG    CODE           ?PR?RF24_SET_RATE?RF24
FF1CCEH   FF1CF8H   00002BH   BYTE   INSEG    CODE           ?PR?USB_IN_EP2?USB
FF1CF9H   FF1D21H   000029H   BYTE   INSEG    CODE           ?PR?USB_WRITE_FIFO?_?USB
FF1D22H   FF1D49H   000028H   BYTE   INSEG    CODE           ?PR?USB_SET_INTERFACE?USB_REQ_STD
FF1D4AH   FF1D71H   000028H   BYTE   INSEG    CODE           ?PR?DEBUG_INIT?DEBUG
FF1D72H   FF1D98H   000027H   BYTE   INSEG    CODE           ?PR?LCD12864_SCROLLUP?UTIL
FF1D99H   FF1DBEH   000026H   BYTE   INSEG    CODE           ?PR?USB_GET_LINE_CODING?USB_REQ_CLASS
FF1DBFH   FF1DE4H   000026H   BYTE   INSEG    CODE           ?PR?USB_SET_LINE_CODING?USB_REQ_CLASS
FF1DE5H   FF1E09H   000025H   BYTE   INSEG    CODE           ?PR?MEMCPY?_?MEMCPY
FF1E0AH   FF1E2CH   000023H   BYTE   INSEG    CODE           ?PR?SPI_RW?SPI
FF1E2DH   FF1E4EH   000022H   BYTE   INSEG    CODE           ?PR?I2C_INIT?I2C
FF1E4FH   FF1E6FH   000021H   BYTE   INSEG    CODE           ?PR?OLED12864_SETADDRESSMODE?UTIL
FF1E70H   FF1E90H   000021H   BYTE   INSEG    CODE           ?PR?OLED12864_SETCONTRAST?UTIL
L251 LINKER/LOCATER V4.66.93.0                                                        06/20/2023  10:07:46  PAGE 4


FF1E91H   FF1EB1H   000021H   BYTE   INSEG    CODE           ?PR?LCD12864_REVERSELINE?UTIL
FF1EB2H   FF1ED0H   00001FH   BYTE   INSEG    CODE           ?PR?PWM1N_ENABLE?PWM
FF1ED1H   FF1EEFH   00001FH   BYTE   INSEG    CODE           ?PR?PWM1P_ENABLE?PWM
FF1EF0H   FF1F0EH   00001FH   BYTE   INSEG    CODE           ?PR?PWM4N_ENABLE?PWM
FF1F0FH   FF1F2DH   00001FH   BYTE   INSEG    CODE           ?PR?PWM4P_ENABLE?PWM
FF1F2EH   FF1F4BH   00001EH   BYTE   INSEG    CODE           ?PR?I2C_RECVACK?I2C
FF1F4CH   FF1F68H   00001DH   BYTE   INSEG    CODE           ?PR?SLEEP_US?UTIL
FF1F69H   FF1F84H   00001CH   BYTE   INSEG    CODE           ?PR?I2C_RECVDATA?I2C
FF1F85H   FF1FA0H   00001CH   BYTE   INSEG    CODE           ?PR?RF24_SET_POWER?RF24
FF1FA1H   FF1FBBH   00001BH   BYTE   INSEG    CODE           ?PR?USB_REQ_CLASS?USB_REQ_CLASS
FF1FBCH   FF1FD5H   00001AH   BYTE   INSEG    CODE           ?PR?OLED12864_SCROLLSTART?UTIL
FF1FD6H   FF1FEFH   00001AH   BYTE   INSEG    CODE           ?PR?OLED12864_DISPLAYON?UTIL
FF1FF0H   FF2009H   00001AH   BYTE   INSEG    CODE           ?PR?LCD12864_SCROLLRIGHT?UTIL
FF200AH   FF2023H   00001AH   BYTE   INSEG    CODE           ?PR?LCD12864_AUTOWRAPON?UTIL
FF2024H   FF203DH   00001AH   BYTE   INSEG    CODE           ?PR?OLED12864_VERTICALMIRROR?UTIL
FF203EH   FF2057H   00001AH   BYTE   INSEG    CODE           ?PR?LCD12864_CURSORRETURNHOME?UTIL
FF2058H   FF2071H   00001AH   BYTE   INSEG    CODE           ?PR?OLED12864_DISPLAYENTIRE?UTIL
FF2072H   FF208BH   00001AH   BYTE   INSEG    CODE           ?PR?LCD12864_DISPLAYON?UTIL
FF208CH   FF20A5H   00001AH   BYTE   INSEG    CODE           ?PR?LCD12864_CURSORMOVERIGHT?UTIL
FF20A6H   FF20BFH   00001AH   BYTE   INSEG    CODE           ?PR?LCD12864_CURSORON?UTIL
FF20C0H   FF20D8H   000019H   BYTE   INSEG    CODE           ?PR?USB_BULK_INTR_OUT?USB
FF20D9H   FF20F1H   000019H   BYTE   INSEG    CODE           ?PR?OLED12864_DISPLAYOFF?UTIL
FF20F2H   FF210AH   000019H   BYTE   INSEG    CODE           ?PR?OLED12864_SETHEADER?UTIL
FF210BH   FF2123H   000019H   BYTE   INSEG    CODE           ?PR?LCD12864_AUTOWRAPOFF?UTIL
FF2124H   FF213CH   000019H   BYTE   INSEG    CODE           ?PR?OLED12864_SCROLLSTOP?UTIL
FF213DH   FF2155H   000019H   BYTE   INSEG    CODE           ?PR?LCD12864_DISPLAYOFF?UTIL
FF2156H   FF216EH   000019H   BYTE   INSEG    CODE           ?PR?LCD12864_SETHEADER?UTIL
FF216FH   FF2187H   000019H   BYTE   INSEG    CODE           ?PR?LCD12864_SCROLLLEFT?UTIL
FF2188H   FF21A0H   000019H   BYTE   INSEG    CODE           ?PR?OLED12864_HORIZONTALMIRROR?UTIL
FF21A1H   FF21B9H   000019H   BYTE   INSEG    CODE           ?PR?OLED12864_DISPLAYCONTENT?UTIL
FF21BAH   FF21D2H   000019H   BYTE   INSEG    CODE           ?PR?LCD12864_CURSOROFF?UTIL
FF21D3H   FF21EBH   000019H   BYTE   INSEG    CODE           ?PR?LCD12864_CURSORMOVELEFT?UTIL
FF21ECH   FF2204H   000019H   BYTE   INSEG    CODE           ?PR?SEG7_SETHEADER?UTIL
FF2205H   FF221DH   000019H   BYTE   INSEG    CODE           ?PR?I2C_SENDNAK?I2C
FF221EH   FF2235H   000018H   BYTE   INSEG    CODE           ?PR?USB_OUT_DONE?USB
FF2236H   FF224DH   000018H   BYTE   INSEG    CODE           ?PR?SLEEP_MS?UTIL
FF224EH   FF2265H   000018H   BYTE   INSEG    CODE           ?PR?I2C_SENDACK?I2C
FF2266H   FF227CH   000017H   BYTE   INSEG    CODE           ?PR?I2C_SENDDATA?I2C
FF227DH   FF2293H   000017H   BYTE   INSEG    CODE           ?PR?I2C_WAIT?I2C
FF2294H   FF22AAH   000017H   BYTE   INSEG    CODE           ?PR?RF24_WRITE_REG?RF24
FF22ABH   FF22C0H   000016H   BYTE   INSEG    CODE           ?PR?DELAY_MS?MAIN
FF22C1H   FF22D6H   000016H   BYTE   INSEG    CODE           ?PR?USB_SET_CTRL_LINE_STATE?USB_REQ_CLASS
FF22D7H   FF22EBH   000015H   BYTE   INSEG    CODE           ?PR?USB_BULK_INTR_IN?USB
FF22ECH   FF2300H   000015H   BYTE   INSEG    CODE           ?PR?USB_READ_REG?USB
FF2301H   FF2315H   000015H   BYTE   INSEG    CODE           ?PR?PWM1_SETDUTY?PWM
FF2316H   FF232AH   000015H   BYTE   INSEG    CODE           ?PR?PWM4_SETDUTY?PWM
FF232BH   FF233FH   000015H   BYTE   INSEG    CODE           ?PR?PWMA_SETCYCLE?PWM
FF2340H   FF2354H   000015H   BYTE   INSEG    CODE           ?PR?RF24_RX_MODE?RF24
FF2355H   FF2369H   000015H   BYTE   INSEG    CODE           ?PR?RF24_TX_MODE?RF24
FF236AH   FF237DH   000014H   BYTE   INSEG    CODE           ?PR?LCD12864_DISPLAYCLEAR?UTIL
FF237EH   FF2391H   000014H   BYTE   INSEG    CODE           ?PR?OLED12864_DISPLAYREVERSE?UTIL
FF2392H   FF23A4H   000013H   BYTE   INSEG    CODE           ?PR?USB_WRITE_REG?USB
FF23A5H   FF23B7H   000013H   BYTE   INSEG    CODE           ?PR?PWM1N_DISABLE?PWM
FF23B8H   FF23CAH   000013H   BYTE   INSEG    CODE           ?PR?PWM1P_DISABLE?PWM
FF23CBH   FF23DDH   000013H   BYTE   INSEG    CODE           ?PR?PWM4N_DISABLE?PWM
FF23DEH   FF23F0H   000013H   BYTE   INSEG    CODE           ?PR?PWM4P_DISABLE?PWM
FF23F1H   FF2400H   000010H   BYTE   INSEG    CODE           ?PR?I2C_START?I2C
FF2401H   FF2410H   000010H   BYTE   INSEG    CODE           ?PR?I2C_STOP?I2C
FF2411H   FF241FH   00000FH   BYTE   INSEG    CODE           ?PR?I2C_RECVBYTE?I2C
FF2420H   FF242DH   00000EH   BYTE   INSEG    CODE           ?PR?USB_SETUP_OUT?USB
FF242EH   FF243BH   00000EH   BYTE   INSEG    CODE           ?PR?USB_SETUP_STALL?USB
FF243CH   FF2449H   00000EH   BYTE   INSEG    CODE           ?PR?RF24_SET_CHANNEL?RF24
FF244AH   FF2457H   00000EH   BYTE   INSEG    CODE           ?PR?RF24_SET_P0_SIZE?RF24
FF2458H   FF2465H   00000EH   BYTE   INSEG    CODE           ?PR?STRLEN?_?STRLEN
FF2466H   FF2472H   00000DH   BYTE   INSEG    CODE           ?PR?USB_SETUP_STATUS?USB
L251 LINKER/LOCATER V4.66.93.0                                                        06/20/2023  10:07:46  PAGE 5


FF2473H   FF247EH   00000CH   BYTE   INSEG    CODE           ?PR?RF24_READ_REG?RF24
FF247FH   FF2484H   000006H   BYTE   INSEG    CODE           ?PR?I2C_SENDBYTE?I2C
FF2485H   FF2487H   000003H   BYTE   INSEG    CODE           ?PR?USB_SET_DESCRIPTOR?USB_REQ_STD
FF2488H   FF248AH   000003H   BYTE   INSEG    CODE           ?PR?USB_SYNCH_FRAME?USB_REQ_STD
FF248BH   FF248DH   000003H   BYTE   INSEG    CODE           ?PR?USB_REQ_VENDOR?USB_REQ_VENDOR
FF248EH   FF2490H   000003H   BYTE   INSEG    CODE           ?PR?SPI_INIT?SPI
FF2491H   FF2494H   000004H   BYTE   UNIT     CONST          ?CO?PRINTF
FF2495H   FF2503H   00006FH   BYTE   UNIT     HCONST         ?HC?MAIN
FF2504H   FF2549H   000046H   BYTE   UNIT     HCONST         ?C_INITEDATA



OVERLAY MAP OF MODULE:   .\obj\stc_usb_ser (main)


FUNCTION/MODULE                            EDATA_GROUP
--> CALLED FUNCTION/MODULE                 START  STOP
======================================================
?C_C51STARTUP?1                            ----- -----

*** NEW ROOT *****************************

usb_isr/usb                                ----- -----
  +--> usb_read_reg/usb
  +--> usb_resume/usb
  +--> usb_reset/usb
  +--> usb_setup/usb
  +--> usb_in_ep1/usb
  +--> usb_in_ep2/usb
  +--> usb_out_ep1/usb
  +--> usb_suspend/usb

usb_read_reg/usb                           ----- -----

usb_resume/usb                             ----- -----

usb_reset/usb                              ----- -----
  +--> usb_write_reg/usb

usb_write_reg/usb                          ----- -----

usb_setup/usb                              ----- -----
  +--> usb_write_reg/usb
  +--> usb_read_reg/usb
  +--> usb_read_fifo?_/usb
  +--> reverse2/util
  +--> usb_req_std/usb_req_std
  +--> usb_req_class/usb_req_class
  +--> usb_req_vendor/usb_req_vendor
  +--> usb_setup_stall/usb
  +--> usb_ctrl_in/usb
  +--> usb_ctrl_out/usb

usb_read_fifo?_/usb                        ----- -----
  +--> usb_read_reg/usb

reverse2/util                              0021H 0024H

usb_req_std/usb_req_std                    ----- -----
  +--> usb_get_status/usb_req_std
  +--> usb_clear_feature/usb_req_std
  +--> usb_set_feature/usb_req_std
  +--> usb_set_address/usb_req_std
  +--> usb_get_descriptor/usb_req_std
  +--> usb_set_descriptor/usb_req_std
L251 LINKER/LOCATER V4.66.93.0                                                        06/20/2023  10:07:46  PAGE 6


  +--> usb_get_configuration/usb_req_std
  +--> usb_set_configuration/usb_req_std
  +--> usb_get_interface/usb_req_std
  +--> usb_set_interface/usb_req_std
  +--> usb_synch_frame/usb_req_std
  +--> usb_setup_stall/usb

usb_get_status/usb_req_std                 ----- -----
  +--> usb_setup_stall/usb
  +--> usb_setup_in/usb

usb_setup_stall/usb                        ----- -----
  +--> usb_write_reg/usb

usb_setup_in/usb                           ----- -----
  +--> usb_write_reg/usb
  +--> usb_ctrl_in/usb

usb_ctrl_in/usb                            ----- -----
  +--> usb_write_reg/usb
  +--> usb_read_reg/usb
  +--> usb_write_fifo?_/usb

usb_write_fifo?_/usb                       ----- -----
  +--> usb_write_reg/usb

usb_clear_feature/usb_req_std              ----- -----
  +--> usb_write_reg/usb
  +--> usb_setup_stall/usb
  +--> usb_setup_status/usb

usb_setup_status/usb                       ----- -----
  +--> usb_write_reg/usb

usb_set_feature/usb_req_std                ----- -----
  +--> usb_write_reg/usb
  +--> usb_setup_stall/usb
  +--> usb_setup_status/usb

usb_set_address/usb_req_std                ----- -----
  +--> usb_setup_stall/usb
  +--> usb_write_reg/usb
  +--> usb_setup_status/usb

usb_get_descriptor/usb_req_std             ----- -----
  +--> usb_setup_stall/usb
  +--> usb_setup_in/usb

usb_set_descriptor/usb_req_std             ----- -----
  +--> usb_setup_stall/usb

usb_get_configuration/usb_req_std          ----- -----
  +--> usb_setup_stall/usb
  +--> usb_setup_in/usb

usb_set_configuration/usb_req_std          ----- -----
  +--> usb_setup_stall/usb
  +--> usb_write_reg/usb
  +--> usb_setup_status/usb

usb_get_interface/usb_req_std              ----- -----
  +--> usb_setup_stall/usb
  +--> usb_setup_in/usb

usb_set_interface/usb_req_std              ----- -----
L251 LINKER/LOCATER V4.66.93.0                                                        06/20/2023  10:07:46  PAGE 7


  +--> usb_setup_stall/usb
  +--> usb_setup_status/usb

usb_synch_frame/usb_req_std                ----- -----
  +--> usb_setup_stall/usb

usb_req_class/usb_req_class                ----- -----
  +--> usb_set_line_coding/usb_req_class
  +--> usb_get_line_coding/usb_req_class
  +--> usb_set_ctrl_line_state/usb_req_class
  +--> usb_setup_stall/usb

usb_set_line_coding/usb_req_class          ----- -----
  +--> usb_setup_stall/usb
  +--> usb_setup_out/usb

usb_setup_out/usb                          ----- -----
  +--> usb_write_reg/usb

usb_get_line_coding/usb_req_class          ----- -----
  +--> usb_setup_stall/usb
  +--> usb_setup_in/usb

usb_set_ctrl_line_state/usb_req_class      ----- -----
  +--> usb_setup_stall/usb
  +--> usb_setup_status/usb

usb_req_vendor/usb_req_vendor              ----- -----
  +--> usb_setup_stall/usb

usb_ctrl_out/usb                           ----- -----
  +--> usb_write_reg/usb
  +--> usb_read_reg/usb
  +--> usb_read_fifo?_/usb

usb_in_ep1/usb                             ----- -----
  +--> usb_write_reg/usb
  +--> usb_read_reg/usb

usb_in_ep2/usb                             ----- -----
  +--> usb_write_reg/usb
  +--> usb_read_reg/usb

usb_out_ep1/usb                            ----- -----
  +--> usb_write_reg/usb
  +--> usb_read_reg/usb
  +--> usb_read_fifo?_/usb
  +--> sleep_ms/util

sleep_ms/util                              ----- -----
  +--> sleep_us/util

sleep_us/util                              ----- -----

usb_suspend/usb                            ----- -----

*** NEW ROOT *****************************

timer0_isr/timer                           ----- -----

*** NEW ROOT *****************************

?C_C51STARTUP                              ----- -----

*** NEW ROOT *****************************
L251 LINKER/LOCATER V4.66.93.0                                                        06/20/2023  10:07:46  PAGE 8



?C_C51STARTUP?3                            ----- -----
  +--> main/main

main/main                                  ----- -----
  +--> sys_init/main
  +--> usb_init/usb
  +--> delay_ms/main
  +--> printf_hid/util
  +--> pwm_init/pwm
  +--> pwma_setcycle/pwm
  +--> pwm1_setduty/pwm
  +--> pwm4_setduty/pwm
  +--> pwm1p_enable/pwm
  +--> pwm4p_enable/pwm
  +--> pwm1n_enable/pwm
  +--> pwm4n_enable/pwm
  +--> KeyResetScan/main
  +--> usb_OUT_done/usb
  +--> memcpy?_/memcpy
  +--> usb_IN/usb

sys_init/main                              ----- -----
  +--> Debug_Init/debug
  +--> I2C_Init/i2c
  +--> RF24_Init/rf24
  +--> RF24_Write_Reg/rf24
  +--> RF24_RX_Mode/rf24
  +--> RF24_Set_Channel/rf24
  +--> RF24_Set_Power/rf24
  +--> RF24_Set_P0_Size/rf24
  +--> RF24_Set_Rate/rf24
  +--> RF24_Write_Buf/rf24
  +--> update_1ms/main
  +--> timer0_init/timer

Debug_Init/debug                           ----- -----

I2C_Init/i2c                               ----- -----

RF24_Init/rf24                             ----- -----

RF24_Write_Reg/rf24                        ----- -----
  +--> SPI_RW/spi

SPI_RW/spi                                 ----- -----

RF24_RX_Mode/rf24                          ----- -----
  +--> RF24_Write_Reg/rf24

RF24_Set_Channel/rf24                      ----- -----
  +--> RF24_Write_Reg/rf24

RF24_Set_Power/rf24                        ----- -----
  +--> RF24_Read_Reg/rf24
  +--> RF24_Write_Reg/rf24

RF24_Read_Reg/rf24                         ----- -----
  +--> SPI_RW/spi

RF24_Set_P0_Size/rf24                      ----- -----
  +--> RF24_Write_Reg/rf24

RF24_Set_Rate/rf24                         ----- -----
  +--> RF24_Read_Reg/rf24
L251 LINKER/LOCATER V4.66.93.0                                                        06/20/2023  10:07:46  PAGE 9


  +--> RF24_Write_Reg/rf24

RF24_Write_Buf/rf24                        0025H 0027H
  +--> SPI_RW/spi

update_1ms/main                            ----- -----
  +--> RF24_RX_Mode/rf24
  +--> RF24_Read_Buf/rf24
  +--> RF24_Write_Reg/rf24
  +--> RF24_TX_Mode/rf24
  +--> RF24_Write_Buf/rf24

RF24_Read_Buf/rf24                         0025H 0027H
  +--> SPI_RW/spi

RF24_TX_Mode/rf24                          ----- -----
  +--> RF24_Write_Reg/rf24

timer0_init/timer                          ----- -----
  +--> ?C?ULIDIV/?C?ULDIV

?C?ULIDIV/?C?ULDIV                         ----- -----

usb_init/usb                               ----- -----
  +--> usb_write_reg/usb

delay_ms/main                              ----- -----

printf_hid/util                            0025H 0050H
  +--> VSPRINTF/VSPRINTF
  +--> usb_IN/usb

VSPRINTF/VSPRINTF                          0051H 0054H
  +--> OUT/VSPRINTF

OUT/VSPRINTF                               ----- -----
  +--> PUTCH/VSPRINTF

PUTCH/VSPRINTF                             ----- -----

usb_IN/usb                                 ----- -----
  +--> usb_write_reg/usb
  +--> usb_read_reg/usb
  +--> usb_bulk_intr_in/usb

usb_bulk_intr_in/usb                       ----- -----
  +--> usb_write_fifo?_/usb
  +--> usb_write_reg/usb

pwm_init/pwm                               ----- -----

pwma_setcycle/pwm                          ----- -----

pwm1_setduty/pwm                           ----- -----

pwm4_setduty/pwm                           ----- -----

pwm1p_enable/pwm                           ----- -----
  +--> pwm1n_disable/pwm

pwm1n_disable/pwm                          ----- -----

pwm4p_enable/pwm                           ----- -----
  +--> pwm4n_disable/pwm

L251 LINKER/LOCATER V4.66.93.0                                                        06/20/2023  10:07:46  PAGE 10


pwm4n_disable/pwm                          ----- -----

pwm1n_enable/pwm                           ----- -----
  +--> pwm1p_disable/pwm

pwm1p_disable/pwm                          ----- -----

pwm4n_enable/pwm                           ----- -----
  +--> pwm4p_disable/pwm

pwm4p_disable/pwm                          ----- -----

KeyResetScan/main                          ----- -----
  +--> delay_ms/main

usb_OUT_done/usb                           ----- -----
  +--> usb_write_reg/usb

memcpy?_/memcpy                            ----- -----

*** NEW ROOT *****************************

?C_C51STARTUP?2                            ----- -----



PUBLIC SYMBOLS OF MODULE:  .\obj\stc_usb_ser (main)


      VALUE       CLASS    TYPE      PUBLIC SYMBOL NAME
      =================================================
      000000FFH   NUMBER   ---       ?C?CODESEG
      00FF0534H   CODE     ---       ?C?FPCONVERT
      00FF06CFH   CODE     ---       ?C?FPDIV
      00FF07B7H   CODE     ---       ?C?FPGETOPN2
      00FF062FH   CODE     ---       ?C?FPMUL
      00FF07F4H   CODE     ---       ?C?FPNANRESULT
      00FF07FCH   CODE     ---       ?C?FPOVERFLOW
      00FF07D0H   CODE     ---       ?C?FPRESULT
      00FF07E6H   CODE     ---       ?C?FPRESULT2
      00FF05ECH   CODE     ---       ?C?FPROUND
      00FF07F9H   CODE     ---       ?C?FPUNDERFLOW
      00FF0780H   CODE     ---       ?C?FTNPWR
      00FF1821H   CODE     ---       ?C?INITEDATA
      00FF2548H   HCONST   WORD      ?C?INITEDATA_END
      00FF0808H   CODE     ---       ?C?LMUL
      00FF0117H   CODE     ---       ?C?PRNFMT
      00FF0000H   CODE     ---       ?C?STARTUP
      00FF081BH   CODE     NEAR LAB  ?C?ULDIV
      00FF0819H   CODE     NEAR LAB  ?C?ULIDIV
      00000001H   NUMBER   ---       ?C?XDATASEG
      00FF0000H   CODE     ---       ?C_STARTUP
      0000004DH   EDATA    BYTE      ?printf_hid?BYTE
      000000AFH   EDATA    BYTE      ?SEG7_ShowString?BYTE
      00000049H   EDATA    ---       ?vsprintf?BYTE
*SFR* 000000BCH   DATA     BYTE      ADC_CONTR
*SFR* 000000EFH   DATA     BYTE      AUXINTIF
*SFR* 0000008EH   DATA     BYTE      AUXR
*SFR* 00000097H   DATA     BYTE      AUXR2
      00000020H.4 BIT      BIT       bUsbFeatureReady
      00000020H.5 BIT      BIT       bUsbInBusy
      00000020H.3 BIT      BIT       bUsbOutReady
*SFR* 000000F1H   DATA     BYTE      CANICR
*SFR* 000000EAH   DATA     BYTE      CKCON
*SFR* 000000E6H   DATA     BYTE      CMPCR1
L251 LINKER/LOCATER V4.66.93.0                                                        06/20/2023  10:07:46  PAGE 11


*SFR* 000000E7H   DATA     BYTE      CMPCR2
      00FF103BH   CODE     ---       CONFIGDESC
      00FF1D4AH   CODE     ---       Debug_Init
      00FF22ABH   CODE     ---       delay_ms
      00FF1029H   CODE     ---       DEVICEDESC
      00000012H   EDATA    BYTE      DeviceState
*SFR* 000000A8H.7 DATA     BIT       EA
*SFR* 000000BAH.7 DATA     BIT       EAXFR
      00000013H   EDATA    ---       Ep0State
*SFR* 000000A8H.1 DATA     BIT       ET0
*SFR* 000000AFH.7 DATA     BIT       EUSB
      00FF1E2DH   CODE     ---       I2C_Init
      00FF108AH   CODE     ---       I2C_read
      00FF1F2EH   CODE     ---       I2C_RecvACK
      00FF2411H   CODE     ---       I2C_RecvByte
      00FF1F69H   CODE     ---       I2C_RecvData
      00FF1499H   CODE     ---       I2C_Scan
      00FF224EH   CODE     ---       I2C_SendACK
      00FF247FH   CODE     ---       I2C_SendByte
      00FF2266H   CODE     ---       I2C_SendData
      00FF2205H   CODE     ---       I2C_SendNAK
      00FF23F1H   CODE     ---       I2C_Start
      00FF2401H   CODE     ---       I2C_Stop
      00FF227DH   CODE     ---       I2C_Wait
      00FF1537H   CODE     ---       I2C_Write
*SFR* 000000C7H   DATA     BYTE      IAP_CONTR
*SFR* 000000A8H   DATA     BYTE      IE
*SFR* 000000AFH   DATA     BYTE      IE2
      0000001AH   EDATA    BYTE      InEpState
*SFR* 0000008FH   DATA     BYTE      INTCLKO
*SFR* 000000B8H   DATA     BYTE      IP
*SFR* 000000B5H   DATA     BYTE      IP2
*SFR* 000000B6H   DATA     BYTE      IP2H
*SFR* 000000DFH   DATA     BYTE      IP3
*SFR* 000000EEH   DATA     BYTE      IP3H
*SFR* 000000B7H   DATA     BYTE      IPH
*SFR* 0000009DH   DATA     BYTE      IRCBAND
      00000059H   EDATA    WORD      Key_cnt
      00000020H.0 BIT      BIT       Key_Flag
      00FF190CH   CODE     ---       KeyResetScan
      00FF1025H   CODE     ---       LANGIDDESC
      00FF210BH   CODE     ---       LCD12864_AutoWrapOff
      00FF200AH   CODE     ---       LCD12864_AutoWrapOn
      00FF21D3H   CODE     ---       LCD12864_CursorMoveLeft
      00FF208CH   CODE     ---       LCD12864_CursorMoveRight
      00FF21BAH   CODE     ---       LCD12864_CursorOff
      00FF20A6H   CODE     ---       LCD12864_CursorOn
      00FF203EH   CODE     ---       LCD12864_CursorReturnHome
      00FF236AH   CODE     ---       LCD12864_DisplayClear
      00FF213DH   CODE     ---       LCD12864_DisplayOff
      00FF2072H   CODE     ---       LCD12864_DisplayOn
      00FF1E91H   CODE     ---       LCD12864_ReverseLine
      00FF216FH   CODE     ---       LCD12864_ScrollLeft
      00FF1FF0H   CODE     ---       LCD12864_ScrollRight
      00FF1D72H   CODE     ---       LCD12864_ScrollUp
      00FF14E8H   CODE     ---       LCD12864_ShowPicture
      00FF1986H   CODE     ---       LCD12864_ShowString
      00FF16AEH   CODE     ---       LED40_SendData
      00FF16F5H   CODE     ---       LED64_SendData
      000000C9H   EDATA    ---       LineCoding
*SFR* 000000F9H   DATA     BYTE      LINICR
      00FF000EH   CODE     ---       main
      00FF1082H   CODE     ---       MANUFACTDESC
      00FF1DE5H   CODE     ---       memcpy?_
      00FF1446H   CODE     ---       mpu6050_init
L251 LINKER/LOCATER V4.66.93.0                                                        06/20/2023  10:07:46  PAGE 12


      00FF0EFEH   CODE     ---       mpu6050_read
      00000075H   EDATA    ---       mpu_dat
      00FF21A1H   CODE     ---       OLED12864_DisplayContent
      00FF2058H   CODE     ---       OLED12864_DisplayEntire
      00FF20D9H   CODE     ---       OLED12864_DisplayOff
      00FF1FD6H   CODE     ---       OLED12864_DisplayOn
      00FF237EH   CODE     ---       OLED12864_DisplayReverse
      00FF2188H   CODE     ---       OLED12864_HorizontalMirror
      00FF1A71H   CODE     ---       OLED12864_ScrollLeft
      00FF19FDH   CODE     ---       OLED12864_ScrollRight
      00FF1FBCH   CODE     ---       OLED12864_ScrollStart
      00FF2124H   CODE     ---       OLED12864_ScrollStop
      00FF1A37H   CODE     ---       OLED12864_ScrollUp
      00FF1E4FH   CODE     ---       OLED12864_SetAddressMode
      00FF1E70H   CODE     ---       OLED12864_SetContrast
      00FF188EH   CODE     ---       OLED12864_ShowPicture
      00FF2024H   CODE     ---       OLED12864_VerticalMirror
      0000001BH   EDATA    BYTE      OutEpState
      00000010H   EDATA    BYTE      OutNumber
*SFR* 00000080H   DATA     BYTE      P0
*SFR* 00000094H   DATA     BYTE      P0M0
*SFR* 00000093H   DATA     BYTE      P0M1
*SFR* 00000090H   DATA     BYTE      P1
*SFR* 00000090H.0 DATA     BIT       P10
*SFR* 00000090H.1 DATA     BIT       P11
*SFR* 00000090H.6 DATA     BIT       P16
*SFR* 00000090H.7 DATA     BIT       P17
*SFR* 00000092H   DATA     BYTE      P1M0
*SFR* 00000091H   DATA     BYTE      P1M1
*SFR* 000000A0H   DATA     BYTE      P2
*SFR* 000000A0H.2 DATA     BIT       P22
*SFR* 000000A0H.3 DATA     BIT       P23
*SFR* 000000A0H.4 DATA     BIT       P24
*SFR* 000000A0H.5 DATA     BIT       P25
*SFR* 000000A0H.6 DATA     BIT       P26
*SFR* 000000A0H.7 DATA     BIT       P27
*SFR* 00000096H   DATA     BYTE      P2M0
*SFR* 00000095H   DATA     BYTE      P2M1
*SFR* 000000B0H   DATA     BYTE      P3
*SFR* 000000B0H.2 DATA     BIT       P32
*SFR* 000000B2H   DATA     BYTE      P3M0
*SFR* 000000B1H   DATA     BYTE      P3M1
*SFR* 000000C0H   DATA     BYTE      P4
*SFR* 000000B4H   DATA     BYTE      P4M0
*SFR* 000000B3H   DATA     BYTE      P4M1
*SFR* 000000C8H   DATA     BYTE      P5
*SFR* 000000C8H.3 DATA     BIT       P53
*SFR* 000000CAH   DATA     BYTE      P5M0
*SFR* 000000C9H   DATA     BYTE      P5M1
*SFR* 000000E8H   DATA     BYTE      P6
*SFR* 000000CCH   DATA     BYTE      P6M0
*SFR* 000000CBH   DATA     BYTE      P6M1
*SFR* 000000F8H   DATA     BYTE      P7
*SFR* 000000E2H   DATA     BYTE      P7M0
*SFR* 000000E1H   DATA     BYTE      P7M1
*SFR* 000000A2H   DATA     BYTE      P_SW1
*SFR* 000000BAH   DATA     BYTE      P_SW2
*SFR* 000000BBH   DATA     BYTE      P_SW3
      00FF107EH   CODE     ---       PACKET0
      00FF1080H   CODE     ---       PACKET1
*SFR* 00000087H   DATA     BYTE      PCON
      00FF1C74H   CODE     ---       printf_hid
      00FF1007H   CODE     ---       PRODUCTDESC
*SFR* 000000D0H   DATA     BYTE      PSW
      00FF2301H   CODE     ---       pwm1_setduty
L251 LINKER/LOCATER V4.66.93.0                                                        06/20/2023  10:07:46  PAGE 13


      00FF1286H   CODE     ---       pwm1n_config
      00FF23A5H   CODE     ---       pwm1n_disable
      00FF1EB2H   CODE     ---       pwm1n_enable
      00FF133EH   CODE     ---       pwm1p_config
      00FF23B8H   CODE     ---       pwm1p_disable
      00FF1ED1H   CODE     ---       pwm1p_enable
      00FF2316H   CODE     ---       pwm4_setduty
      00FF1398H   CODE     ---       pwm4n_config
      00FF23CBH   CODE     ---       pwm4n_disable
      00FF1EF0H   CODE     ---       pwm4n_enable
      00FF12E2H   CODE     ---       pwm4p_config
      00FF23DEH   CODE     ---       pwm4p_disable
      00FF1F0FH   CODE     ---       pwm4p_enable
      00FF173CH   CODE     ---       pwm_init
      00FF232BH   CODE     ---       pwma_setcycle
      00FF1B17H   CODE     ---       reverse2
      00FF116BH   CODE     ---       reverse4
      00FF0003H   CODE     ---       RF24_Init
      00FF184DH   CODE     ---       RF24_Read_Buf
      00FF2473H   CODE     ---       RF24_Read_Reg
      00FF2340H   CODE     ---       RF24_RX_Mode
      00FF1B4CH   CODE     ---       RF24_RxPacket
      00FF243CH   CODE     ---       RF24_Set_Channel
      00FF244AH   CODE     ---       RF24_Set_P0_Size
      00FF1F85H   CODE     ---       RF24_Set_Power
      00FF1CA1H   CODE     ---       RF24_Set_Rate
      00FF2355H   CODE     ---       RF24_TX_Mode
      00FF1783H   CODE     ---       RF24_TxPacket
      00FF1AAAH   CODE     ---       RF24_Write_Buf
      00FF2294H   CODE     ---       RF24_Write_Reg
*SFR* 000000FFH   DATA     BYTE      RSTCFG
      0000005FH   EDATA    ---       rx
      00000020H.2 BIT      BIT       rx_flag
*SFR* 0000009AH   DATA     BYTE      S2CON
*SFR* 000000ACH   DATA     BYTE      S3CON
*SFR* 000000FDH   DATA     BYTE      S4CON
*SFR* 00000098H   DATA     BYTE      SCON
      00FF1AE2H   CODE     ---       SEG7_ShowCode
      00FF1B81H   CODE     ---       SEG7_ShowFloat
      00FF1949H   CODE     ---       SEG7_ShowLong
      00FF161DH   CODE     ---       SEG7_ShowString
      00000008H   EDATA    ---       Setup
      00FF2236H   CODE     ---       sleep_ms
      00FF1F4CH   CODE     ---       sleep_us
*SFR* 000000CEH   DATA     BYTE      SPCTL
      00FF248EH   CODE     ---       spi_init
      00FF1E0AH   CODE     ---       SPI_RW
*SFR* 000000CDH   DATA     BYTE      SPSTAT
      00FF2458H   CODE     ---       strlen?_
      00FF0DDFH   CODE     ---       sys_init
*SFR* 000000DDH   DATA     BYTE      T4T3M
*SFR* 00000088H   DATA     BYTE      TCON
*SFR* 0000008CH   DATA     BYTE      TH0
      00FF1BE7H   CODE     ---       timer0_init
      00FF1BB4H   CODE     ---       timer0_isr
*SFR* 0000008AH   DATA     BYTE      TL0
*SFR* 00000089H   DATA     BYTE      TMOD
*SFR* 00000088H.4 DATA     BIT       TR0
      0000006AH   EDATA    ---       tx
      000000DAH   EDATA    ---       TX_ADDRESS
      00000020H.1 BIT      BIT       txc_flag
      00FF17C7H   CODE     ---       update_1ms
      00FF22D7H   CODE     ---       usb_bulk_intr_in
      00FF20C0H   CODE     ---       usb_bulk_intr_out
      00FF0AD8H   CODE     ---       usb_clear_feature
L251 LINKER/LOCATER V4.66.93.0                                                        06/20/2023  10:07:46  PAGE 14


      00FF1104H   CODE     ---       usb_ctrl_in
      00FF1586H   CODE     ---       usb_ctrl_out
      00FF13F2H   CODE     ---       usb_get_configuration
      00FF0B77H   CODE     ---       usb_get_descriptor
      00FF18CEH   CODE     ---       usb_get_interface
      00FF1D99H   CODE     ---       usb_get_line_coding
      00FF086CH   CODE     ---       usb_get_status
      00FF1C18H   CODE     ---       usb_IN
      00FF1C47H   CODE     ---       usb_in_ep1
      00FF1CCEH   CODE     ---       usb_in_ep2
      00FF11CCH   CODE     ---       usb_init
      00FF0F83H   CODE     ---       usb_isr
      00FF221EH   CODE     ---       usb_OUT_done
      00FF096FH   CODE     ---       usb_out_ep1
      00FF19C3H   CODE     ---       usb_read_fifo?_
      00FF22ECH   CODE     ---       usb_read_reg
      00FF1FA1H   CODE     ---       usb_req_class
      00FF122AH   CODE     ---       usb_req_std
      00FF248BH   CODE     ---       usb_req_vendor
      00FF1666H   CODE     ---       usb_reset
      00FF00CAH   CODE     ---       usb_resume
      00FF15D3H   CODE     ---       usb_set_address
      00FF0A33H   CODE     ---       usb_set_configuration
      00FF22C1H   CODE     ---       usb_set_ctrl_line_state
      00FF2485H   CODE     ---       usb_set_descriptor
      00FF0C16H   CODE     ---       usb_set_feature
      00FF1D22H   CODE     ---       usb_set_interface
      00FF1DBFH   CODE     ---       usb_set_line_coding
      00FF0E74H   CODE     ---       usb_setup
      00FF00B9H   CODE     ---       usb_setup_in
      00FF2420H   CODE     ---       usb_setup_out
      00FF242EH   CODE     ---       usb_setup_stall
      00FF2466H   CODE     ---       usb_setup_status
      00FF000AH   CODE     ---       usb_suspend
      00FF2488H   CODE     ---       usb_synch_frame
      00FF1CF9H   CODE     ---       usb_write_fifo?_
      00FF2392H   CODE     ---       usb_write_reg
*SFR* 000000FCH   DATA     BYTE      USBADR
*SFR* 000000DCH   DATA     BYTE      USBCLK
*SFR* 000000F4H   DATA     BYTE      USBCON
*SFR* 000000ECH   DATA     BYTE      USBDAT
      00010080H   XDATA    ---       UsbFeatureBuffer
      00010000H   XDATA    ---       UsbInBuffer
      00010040H   XDATA    ---       UsbOutBuffer
      00000083H   EDATA    ---       USER_DEVICEDESC
      0000005BH   EDATA    ---       USER_PRODUCTDESC
      00000055H   EDATA    ---       USER_STCISPCMD
      00FF00CEH   CODE     NEAR LAB  vsprintf
*SFR* 000000C1H   DATA     BYTE      WDT_CONTR
*SFR* 000000E9H   DATA     BYTE      WTST



SYMBOL TABLE OF MODULE:  .\obj\stc_usb_ser (main)

      VALUE       REP       CLASS    TYPE      SYMBOL NAME
      ====================================================
      ---         MODULE    ---      ---       main
      00FF1499H   PUBLIC    CODE     ---       I2C_Scan
      00FF000EH   PUBLIC    CODE     ---       main
      00FF190CH   PUBLIC    CODE     ---       KeyResetScan
      00FF22ABH   PUBLIC    CODE     ---       delay_ms
      00FF0DDFH   PUBLIC    CODE     ---       sys_init
      00FF17C7H   PUBLIC    CODE     ---       update_1ms
      00000020H.0 PUBLIC    BIT      BIT       Key_Flag
L251 LINKER/LOCATER V4.66.93.0                                                        06/20/2023  10:07:46  PAGE 15


      00000020H.1 PUBLIC    BIT      BIT       txc_flag
      00000020H.2 PUBLIC    BIT      BIT       rx_flag
      00000055H   PUBLIC    EDATA    ---       USER_STCISPCMD
      00000059H   PUBLIC    EDATA    WORD      Key_cnt
      0000005BH   PUBLIC    EDATA    ---       USER_PRODUCTDESC
      0000005FH   PUBLIC    EDATA    ---       rx
      0000006AH   PUBLIC    EDATA    ---       tx
      00000075H   PUBLIC    EDATA    ---       mpu_dat
      00000083H   PUBLIC    EDATA    ---       USER_DEVICEDESC
      00000094H   SFRSYM    DATA     BYTE      P0M0
      000000D0H   SFRSYM    DATA     BYTE      PSW
      000000BAH.7 SFRSYM    DATA     BIT       EAXFR
      0000009DH   SFRSYM    DATA     BYTE      IRCBAND
      00000097H   SFRSYM    DATA     BYTE      AUXR2
      000000EAH   SFRSYM    DATA     BYTE      CKCON
      000000EFH   SFRSYM    DATA     BYTE      AUXINTIF
      000000FDH   SFRSYM    DATA     BYTE      S4CON
      000000ACH   SFRSYM    DATA     BYTE      S3CON
      0000009AH   SFRSYM    DATA     BYTE      S2CON
      000000B7H   SFRSYM    DATA     BYTE      IPH
      000000CDH   SFRSYM    DATA     BYTE      SPSTAT
      000000DDH   SFRSYM    DATA     BYTE      T4T3M
      000000C1H   SFRSYM    DATA     BYTE      WDT_CONTR
      000000E9H   SFRSYM    DATA     BYTE      WTST
      000000DFH   SFRSYM    DATA     BYTE      IP3
      000000F4H   SFRSYM    DATA     BYTE      USBCON
      000000B5H   SFRSYM    DATA     BYTE      IP2
      000000FFH   SFRSYM    DATA     BYTE      RSTCFG
      000000DCH   SFRSYM    DATA     BYTE      USBCLK
      000000C7H   SFRSYM    DATA     BYTE      IAP_CONTR
      000000F9H   SFRSYM    DATA     BYTE      LINICR
      0000008EH   SFRSYM    DATA     BYTE      AUXR
      000000AFH   SFRSYM    DATA     BYTE      IE2
      000000A0H.7 SFRSYM    DATA     BIT       P27
      000000C8H.3 SFRSYM    DATA     BIT       P53
      00000088H   SFRSYM    DATA     BYTE      TCON
      000000B0H.2 SFRSYM    DATA     BIT       P32
      00000098H   SFRSYM    DATA     BYTE      SCON
      000000A0H.2 SFRSYM    DATA     BIT       P22
      000000F1H   SFRSYM    DATA     BYTE      CANICR
      00000087H   SFRSYM    DATA     BYTE      PCON
      000000BCH   SFRSYM    DATA     BYTE      ADC_CONTR
      000000E7H   SFRSYM    DATA     BYTE      CMPCR2
      000000E6H   SFRSYM    DATA     BYTE      CMPCR1
      000000B8H   SFRSYM    DATA     BYTE      IP
      0000008FH   SFRSYM    DATA     BYTE      INTCLKO
      000000EEH   SFRSYM    DATA     BYTE      IP3H
      000000B6H   SFRSYM    DATA     BYTE      IP2H
      000000A8H   SFRSYM    DATA     BYTE      IE
      000000BBH   SFRSYM    DATA     BYTE      P_SW3
      000000BAH   SFRSYM    DATA     BYTE      P_SW2
      000000A2H   SFRSYM    DATA     BYTE      P_SW1
      000000CEH   SFRSYM    DATA     BYTE      SPCTL
      000000F8H   SFRSYM    DATA     BYTE      P7
      000000A8H.7 SFRSYM    DATA     BIT       EA
      000000E1H   SFRSYM    DATA     BYTE      P7M1
      000000E8H   SFRSYM    DATA     BYTE      P6
      000000C8H   SFRSYM    DATA     BYTE      P5
      000000CBH   SFRSYM    DATA     BYTE      P6M1
      000000E2H   SFRSYM    DATA     BYTE      P7M0
      000000C0H   SFRSYM    DATA     BYTE      P4
      000000C9H   SFRSYM    DATA     BYTE      P5M1
      000000CCH   SFRSYM    DATA     BYTE      P6M0
      000000B0H   SFRSYM    DATA     BYTE      P3
      000000B3H   SFRSYM    DATA     BYTE      P4M1
L251 LINKER/LOCATER V4.66.93.0                                                        06/20/2023  10:07:46  PAGE 16


      000000CAH   SFRSYM    DATA     BYTE      P5M0
      000000A0H   SFRSYM    DATA     BYTE      P2
      000000B1H   SFRSYM    DATA     BYTE      P3M1
      000000B4H   SFRSYM    DATA     BYTE      P4M0
      00000090H   SFRSYM    DATA     BYTE      P1
      00000095H   SFRSYM    DATA     BYTE      P2M1
      000000B2H   SFRSYM    DATA     BYTE      P3M0
      00000080H   SFRSYM    DATA     BYTE      P0
      00000091H   SFRSYM    DATA     BYTE      P1M1
      00000096H   SFRSYM    DATA     BYTE      P2M0
      00000092H   SFRSYM    DATA     BYTE      P1M0
      00000093H   SFRSYM    DATA     BYTE      P0M1

      00FF1499H   BLOCK     CODE     ---       LVL=0
      00FF149BH   BLOCK     CODE     NEAR LAB  LVL=1
      R14         REGSYM    ---      BYTE      addr_test
      R15         REGSYM    ---      BYTE      flag
      ---         BLOCKEND  ---      ---       LVL=1
      00FF1499H   LINE      CODE     ---       #66
      00FF149BH   LINE      CODE     ---       #67
      00FF149BH   LINE      CODE     ---       #70
      00FF149DH   LINE      CODE     ---       #72
      00FF14A8H   LINE      CODE     ---       #74
      00FF14AAH   LINE      CODE     ---       #76
      00FF14ADH   LINE      CODE     ---       #77
      00FF14B9H   LINE      CODE     ---       #78
      00FF14BCH   LINE      CODE     ---       #79
      00FF14C0H   LINE      CODE     ---       #81
      00FF14C2H   LINE      CODE     ---       #82
      00FF14D3H   LINE      CODE     ---       #83
      00FF14DAH   LINE      CODE     ---       #86
      00FF14E5H   LINE      CODE     ---       #89
      ---         BLOCKEND  ---      ---       LVL=0

      00FF17C7H   BLOCK     CODE     ---       LVL=0
      00FF17C7H   LINE      CODE     ---       #91
      00FF17C7H   LINE      CODE     ---       #93
      00FF17CAH   LINE      CODE     ---       #95
      00FF17CDH   LINE      CODE     ---       #96
      00FF17CFH   LINE      CODE     ---       #97
      00FF17CFH   LINE      CODE     ---       #98
      00FF17D2H   LINE      CODE     ---       #100
      00FF17D8H   LINE      CODE     ---       #102
      00FF17E4H   LINE      CODE     ---       #103
      00FF17E6H   LINE      CODE     ---       #104
      00FF17EEH   LINE      CODE     ---       #105
      00FF17F0H   LINE      CODE     ---       #119
      00FF17F2H   LINE      CODE     ---       #120
      00FF17F5H   LINE      CODE     ---       #121
      00FF17F5H   LINE      CODE     ---       #125
      00FF17F7H   LINE      CODE     ---       #126
      00FF1803H   LINE      CODE     ---       #127
      00FF1805H   LINE      CODE     ---       #129
      00FF1807H   LINE      CODE     ---       #130
      00FF1809H   LINE      CODE     ---       #132
      00FF1809H   LINE      CODE     ---       #133
      ---         BLOCKEND  ---      ---       LVL=0

      00FF000EH   BLOCK     CODE     ---       LVL=0
      00FF000EH   LINE      CODE     ---       #135
      00FF000EH   LINE      CODE     ---       #137
      00FF0011H   LINE      CODE     ---       #138
      00FF0014H   LINE      CODE     ---       #139
      00FF0016H   LINE      CODE     ---       #141
      00FF0018H   LINE      CODE     ---       #142
L251 LINKER/LOCATER V4.66.93.0                                                        06/20/2023  10:07:46  PAGE 17


      00FF001FH   LINE      CODE     ---       #144
      00FF0024H   LINE      CODE     ---       #145
      00FF0029H   LINE      CODE     ---       #146
      00FF002EH   LINE      CODE     ---       #147
      00FF0033H   LINE      CODE     ---       #148
      00FF0038H   LINE      CODE     ---       #149
      00FF0043H   LINE      CODE     ---       #154
      00FF0046H   LINE      CODE     ---       #155
      00FF004DH   LINE      CODE     ---       #156
      00FF0054H   LINE      CODE     ---       #157
      00FF005BH   LINE      CODE     ---       #158
      00FF005EH   LINE      CODE     ---       #159
      00FF0061H   LINE      CODE     ---       #160
      00FF0064H   LINE      CODE     ---       #161
      00FF0067H   LINE      CODE     ---       #163
      00FF0069H   LINE      CODE     ---       #165
      00FF0069H   LINE      CODE     ---       #167
      00FF006EH   LINE      CODE     ---       #168
      00FF0071H   LINE      CODE     ---       #170
      00FF0078H   LINE      CODE     ---       #171
      00FF0078H   LINE      CODE     ---       #173
      00FF007BH   LINE      CODE     ---       #175
      00FF007EH   LINE      CODE     ---       #177
      00FF0093H   LINE      CODE     ---       #179
      00FF00B0H   LINE      CODE     ---       #180
      00FF00B7H   LINE      CODE     ---       #181
      ---         BLOCKEND  ---      ---       LVL=0

      00FF0DDFH   BLOCK     CODE     ---       LVL=0
      00FF0DDFH   LINE      CODE     ---       #185
      00FF0DDFH   LINE      CODE     ---       #187
      00FF0DE2H   LINE      CODE     ---       #188
      00FF0DE5H   LINE      CODE     ---       #189
      00FF0DE8H   LINE      CODE     ---       #191
      00FF0DEEH   LINE      CODE     ---       #192
      00FF0DF4H   LINE      CODE     ---       #193
      00FF0DFAH   LINE      CODE     ---       #194
      00FF0E00H   LINE      CODE     ---       #195
      00FF0E06H   LINE      CODE     ---       #196
      00FF0E0CH   LINE      CODE     ---       #197
      00FF0E12H   LINE      CODE     ---       #198
      00FF0E18H   LINE      CODE     ---       #200
      00FF0E1BH   LINE      CODE     ---       #202
      00FF0E1EH   LINE      CODE     ---       #205
      00FF0E21H   LINE      CODE     ---       #206
      00FF0E28H   LINE      CODE     ---       #207
      00FF0E30H   LINE      CODE     ---       #208
      00FF0E37H   LINE      CODE     ---       #209
      00FF0E3AH   LINE      CODE     ---       #211
      00FF0E3FH   LINE      CODE     ---       #212
      00FF0E44H   LINE      CODE     ---       #213
      00FF0E49H   LINE      CODE     ---       #214
      00FF0E4DH   LINE      CODE     ---       #215
      00FF0E59H   LINE      CODE     ---       #216
      00FF0E65H   LINE      CODE     ---       #217
      00FF0E67H   LINE      CODE     ---       #218
      00FF0E69H   LINE      CODE     ---       #220
      ---         BLOCKEND  ---      ---       LVL=0

      00FF22ABH   BLOCK     CODE     ---       LVL=0
      R10         REGSYM    ---      BYTE      ms
      00FF22ADH   BLOCK     CODE     NEAR LAB  LVL=1
      WR8         REGSYM    ---      WORD      i
      ---         BLOCKEND  ---      ---       LVL=1
      00FF22ABH   LINE      CODE     ---       #232
L251 LINKER/LOCATER V4.66.93.0                                                        06/20/2023  10:07:46  PAGE 18


      00FF22ADH   LINE      CODE     ---       #233
      00FF22ADH   LINE      CODE     ---       #235
      00FF22ADH   LINE      CODE     ---       #236
      00FF22B1H   LINE      CODE     ---       #237
      00FF22B9H   LINE      CODE     ---       #238
      00FF22C0H   LINE      CODE     ---       #239
      ---         BLOCKEND  ---      ---       LVL=0

      00FF190CH   BLOCK     CODE     ---       LVL=0
      00FF190CH   LINE      CODE     ---       #250
      00FF190CH   LINE      CODE     ---       #252
      00FF190FH   LINE      CODE     ---       #254
      00FF1912H   LINE      CODE     ---       #256
      00FF191CH   LINE      CODE     ---       #257
      00FF1922H   LINE      CODE     ---       #259
      00FF1924H   LINE      CODE     ---       #261
      00FF1927H   LINE      CODE     ---       #262
      00FF192AH   LINE      CODE     ---       #263
      00FF1936H   LINE      CODE     ---       #265
      00FF193BH   LINE      CODE     ---       #266
      00FF193EH   LINE      CODE     ---       #267
      00FF1940H   LINE      CODE     ---       #273
      00FF1946H   LINE      CODE     ---       #274
      00FF1948H   LINE      CODE     ---       #275
      00FF1948H   LINE      CODE     ---       #276
      ---         BLOCKEND  ---      ---       LVL=0

      ---         MODULE    ---      ---       usb
      00FF00B9H   PUBLIC    CODE     ---       usb_setup_in
      00FF2420H   PUBLIC    CODE     ---       usb_setup_out
      00FF1104H   PUBLIC    CODE     ---       usb_ctrl_in
      00FF1586H   PUBLIC    CODE     ---       usb_ctrl_out
      00FF221EH   PUBLIC    CODE     ---       usb_OUT_done
      00FF000AH   PUBLIC    CODE     ---       usb_suspend
      00FF22D7H   PUBLIC    CODE     ---       usb_bulk_intr_in
      00FF20C0H   PUBLIC    CODE     ---       usb_bulk_intr_out
      00FF00CAH   PUBLIC    CODE     ---       usb_resume
      00FF1C18H   PUBLIC    CODE     ---       usb_IN
      00FF19C3H   PUBLIC    CODE     ---       usb_read_fifo?_
      00FF1666H   PUBLIC    CODE     ---       usb_reset
      00FF0E74H   PUBLIC    CODE     ---       usb_setup
      00FF1CF9H   PUBLIC    CODE     ---       usb_write_fifo?_
      00FF11CCH   PUBLIC    CODE     ---       usb_init
      00FF242EH   PUBLIC    CODE     ---       usb_setup_stall
      00FF2466H   PUBLIC    CODE     ---       usb_setup_status
      00FF22ECH   PUBLIC    CODE     ---       usb_read_reg
      00FF1C47H   PUBLIC    CODE     ---       usb_in_ep1
      00FF1CCEH   PUBLIC    CODE     ---       usb_in_ep2
      00FF096FH   PUBLIC    CODE     ---       usb_out_ep1
      00FF2392H   PUBLIC    CODE     ---       usb_write_reg
      00FF0F83H   PUBLIC    CODE     ---       usb_isr
      00000008H   PUBLIC    EDATA    ---       Setup
      00000010H   PUBLIC    EDATA    BYTE      OutNumber
      00000012H   PUBLIC    EDATA    BYTE      DeviceState
      00000013H   PUBLIC    EDATA    ---       Ep0State
      0000001AH   PUBLIC    EDATA    BYTE      InEpState
      0000001BH   PUBLIC    EDATA    BYTE      OutEpState
      00000020H.3 PUBLIC    BIT      BIT       bUsbOutReady
      00000020H.4 PUBLIC    BIT      BIT       bUsbFeatureReady
      00000020H.5 PUBLIC    BIT      BIT       bUsbInBusy
      00010000H   PUBLIC    XDATA    ---       UsbInBuffer
      00010040H   PUBLIC    XDATA    ---       UsbOutBuffer
      00010080H   PUBLIC    XDATA    ---       UsbFeatureBuffer
      000000D0H   SFRSYM    DATA     BYTE      PSW
      0000009DH   SFRSYM    DATA     BYTE      IRCBAND
L251 LINKER/LOCATER V4.66.93.0                                                        06/20/2023  10:07:46  PAGE 19


      00000097H   SFRSYM    DATA     BYTE      AUXR2
      000000EFH   SFRSYM    DATA     BYTE      AUXINTIF
      000000FDH   SFRSYM    DATA     BYTE      S4CON
      000000ACH   SFRSYM    DATA     BYTE      S3CON
      0000009AH   SFRSYM    DATA     BYTE      S2CON
      000000B7H   SFRSYM    DATA     BYTE      IPH
      000000CDH   SFRSYM    DATA     BYTE      SPSTAT
      000000DDH   SFRSYM    DATA     BYTE      T4T3M
      000000C1H   SFRSYM    DATA     BYTE      WDT_CONTR
      000000DFH   SFRSYM    DATA     BYTE      IP3
      000000F4H   SFRSYM    DATA     BYTE      USBCON
      000000B5H   SFRSYM    DATA     BYTE      IP2
      000000FFH   SFRSYM    DATA     BYTE      RSTCFG
      000000DCH   SFRSYM    DATA     BYTE      USBCLK
      000000ECH   SFRSYM    DATA     BYTE      USBDAT
      000000C7H   SFRSYM    DATA     BYTE      IAP_CONTR
      000000F9H   SFRSYM    DATA     BYTE      LINICR
      000000FCH   SFRSYM    DATA     BYTE      USBADR
      0000008EH   SFRSYM    DATA     BYTE      AUXR
      000000AFH   SFRSYM    DATA     BYTE      IE2
      00000088H   SFRSYM    DATA     BYTE      TCON
      00000098H   SFRSYM    DATA     BYTE      SCON
      000000F1H   SFRSYM    DATA     BYTE      CANICR
      00000087H   SFRSYM    DATA     BYTE      PCON
      000000BCH   SFRSYM    DATA     BYTE      ADC_CONTR
      000000AFH.7 SFRSYM    DATA     BIT       EUSB
      000000E7H   SFRSYM    DATA     BYTE      CMPCR2
      000000E6H   SFRSYM    DATA     BYTE      CMPCR1
      000000B8H   SFRSYM    DATA     BYTE      IP
      0000008FH   SFRSYM    DATA     BYTE      INTCLKO
      000000EEH   SFRSYM    DATA     BYTE      IP3H
      000000B6H   SFRSYM    DATA     BYTE      IP2H
      000000A8H   SFRSYM    DATA     BYTE      IE
      000000BBH   SFRSYM    DATA     BYTE      P_SW3
      000000BAH   SFRSYM    DATA     BYTE      P_SW2
      000000A2H   SFRSYM    DATA     BYTE      P_SW1
      000000CEH   SFRSYM    DATA     BYTE      SPCTL
      000000F8H   SFRSYM    DATA     BYTE      P7
      000000E8H   SFRSYM    DATA     BYTE      P6
      000000C8H   SFRSYM    DATA     BYTE      P5
      000000C0H   SFRSYM    DATA     BYTE      P4
      000000B0H   SFRSYM    DATA     BYTE      P3
      000000A0H   SFRSYM    DATA     BYTE      P2
      00000090H   SFRSYM    DATA     BYTE      P1
      00000080H   SFRSYM    DATA     BYTE      P0
      00000011H   SYMBOL    EDATA    CHAR      ispCheck

      00FF11CCH   BLOCK     CODE     ---       LVL=0
      00FF11CCH   LINE      CODE     ---       #35
      00FF11CCH   LINE      CODE     ---       #37
      00FF11D2H   LINE      CODE     ---       #38
      00FF11DAH   LINE      CODE     ---       #39
      00FF11E2H   LINE      CODE     ---       #40
      00FF11EAH   LINE      CODE     ---       #41
      00FF11F2H   LINE      CODE     ---       #42
      00FF11F9H   LINE      CODE     ---       #44
      00FF11FFH   LINE      CODE     ---       #45
      00FF1204H   LINE      CODE     ---       #46
      00FF1208H   LINE      CODE     ---       #47
      00FF120CH   LINE      CODE     ---       #49
      00FF1218H   LINE      CODE     ---       #50
      00FF121CH   LINE      CODE     ---       #51
      00FF1220H   LINE      CODE     ---       #52
      00FF1226H   LINE      CODE     ---       #54
      00FF1229H   LINE      CODE     ---       #55
L251 LINKER/LOCATER V4.66.93.0                                                        06/20/2023  10:07:46  PAGE 20


      ---         BLOCKEND  ---      ---       LVL=0

      00FF22ECH   BLOCK     CODE     ---       LVL=0
      R10         REGSYM    ---      BYTE      addr
      00FF22EEH   BLOCK     CODE     NEAR LAB  LVL=1
      R11         REGSYM    ---      BYTE      dat
      ---         BLOCKEND  ---      ---       LVL=1
      00FF22ECH   LINE      CODE     ---       #57
      00FF22EEH   LINE      CODE     ---       #58
      00FF22EEH   LINE      CODE     ---       #61
      00FF22F3H   LINE      CODE     ---       #62
      00FF22F9H   LINE      CODE     ---       #63
      00FF22FEH   LINE      CODE     ---       #64
      00FF2300H   LINE      CODE     ---       #66
      00FF2300H   LINE      CODE     ---       #67
      ---         BLOCKEND  ---      ---       LVL=0

      00FF2392H   BLOCK     CODE     ---       LVL=0
      R7          REGSYM    ---      BYTE      addr
      R10         REGSYM    ---      BYTE      dat
      00FF2392H   LINE      CODE     ---       #69
      00FF2396H   LINE      CODE     ---       #71
      00FF239BH   LINE      CODE     ---       #72
      00FF23A1H   LINE      CODE     ---       #73
      00FF23A4H   LINE      CODE     ---       #74
      ---         BLOCKEND  ---      ---       LVL=0

      00FF19C3H   BLOCK     CODE     ---       LVL=0
      FFFFFFFEH   STKSYM    ---      BYTE      fifo
      REG=3       REGSYM    ---      ---       pdat
      00FF19CBH   BLOCK     CODE     NEAR LAB  LVL=1
      00000000H   STKSYM    ---      BYTE      cnt
      FFFFFFFFH   STKSYM    ---      BYTE      ret
      ---         BLOCKEND  ---      ---       LVL=1
      00FF19C3H   LINE      CODE     ---       #76
      00FF19CBH   LINE      CODE     ---       #77
      00FF19CBH   LINE      CODE     ---       #81
      00FF19D7H   LINE      CODE     ---       #82
      00FF19D9H   LINE      CODE     ---       #84
      00FF19E5H   LINE      CODE     ---       #85
      00FF19F2H   LINE      CODE     ---       #87
      00FF19F6H   LINE      CODE     ---       #88
      ---         BLOCKEND  ---      ---       LVL=0

      00FF1CF9H   BLOCK     CODE     ---       LVL=0
      00000000H   STKSYM    ---      BYTE      fifo
      REG=3       REGSYM    ---      ---       pdat
      FFFFFFFFH   STKSYM    ---      BYTE      cnt
      00FF1CF9H   LINE      CODE     ---       #90
      00FF1D01H   LINE      CODE     ---       #92
      00FF1D03H   LINE      CODE     ---       #94
      00FF1D0EH   LINE      CODE     ---       #95
      00FF1D1DH   LINE      CODE     ---       #96
      ---         BLOCKEND  ---      ---       LVL=0

      00FF0F83H   BLOCK     CODE     ---       LVL=0
      00FF0F9BH   BLOCK     CODE     NEAR LAB  LVL=1
      R14         REGSYM    ---      BYTE      intrusb
      R12         REGSYM    ---      BYTE      intrin
      R13         REGSYM    ---      BYTE      introut
      R15         REGSYM    ---      BYTE      adrTemp
      ---         BLOCKEND  ---      ---       LVL=1
      00FF0F83H   LINE      CODE     ---       #98
      00FF0F9BH   LINE      CODE     ---       #99
      00FF0F9BH   LINE      CODE     ---       #105
L251 LINKER/LOCATER V4.66.93.0                                                        06/20/2023  10:07:46  PAGE 21


      00FF0F9EH   LINE      CODE     ---       #107
      00FF0FA5H   LINE      CODE     ---       #108
      00FF0FACH   LINE      CODE     ---       #109
      00FF0FB3H   LINE      CODE     ---       #111
      00FF0FBBH   LINE      CODE     ---       #112
      00FF0FC3H   LINE      CODE     ---       #114
      00FF0FCBH   LINE      CODE     ---       #117
      00FF0FD3H   LINE      CODE     ---       #120
      00FF0FDBH   LINE      CODE     ---       #133
      00FF0FE3H   LINE      CODE     ---       #148
      00FF0FEBH   LINE      CODE     ---       #150
      00FF0FEEH   LINE      CODE     ---       #151
      ---         BLOCKEND  ---      ---       LVL=0

      00FF00CAH   BLOCK     CODE     ---       LVL=0
      00FF00CAH   LINE      CODE     ---       #153
      00FF00CAH   LINE      CODE     ---       #155
      ---         BLOCKEND  ---      ---       LVL=0

      00FF1666H   BLOCK     CODE     ---       LVL=0
      00FF1666H   LINE      CODE     ---       #157
      00FF1666H   LINE      CODE     ---       #159
      00FF166CH   LINE      CODE     ---       #160
      00FF1672H   LINE      CODE     ---       #161
      00FF1677H   LINE      CODE     ---       #164
      00FF167FH   LINE      CODE     ---       #165
      00FF1687H   LINE      CODE     ---       #168
      00FF168FH   LINE      CODE     ---       #169
      00FF1697H   LINE      CODE     ---       #184
      00FF169FH   LINE      CODE     ---       #185
      00FF16A7H   LINE      CODE     ---       #203
      ---         BLOCKEND  ---      ---       LVL=0

      00FF000AH   BLOCK     CODE     ---       LVL=0
      00FF000AH   LINE      CODE     ---       #206
      00FF000AH   LINE      CODE     ---       #208
      ---         BLOCKEND  ---      ---       LVL=0

      00FF0E74H   BLOCK     CODE     ---       LVL=0
      00FF0E76H   BLOCK     CODE     NEAR LAB  LVL=1
      R15         REGSYM    ---      BYTE      csr
      ---         BLOCKEND  ---      ---       LVL=1
      00FF0E74H   LINE      CODE     ---       #210
      00FF0E76H   LINE      CODE     ---       #211
      00FF0E76H   LINE      CODE     ---       #214
      00FF0E7DH   LINE      CODE     ---       #215
      00FF0E84H   LINE      CODE     ---       #217
      00FF0E87H   LINE      CODE     ---       #219
      00FF0E91H   LINE      CODE     ---       #220
      00FF0E96H   LINE      CODE     ---       #221
      00FF0E96H   LINE      CODE     ---       #222
      00FF0E9BH   LINE      CODE     ---       #224
      00FF0EA5H   LINE      CODE     ---       #225
      00FF0EA5H   LINE      CODE     ---       #227
      00FF0EB4H   LINE      CODE     ---       #229
      00FF0EB4H   LINE      CODE     ---       #230
      00FF0EB9H   LINE      CODE     ---       #232
      00FF0EC2H   LINE      CODE     ---       #233
      00FF0ECDH   LINE      CODE     ---       #234
      00FF0EDFH   LINE      CODE     ---       #236
      00FF0EDFH   LINE      CODE     ---       #237
      00FF0EE2H   LINE      CODE     ---       #238
      00FF0EE4H   LINE      CODE     ---       #239
      00FF0EE4H   LINE      CODE     ---       #240
      00FF0EE7H   LINE      CODE     ---       #241
L251 LINKER/LOCATER V4.66.93.0                                                        06/20/2023  10:07:46  PAGE 22


      00FF0EE9H   LINE      CODE     ---       #242
      00FF0EE9H   LINE      CODE     ---       #243
      00FF0EECH   LINE      CODE     ---       #244
      00FF0EEEH   LINE      CODE     ---       #245
      00FF0EEEH   LINE      CODE     ---       #246
      00FF0EF1H   LINE      CODE     ---       #247
      00FF0EF3H   LINE      CODE     ---       #248
      00FF0EF3H   LINE      CODE     ---       #249
      00FF0EF3H   LINE      CODE     ---       #250
      00FF0EF3H   LINE      CODE     ---       #251
      00FF0EF3H   LINE      CODE     ---       #252
      00FF0EF6H   LINE      CODE     ---       #253
      00FF0EF8H   LINE      CODE     ---       #254
      00FF0EF8H   LINE      CODE     ---       #255
      00FF0EFBH   LINE      CODE     ---       #256
      00FF0EFBH   LINE      CODE     ---       #257
      00FF0EFBH   LINE      CODE     ---       #258
      ---         BLOCKEND  ---      ---       LVL=0

      00FF242EH   BLOCK     CODE     ---       LVL=0
      00FF242EH   LINE      CODE     ---       #260
      00FF242EH   LINE      CODE     ---       #262
      00FF2434H   LINE      CODE     ---       #263
      ---         BLOCKEND  ---      ---       LVL=0

      00FF00B9H   BLOCK     CODE     ---       LVL=0
      00FF00B9H   LINE      CODE     ---       #266
      00FF00B9H   LINE      CODE     ---       #268
      00FF00BFH   LINE      CODE     ---       #269
      00FF00C7H   LINE      CODE     ---       #270
      ---         BLOCKEND  ---      ---       LVL=0

      00FF2420H   BLOCK     CODE     ---       LVL=0
      00FF2420H   LINE      CODE     ---       #273
      00FF2420H   LINE      CODE     ---       #275
      00FF2426H   LINE      CODE     ---       #276
      ---         BLOCKEND  ---      ---       LVL=0

      00FF2466H   BLOCK     CODE     ---       LVL=0
      00FF2466H   LINE      CODE     ---       #279
      00FF2466H   LINE      CODE     ---       #281
      00FF246BH   LINE      CODE     ---       #282
      ---         BLOCKEND  ---      ---       LVL=0

      00FF1104H   BLOCK     CODE     ---       LVL=0
      00FF1106H   BLOCK     CODE     NEAR LAB  LVL=1
      R11         REGSYM    ---      BYTE      csr
      R15         REGSYM    ---      BYTE      cnt
      ---         BLOCKEND  ---      ---       LVL=1
      00FF1104H   LINE      CODE     ---       #285
      00FF1106H   LINE      CODE     ---       #286
      00FF1106H   LINE      CODE     ---       #290
      00FF110DH   LINE      CODE     ---       #291
      00FF1112H   LINE      CODE     ---       #292
      00FF1115H   LINE      CODE     ---       #294
      00FF1126H   LINE      CODE     ---       #295
      00FF1131H   LINE      CODE     ---       #296
      00FF113DH   LINE      CODE     ---       #297
      00FF1149H   LINE      CODE     ---       #298
      00FF1151H   LINE      CODE     ---       #300
      00FF1159H   LINE      CODE     ---       #301
      00FF115EH   LINE      CODE     ---       #302
      00FF1160H   LINE      CODE     ---       #305
      00FF1168H   LINE      CODE     ---       #306
      00FF1168H   LINE      CODE     ---       #307
L251 LINKER/LOCATER V4.66.93.0                                                        06/20/2023  10:07:46  PAGE 23


      ---         BLOCKEND  ---      ---       LVL=0

      00FF1586H   BLOCK     CODE     ---       LVL=0
      R11         REGSYM    ---      BYTE      csr
      R7          REGSYM    ---      BYTE      cnt
      00FF1586H   LINE      CODE     ---       #309
      00FF1586H   LINE      CODE     ---       #310
      00FF1586H   LINE      CODE     ---       #314
      00FF158DH   LINE      CODE     ---       #315
      00FF1592H   LINE      CODE     ---       #316
      00FF1595H   LINE      CODE     ---       #318
      00FF159EH   LINE      CODE     ---       #319
      00FF15AAH   LINE      CODE     ---       #320
      00FF15B4H   LINE      CODE     ---       #321
      00FF15BCH   LINE      CODE     ---       #323
      00FF15C4H   LINE      CODE     ---       #324
      00FF15C9H   LINE      CODE     ---       #325
      00FF15CAH   LINE      CODE     ---       #328
      00FF15D2H   LINE      CODE     ---       #329
      00FF15D2H   LINE      CODE     ---       #330
      ---         BLOCKEND  ---      ---       LVL=0

      00FF22D7H   BLOCK     CODE     ---       LVL=0
      REG=0       REGSYM    ---      ---       pData
      R7          REGSYM    ---      BYTE      bSize
      R10         REGSYM    ---      BYTE      ep
      00FF22D7H   LINE      CODE     ---       #332
      00FF22DBH   LINE      CODE     ---       #334
      00FF22E4H   LINE      CODE     ---       #335
      ---         BLOCKEND  ---      ---       LVL=0

      00FF20C0H   BLOCK     CODE     ---       LVL=0
      REG=0       REGSYM    ---      ---       pData
      R7          REGSYM    ---      BYTE      ep
      00FF20C2H   BLOCK     CODE     NEAR LAB  LVL=1
      R15         REGSYM    ---      BYTE      cnt
      ---         BLOCKEND  ---      ---       LVL=1
      00FF20C0H   LINE      CODE     ---       #338
      00FF20C2H   LINE      CODE     ---       #339
      00FF20C2H   LINE      CODE     ---       #342
      00FF20CDH   LINE      CODE     ---       #343
      00FF20D4H   LINE      CODE     ---       #345
      00FF20D6H   LINE      CODE     ---       #346
      ---         BLOCKEND  ---      ---       LVL=0

      00FF1C47H   BLOCK     CODE     ---       LVL=0
      00FF1C49H   BLOCK     CODE     NEAR LAB  LVL=1
      R15         REGSYM    ---      BYTE      csr
      ---         BLOCKEND  ---      ---       LVL=1
      00FF1C47H   LINE      CODE     ---       #349
      00FF1C49H   LINE      CODE     ---       #350
      00FF1C49H   LINE      CODE     ---       #353
      00FF1C51H   LINE      CODE     ---       #354
      00FF1C58H   LINE      CODE     ---       #355
      00FF1C5BH   LINE      CODE     ---       #357
      00FF1C63H   LINE      CODE     ---       #358
      00FF1C63H   LINE      CODE     ---       #359
      00FF1C68H   LINE      CODE     ---       #361
      00FF1C6FH   LINE      CODE     ---       #362
      00FF1C6FH   LINE      CODE     ---       #364
      00FF1C71H   LINE      CODE     ---       #365
      ---         BLOCKEND  ---      ---       LVL=0

      00FF1CCEH   BLOCK     CODE     ---       LVL=0
      00FF1CD0H   BLOCK     CODE     NEAR LAB  LVL=1
L251 LINKER/LOCATER V4.66.93.0                                                        06/20/2023  10:07:46  PAGE 24


      R15         REGSYM    ---      BYTE      csr
      ---         BLOCKEND  ---      ---       LVL=1
      00FF1CCEH   LINE      CODE     ---       #369
      00FF1CD0H   LINE      CODE     ---       #370
      00FF1CD0H   LINE      CODE     ---       #373
      00FF1CD8H   LINE      CODE     ---       #374
      00FF1CDFH   LINE      CODE     ---       #375
      00FF1CE2H   LINE      CODE     ---       #377
      00FF1CEAH   LINE      CODE     ---       #378
      00FF1CEAH   LINE      CODE     ---       #379
      00FF1CEFH   LINE      CODE     ---       #381
      00FF1CF6H   LINE      CODE     ---       #382
      ---         BLOCKEND  ---      ---       LVL=0

      00FF096FH   BLOCK     CODE     ---       LVL=0
      00FF0971H   BLOCK     CODE     NEAR LAB  LVL=1
      R15         REGSYM    ---      BYTE      csr
      R15         REGSYM    ---      BYTE      cnt
      ---         BLOCKEND  ---      ---       LVL=1
      00FF096FH   LINE      CODE     ---       #444
      00FF0971H   LINE      CODE     ---       #445
      00FF0971H   LINE      CODE     ---       #449
      00FF0979H   LINE      CODE     ---       #450
      00FF0980H   LINE      CODE     ---       #451
      00FF0983H   LINE      CODE     ---       #453
      00FF098BH   LINE      CODE     ---       #454
      00FF098BH   LINE      CODE     ---       #455
      00FF0993H   LINE      CODE     ---       #457
      00FF09A4H   LINE      CODE     ---       #459
      00FF09AFH   LINE      CODE     ---       #461
      00FF09B3H   LINE      CODE     ---       #463
      00FF09D7H   LINE      CODE     ---       #465
      00FF09DCH   LINE      CODE     ---       #466
      00FF09EBH   LINE      CODE     ---       #468
      00FF09F2H   LINE      CODE     ---       #470
      00FF09F5H   LINE      CODE     ---       #471
      00FF09F8H   LINE      CODE     ---       #472
      00FF0A04H   LINE      CODE     ---       #474
      00FF0A0BH   LINE      CODE     ---       #476
      00FF0A0EH   LINE      CODE     ---       #477
      00FF0A10H   LINE      CODE     ---       #480
      00FF0A1BH   LINE      CODE     ---       #481
      00FF0A1FH   LINE      CODE     ---       #483
      00FF0A24H   LINE      CODE     ---       #484
      00FF0A2EH   LINE      CODE     ---       #485
      00FF0A2EH   LINE      CODE     ---       #487
      00FF0A30H   LINE      CODE     ---       #489
      ---         BLOCKEND  ---      ---       LVL=0

      00FF1C18H   BLOCK     CODE     ---       LVL=0
      R15         REGSYM    ---      BYTE      cnt
      00FF1C18H   LINE      CODE     ---       #565
      00FF1C1CH   LINE      CODE     ---       #567
      00FF1C1FH   LINE      CODE     ---       #569
      00FF1C27H   LINE      CODE     ---       #570
      00FF1C2FH   LINE      CODE     ---       #571
      00FF1C3FH   LINE      CODE     ---       #572
      00FF1C41H   LINE      CODE     ---       #574
      00FF1C44H   LINE      CODE     ---       #575
      ---         BLOCKEND  ---      ---       LVL=0

      00FF221EH   BLOCK     CODE     ---       LVL=0
      00FF221EH   LINE      CODE     ---       #577
      00FF221EH   LINE      CODE     ---       #579
      00FF2221H   LINE      CODE     ---       #581
L251 LINKER/LOCATER V4.66.93.0                                                        06/20/2023  10:07:46  PAGE 25


      00FF2229H   LINE      CODE     ---       #582
      00FF2230H   LINE      CODE     ---       #583
      00FF2232H   LINE      CODE     ---       #585
      00FF2235H   LINE      CODE     ---       #586
      ---         BLOCKEND  ---      ---       LVL=0

      ---         MODULE    ---      ---       util
      00FF236AH   PUBLIC    CODE     ---       LCD12864_DisplayClear
      00FF19FDH   PUBLIC    CODE     ---       OLED12864_ScrollRight
      00FF20D9H   PUBLIC    CODE     ---       OLED12864_DisplayOff
      00FF1A71H   PUBLIC    CODE     ---       OLED12864_ScrollLeft
      00FF1E4FH   PUBLIC    CODE     ---       OLED12864_SetAddressMode
      00FF1E70H   PUBLIC    CODE     ---       OLED12864_SetContrast
      00FF210BH   PUBLIC    CODE     ---       LCD12864_AutoWrapOff
      00FF188EH   PUBLIC    CODE     ---       OLED12864_ShowPicture
      00FF1FBCH   PUBLIC    CODE     ---       OLED12864_ScrollStart
      00FF1B81H   PUBLIC    CODE     ---       SEG7_ShowFloat
      00FF161DH   PUBLIC    CODE     ---       SEG7_ShowString
      00FF1AE2H   PUBLIC    CODE     ---       SEG7_ShowCode
      00FF16AEH   PUBLIC    CODE     ---       LED40_SendData
      00FF1FD6H   PUBLIC    CODE     ---       OLED12864_DisplayOn
      00FF1E91H   PUBLIC    CODE     ---       LCD12864_ReverseLine
      00FF2124H   PUBLIC    CODE     ---       OLED12864_ScrollStop
      00FF16F5H   PUBLIC    CODE     ---       LED64_SendData
      00FF1C74H   PUBLIC    CODE     ---       printf_hid
      00FF1949H   PUBLIC    CODE     ---       SEG7_ShowLong
      00FF1FF0H   PUBLIC    CODE     ---       LCD12864_ScrollRight
      00FF200AH   PUBLIC    CODE     ---       LCD12864_AutoWrapOn
      00FF213DH   PUBLIC    CODE     ---       LCD12864_DisplayOff
      00FF1B17H   PUBLIC    CODE     ---       reverse2
      00FF116BH   PUBLIC    CODE     ---       reverse4
      00FF216FH   PUBLIC    CODE     ---       LCD12864_ScrollLeft
      00FF2188H   PUBLIC    CODE     ---       OLED12864_HorizontalMirror
      00FF14E8H   PUBLIC    CODE     ---       LCD12864_ShowPicture
      00FF1A37H   PUBLIC    CODE     ---       OLED12864_ScrollUp
      00FF21A1H   PUBLIC    CODE     ---       OLED12864_DisplayContent
      00FF237EH   PUBLIC    CODE     ---       OLED12864_DisplayReverse
      00FF2024H   PUBLIC    CODE     ---       OLED12864_VerticalMirror
      00FF203EH   PUBLIC    CODE     ---       LCD12864_CursorReturnHome
      00FF2058H   PUBLIC    CODE     ---       OLED12864_DisplayEntire
      00FF2072H   PUBLIC    CODE     ---       LCD12864_DisplayOn
      00FF208CH   PUBLIC    CODE     ---       LCD12864_CursorMoveRight
      00FF1986H   PUBLIC    CODE     ---       LCD12864_ShowString
      00FF21BAH   PUBLIC    CODE     ---       LCD12864_CursorOff
      00FF2236H   PUBLIC    CODE     ---       sleep_ms
      00FF21D3H   PUBLIC    CODE     ---       LCD12864_CursorMoveLeft
      00FF1F4CH   PUBLIC    CODE     ---       sleep_us
      00FF1D72H   PUBLIC    CODE     ---       LCD12864_ScrollUp
      00FF20A6H   PUBLIC    CODE     ---       LCD12864_CursorOn
      000000AFH   PUBLIC    EDATA    BYTE      ?SEG7_ShowString?BYTE
      0000004DH   PUBLIC    EDATA    BYTE      ?printf_hid?BYTE
      000000D0H   SFRSYM    DATA     BYTE      PSW
      0000009DH   SFRSYM    DATA     BYTE      IRCBAND
      00000097H   SFRSYM    DATA     BYTE      AUXR2
      000000EFH   SFRSYM    DATA     BYTE      AUXINTIF
      000000FDH   SFRSYM    DATA     BYTE      S4CON
      000000ACH   SFRSYM    DATA     BYTE      S3CON
      0000009AH   SFRSYM    DATA     BYTE      S2CON
      000000B7H   SFRSYM    DATA     BYTE      IPH
      000000CDH   SFRSYM    DATA     BYTE      SPSTAT
      000000DDH   SFRSYM    DATA     BYTE      T4T3M
      000000C1H   SFRSYM    DATA     BYTE      WDT_CONTR
      000000DFH   SFRSYM    DATA     BYTE      IP3
      000000F4H   SFRSYM    DATA     BYTE      USBCON
      000000B5H   SFRSYM    DATA     BYTE      IP2
L251 LINKER/LOCATER V4.66.93.0                                                        06/20/2023  10:07:46  PAGE 26


      000000FFH   SFRSYM    DATA     BYTE      RSTCFG
      000000F9H   SFRSYM    DATA     BYTE      LINICR
      0000008EH   SFRSYM    DATA     BYTE      AUXR
      000000AFH   SFRSYM    DATA     BYTE      IE2
      00000088H   SFRSYM    DATA     BYTE      TCON
      00000098H   SFRSYM    DATA     BYTE      SCON
      000000F1H   SFRSYM    DATA     BYTE      CANICR
      00000087H   SFRSYM    DATA     BYTE      PCON
      000000BCH   SFRSYM    DATA     BYTE      ADC_CONTR
      000000E7H   SFRSYM    DATA     BYTE      CMPCR2
      000000E6H   SFRSYM    DATA     BYTE      CMPCR1
      000000B8H   SFRSYM    DATA     BYTE      IP
      0000008FH   SFRSYM    DATA     BYTE      INTCLKO
      000000EEH   SFRSYM    DATA     BYTE      IP3H
      000000B6H   SFRSYM    DATA     BYTE      IP2H
      000000A8H   SFRSYM    DATA     BYTE      IE
      000000BBH   SFRSYM    DATA     BYTE      P_SW3
      000000BAH   SFRSYM    DATA     BYTE      P_SW2
      000000A2H   SFRSYM    DATA     BYTE      P_SW1
      000000CEH   SFRSYM    DATA     BYTE      SPCTL
      000000F8H   SFRSYM    DATA     BYTE      P7
      000000E8H   SFRSYM    DATA     BYTE      P6
      000000C8H   SFRSYM    DATA     BYTE      P5
      000000C0H   SFRSYM    DATA     BYTE      P4
      000000B0H   SFRSYM    DATA     BYTE      P3
      000000A0H   SFRSYM    DATA     BYTE      P2
      00000090H   SFRSYM    DATA     BYTE      P1
      00000080H   SFRSYM    DATA     BYTE      P0
      00FF20F2H   SYMBOL    CODE     ---       OLED12864_SetHeader
      00FF0CAFH   SYMBOL    CODE     ---       OLED12864_SetBuffer
      00FF2156H   SYMBOL    CODE     ---       LCD12864_SetHeader
      00FF0D47H   SYMBOL    CODE     ---       LCD12864_SetBuffer
      00FF21ECH   SYMBOL    CODE     ---       SEG7_SetHeader

      00FF116BH   BLOCK     CODE     ---       LVL=0
      000000C1H   SYMBOL    EDATA    DWORD     d
      00FF116FH   BLOCK     CODE     NEAR LAB  LVL=1
      000000C5H   SYMBOL    EDATA    DWORD     ret
      ---         BLOCKEND  ---      ---       LVL=1
      00FF116BH   LINE      CODE     ---       #17
      00FF116FH   LINE      CODE     ---       #18
      00FF116FH   LINE      CODE     ---       #21
      00FF1185H   LINE      CODE     ---       #22
      00FF119BH   LINE      CODE     ---       #23
      00FF11B1H   LINE      CODE     ---       #24
      00FF11C7H   LINE      CODE     ---       #26
      00FF11CBH   LINE      CODE     ---       #27
      ---         BLOCKEND  ---      ---       LVL=0

      00FF1B17H   BLOCK     CODE     ---       LVL=0
      00000021H   SYMBOL    EDATA    WORD      w
      00FF1B1BH   BLOCK     CODE     NEAR LAB  LVL=1
      00000023H   SYMBOL    EDATA    WORD      ret
      ---         BLOCKEND  ---      ---       LVL=1
      00FF1B17H   LINE      CODE     ---       #29
      00FF1B1BH   LINE      CODE     ---       #30
      00FF1B1BH   LINE      CODE     ---       #33
      00FF1B31H   LINE      CODE     ---       #34
      00FF1B47H   LINE      CODE     ---       #36
      00FF1B4BH   LINE      CODE     ---       #37
      ---         BLOCKEND  ---      ---       LVL=0

      00FF1F4CH   BLOCK     CODE     ---       LVL=0
      WR6         REGSYM    ---      WORD      n
      00FF1F4CH   LINE      CODE     ---       #39
L251 LINKER/LOCATER V4.66.93.0                                                        06/20/2023  10:07:46  PAGE 27


      00FF1F4CH   LINE      CODE     ---       #41
      00FF1F4EH   LINE      CODE     ---       #50
      00FF1F4FH   LINE      CODE     ---       #51
      00FF1F50H   LINE      CODE     ---       #52
      00FF1F51H   LINE      CODE     ---       #53
      00FF1F52H   LINE      CODE     ---       #55
      00FF1F53H   LINE      CODE     ---       #56
      00FF1F54H   LINE      CODE     ---       #57
      00FF1F55H   LINE      CODE     ---       #58
      00FF1F56H   LINE      CODE     ---       #59
      00FF1F57H   LINE      CODE     ---       #61
      00FF1F58H   LINE      CODE     ---       #62
      00FF1F59H   LINE      CODE     ---       #63
      00FF1F5AH   LINE      CODE     ---       #64
      00FF1F5BH   LINE      CODE     ---       #65
      00FF1F5CH   LINE      CODE     ---       #67
      00FF1F5DH   LINE      CODE     ---       #68
      00FF1F5EH   LINE      CODE     ---       #69
      00FF1F5FH   LINE      CODE     ---       #70
      00FF1F60H   LINE      CODE     ---       #71
      00FF1F68H   LINE      CODE     ---       #72
      ---         BLOCKEND  ---      ---       LVL=0

      00FF2236H   BLOCK     CODE     ---       LVL=0
      WR14        REGSYM    ---      WORD      n
      00FF2236H   LINE      CODE     ---       #74
      00FF223AH   LINE      CODE     ---       #76
      00FF224BH   LINE      CODE     ---       #78
      ---         BLOCKEND  ---      ---       LVL=0

      00FF21ECH   BLOCK     CODE     ---       LVL=0
      00FF21ECH   LINE      CODE     ---       #80
      00FF21ECH   LINE      CODE     ---       #82
      00FF21F2H   LINE      CODE     ---       #83
      00FF21F8H   LINE      CODE     ---       #84
      00FF21FEH   LINE      CODE     ---       #85
      00FF2204H   LINE      CODE     ---       #86
      ---         BLOCKEND  ---      ---       LVL=0

      00FF1949H   BLOCK     CODE     ---       LVL=0
      0000001CH   SYMBOL    EDATA    LONG      n
      R15         REGSYM    ---      CHAR      radix
      00FF1949H   LINE      CODE     ---       #88
      00FF1951H   LINE      CODE     ---       #90
      00FF1954H   LINE      CODE     ---       #91
      00FF195AH   LINE      CODE     ---       #92
      00FF1960H   LINE      CODE     ---       #93
      00FF1966H   LINE      CODE     ---       #94
      00FF196BH   LINE      CODE     ---       #95
      00FF197EH   LINE      CODE     ---       #97
      00FF1983H   LINE      CODE     ---       #98
      ---         BLOCKEND  ---      ---       LVL=0

      00FF1B81H   BLOCK     CODE     ---       LVL=0
      DR12        REGSYM    ---      FLOAT     f
      00FF1B81H   LINE      CODE     ---       #100
      00FF1B85H   LINE      CODE     ---       #102
      00FF1B88H   LINE      CODE     ---       #103
      00FF1B8EH   LINE      CODE     ---       #104
      00FF1B94H   LINE      CODE     ---       #105
      00FF1B99H   LINE      CODE     ---       #106
      00FF1B9DH   LINE      CODE     ---       #107
      00FF1BACH   LINE      CODE     ---       #109
      00FF1BB1H   LINE      CODE     ---       #110
      ---         BLOCKEND  ---      ---       LVL=0
L251 LINKER/LOCATER V4.66.93.0                                                        06/20/2023  10:07:46  PAGE 28



      00FF1AE2H   BLOCK     CODE     ---       LVL=0
      REG=3       REGSYM    ---      ---       cod
      00FF1AE2H   LINE      CODE     ---       #112
      00FF1AE4H   LINE      CODE     ---       #114
      00FF1AE7H   LINE      CODE     ---       #115
      00FF1AEDH   LINE      CODE     ---       #116
      00FF1AF2H   LINE      CODE     ---       #117
      00FF1AF6H   LINE      CODE     ---       #118
      00FF1AFAH   LINE      CODE     ---       #119
      00FF1B0FH   LINE      CODE     ---       #121
      00FF1B14H   LINE      CODE     ---       #122
      ---         BLOCKEND  ---      ---       LVL=0

      00FF161DH   BLOCK     CODE     ---       LVL=0
      000000AFH   SYMBOL    EDATA    ---       fmt
      00FF1623H   BLOCK     CODE     NEAR LAB  LVL=1
      REG=1       REGSYM    ---      ---       va
      WR14        REGSYM    ---      INT       ret
      ---         BLOCKEND  ---      ---       LVL=1
      00FF161DH   LINE      CODE     ---       #124
      00FF1623H   LINE      CODE     ---       #125
      00FF1623H   LINE      CODE     ---       #129
      00FF1626H   LINE      CODE     ---       #130
      00FF162CH   LINE      CODE     ---       #131
      00FF1631H   LINE      CODE     ---       #132
      00FF1635H   LINE      CODE     ---       #133
      00FF1639H   LINE      CODE     ---       #135
      00FF1641H   LINE      CODE     ---       #136
      00FF165AH   LINE      CODE     ---       #139
      00FF1661H   LINE      CODE     ---       #141
      00FF1663H   LINE      CODE     ---       #142
      ---         BLOCKEND  ---      ---       LVL=0

      00FF1C74H   BLOCK     CODE     ---       LVL=0
      0000004DH   SYMBOL    EDATA    ---       fmt
      00FF1C7AH   BLOCK     CODE     NEAR LAB  LVL=1
      REG=1       REGSYM    ---      ---       va
      WR14        REGSYM    ---      INT       ret
      ---         BLOCKEND  ---      ---       LVL=1
      00FF1C74H   LINE      CODE     ---       #144
      00FF1C7AH   LINE      CODE     ---       #145
      00FF1C7AH   LINE      CODE     ---       #149
      00FF1C82H   LINE      CODE     ---       #150
      00FF1C97H   LINE      CODE     ---       #153
      00FF1C9CH   LINE      CODE     ---       #155
      00FF1C9EH   LINE      CODE     ---       #156
      ---         BLOCKEND  ---      ---       LVL=0

      00FF16AEH   BLOCK     CODE     ---       LVL=0
      REG=0       REGSYM    ---      ---       dat
      R15         REGSYM    ---      BYTE      size
      00FF16AEH   LINE      CODE     ---       #158
      00FF16B2H   LINE      CODE     ---       #160
      00FF16B7H   LINE      CODE     ---       #161
      00FF16BAH   LINE      CODE     ---       #163
      00FF16C0H   LINE      CODE     ---       #164
      00FF16C6H   LINE      CODE     ---       #165
      00FF16CCH   LINE      CODE     ---       #166
      00FF16D2H   LINE      CODE     ---       #167
      00FF16D8H   LINE      CODE     ---       #168
      00FF16EBH   LINE      CODE     ---       #170
      00FF16F2H   LINE      CODE     ---       #171
      ---         BLOCKEND  ---      ---       LVL=0

L251 LINKER/LOCATER V4.66.93.0                                                        06/20/2023  10:07:46  PAGE 29


      00FF16F5H   BLOCK     CODE     ---       LVL=0
      REG=0       REGSYM    ---      ---       dat
      R15         REGSYM    ---      BYTE      size
      00FF16F5H   LINE      CODE     ---       #173
      00FF16F9H   LINE      CODE     ---       #175
      00FF16FEH   LINE      CODE     ---       #176
      00FF1701H   LINE      CODE     ---       #178
      00FF1707H   LINE      CODE     ---       #179
      00FF170DH   LINE      CODE     ---       #180
      00FF1713H   LINE      CODE     ---       #181
      00FF1719H   LINE      CODE     ---       #182
      00FF171FH   LINE      CODE     ---       #183
      00FF1732H   LINE      CODE     ---       #185
      00FF1739H   LINE      CODE     ---       #186
      ---         BLOCKEND  ---      ---       LVL=0

      00FF2156H   BLOCK     CODE     ---       LVL=0
      00FF2156H   LINE      CODE     ---       #188
      00FF2156H   LINE      CODE     ---       #190
      00FF215CH   LINE      CODE     ---       #191
      00FF2162H   LINE      CODE     ---       #192
      00FF2168H   LINE      CODE     ---       #193
      00FF216EH   LINE      CODE     ---       #194
      ---         BLOCKEND  ---      ---       LVL=0

      00FF213DH   BLOCK     CODE     ---       LVL=0
      00FF213DH   LINE      CODE     ---       #196
      00FF213DH   LINE      CODE     ---       #198
      00FF2140H   LINE      CODE     ---       #199
      00FF2146H   LINE      CODE     ---       #200
      00FF214CH   LINE      CODE     ---       #201
      00FF2151H   LINE      CODE     ---       #203
      ---         BLOCKEND  ---      ---       LVL=0

      00FF2072H   BLOCK     CODE     ---       LVL=0
      00FF2072H   LINE      CODE     ---       #206
      00FF2072H   LINE      CODE     ---       #208
      00FF2075H   LINE      CODE     ---       #209
      00FF207BH   LINE      CODE     ---       #210
      00FF2081H   LINE      CODE     ---       #211
      00FF2087H   LINE      CODE     ---       #213
      ---         BLOCKEND  ---      ---       LVL=0

      00FF21BAH   BLOCK     CODE     ---       LVL=0
      00FF21BAH   LINE      CODE     ---       #216
      00FF21BAH   LINE      CODE     ---       #218
      00FF21BDH   LINE      CODE     ---       #219
      00FF21C3H   LINE      CODE     ---       #220
      00FF21C9H   LINE      CODE     ---       #221
      00FF21CEH   LINE      CODE     ---       #223
      ---         BLOCKEND  ---      ---       LVL=0

      00FF20A6H   BLOCK     CODE     ---       LVL=0
      00FF20A6H   LINE      CODE     ---       #226
      00FF20A6H   LINE      CODE     ---       #228
      00FF20A9H   LINE      CODE     ---       #229
      00FF20AFH   LINE      CODE     ---       #230
      00FF20B5H   LINE      CODE     ---       #231
      00FF20BBH   LINE      CODE     ---       #233
      ---         BLOCKEND  ---      ---       LVL=0

      00FF21D3H   BLOCK     CODE     ---       LVL=0
      00FF21D3H   LINE      CODE     ---       #236
      00FF21D3H   LINE      CODE     ---       #238
      00FF21D6H   LINE      CODE     ---       #239
L251 LINKER/LOCATER V4.66.93.0                                                        06/20/2023  10:07:46  PAGE 30


      00FF21DCH   LINE      CODE     ---       #240
      00FF21E2H   LINE      CODE     ---       #241
      00FF21E7H   LINE      CODE     ---       #243
      ---         BLOCKEND  ---      ---       LVL=0

      00FF208CH   BLOCK     CODE     ---       LVL=0
      00FF208CH   LINE      CODE     ---       #246
      00FF208CH   LINE      CODE     ---       #248
      00FF208FH   LINE      CODE     ---       #249
      00FF2095H   LINE      CODE     ---       #250
      00FF209BH   LINE      CODE     ---       #251
      00FF20A1H   LINE      CODE     ---       #253
      ---         BLOCKEND  ---      ---       LVL=0

      00FF203EH   BLOCK     CODE     ---       LVL=0
      00FF203EH   LINE      CODE     ---       #256
      00FF203EH   LINE      CODE     ---       #258
      00FF2041H   LINE      CODE     ---       #259
      00FF2047H   LINE      CODE     ---       #260
      00FF204DH   LINE      CODE     ---       #261
      00FF2053H   LINE      CODE     ---       #263
      ---         BLOCKEND  ---      ---       LVL=0

      00FF216FH   BLOCK     CODE     ---       LVL=0
      00FF216FH   LINE      CODE     ---       #266
      00FF216FH   LINE      CODE     ---       #268
      00FF2172H   LINE      CODE     ---       #269
      00FF2178H   LINE      CODE     ---       #270
      00FF217EH   LINE      CODE     ---       #271
      00FF2183H   LINE      CODE     ---       #273
      ---         BLOCKEND  ---      ---       LVL=0

      00FF1FF0H   BLOCK     CODE     ---       LVL=0
      00FF1FF0H   LINE      CODE     ---       #276
      00FF1FF0H   LINE      CODE     ---       #278
      00FF1FF3H   LINE      CODE     ---       #279
      00FF1FF9H   LINE      CODE     ---       #280
      00FF1FFFH   LINE      CODE     ---       #281
      00FF2005H   LINE      CODE     ---       #283
      ---         BLOCKEND  ---      ---       LVL=0

      00FF1D72H   BLOCK     CODE     ---       LVL=0
      R15         REGSYM    ---      BYTE      line
      00FF1D72H   LINE      CODE     ---       #286
      00FF1D76H   LINE      CODE     ---       #288
      00FF1D79H   LINE      CODE     ---       #289
      00FF1D7FH   LINE      CODE     ---       #290
      00FF1D85H   LINE      CODE     ---       #291
      00FF1D8BH   LINE      CODE     ---       #292
      00FF1D91H   LINE      CODE     ---       #294
      00FF1D96H   LINE      CODE     ---       #295
      ---         BLOCKEND  ---      ---       LVL=0

      00FF210BH   BLOCK     CODE     ---       LVL=0
      00FF210BH   LINE      CODE     ---       #297
      00FF210BH   LINE      CODE     ---       #299
      00FF210EH   LINE      CODE     ---       #300
      00FF2114H   LINE      CODE     ---       #301
      00FF211AH   LINE      CODE     ---       #302
      00FF211FH   LINE      CODE     ---       #304
      ---         BLOCKEND  ---      ---       LVL=0

      00FF200AH   BLOCK     CODE     ---       LVL=0
      00FF200AH   LINE      CODE     ---       #307
      00FF200AH   LINE      CODE     ---       #309
L251 LINKER/LOCATER V4.66.93.0                                                        06/20/2023  10:07:46  PAGE 31


      00FF200DH   LINE      CODE     ---       #310
      00FF2013H   LINE      CODE     ---       #311
      00FF2019H   LINE      CODE     ---       #312
      00FF201FH   LINE      CODE     ---       #314
      ---         BLOCKEND  ---      ---       LVL=0

      00FF1E91H   BLOCK     CODE     ---       LVL=0
      R15         REGSYM    ---      BYTE      line
      00FF1E91H   LINE      CODE     ---       #317
      00FF1E95H   LINE      CODE     ---       #319
      00FF1E98H   LINE      CODE     ---       #320
      00FF1E9EH   LINE      CODE     ---       #321
      00FF1EA4H   LINE      CODE     ---       #322
      00FF1EAAH   LINE      CODE     ---       #324
      00FF1EAFH   LINE      CODE     ---       #325
      ---         BLOCKEND  ---      ---       LVL=0

      00FF236AH   BLOCK     CODE     ---       LVL=0
      00FF236AH   LINE      CODE     ---       #327
      00FF236AH   LINE      CODE     ---       #329
      00FF236DH   LINE      CODE     ---       #330
      00FF2373H   LINE      CODE     ---       #331
      00FF2379H   LINE      CODE     ---       #333
      ---         BLOCKEND  ---      ---       LVL=0

      00FF0D47H   BLOCK     CODE     ---       LVL=0
      REG=3       REGSYM    ---      ---       dat
      000000D0H   SYMBOL    EDATA    WORD      size
      00FF0D4FH   BLOCK     CODE     NEAR LAB  LVL=1
      000000D2H   SYMBOL    EDATA    BYTE      cnt
      000000D3H   SYMBOL    EDATA    WORD      addr
      ---         BLOCKEND  ---      ---       LVL=1
      00FF0D47H   LINE      CODE     ---       #336
      00FF0D4FH   LINE      CODE     ---       #337
      00FF0D4FH   LINE      CODE     ---       #341
      00FF0D55H   LINE      CODE     ---       #342
      00FF0D57H   LINE      CODE     ---       #344
      00FF0D5DH   LINE      CODE     ---       #345
      00FF0D67H   LINE      CODE     ---       #346
      00FF0D6BH   LINE      CODE     ---       #348
      00FF0D6EH   LINE      CODE     ---       #349
      00FF0D7CH   LINE      CODE     ---       #350
      00FF0D82H   LINE      CODE     ---       #351
      00FF0D91H   LINE      CODE     ---       #352
      00FF0DA8H   LINE      CODE     ---       #354
      00FF0DB1H   LINE      CODE     ---       #356
      00FF0DB9H   LINE      CODE     ---       #357
      00FF0DC7H   LINE      CODE     ---       #358
      00FF0DD1H   LINE      CODE     ---       #359
      00FF0DDCH   LINE      CODE     ---       #360
      ---         BLOCKEND  ---      ---       LVL=0

      00FF1986H   BLOCK     CODE     ---       LVL=0
      000000E7H   SYMBOL    EDATA    BYTE      x
      000000E8H   SYMBOL    EDATA    BYTE      y
      REG=3       REGSYM    ---      ---       str
      00FF1986H   LINE      CODE     ---       #362
      00FF1992H   LINE      CODE     ---       #364
      00FF199CH   LINE      CODE     ---       #366
      00FF199FH   LINE      CODE     ---       #367
      00FF19A5H   LINE      CODE     ---       #368
      00FF19ABH   LINE      CODE     ---       #369
      00FF19B3H   LINE      CODE     ---       #370
      00FF19BBH   LINE      CODE     ---       #372
      00FF19C0H   LINE      CODE     ---       #373
L251 LINKER/LOCATER V4.66.93.0                                                        06/20/2023  10:07:46  PAGE 32


      ---         BLOCKEND  ---      ---       LVL=0

      00FF14E8H   BLOCK     CODE     ---       LVL=0
      R12         REGSYM    ---      BYTE      x
      R13         REGSYM    ---      BYTE      y
      R14         REGSYM    ---      BYTE      cx
      R15         REGSYM    ---      BYTE      cy
      REG=7       REGSYM    ---      ---       dat
      00FF14E8H   LINE      CODE     ---       #375
      00FF14F4H   LINE      CODE     ---       #377
      00FF1508H   LINE      CODE     ---       #379
      00FF150BH   LINE      CODE     ---       #380
      00FF1511H   LINE      CODE     ---       #381
      00FF1517H   LINE      CODE     ---       #382
      00FF151DH   LINE      CODE     ---       #383
      00FF1523H   LINE      CODE     ---       #384
      00FF1529H   LINE      CODE     ---       #385
      00FF152FH   LINE      CODE     ---       #387
      00FF1534H   LINE      CODE     ---       #388
      ---         BLOCKEND  ---      ---       LVL=0

      00FF20F2H   BLOCK     CODE     ---       LVL=0
      00FF20F2H   LINE      CODE     ---       #390
      00FF20F2H   LINE      CODE     ---       #392
      00FF20F8H   LINE      CODE     ---       #393
      00FF20FEH   LINE      CODE     ---       #394
      00FF2104H   LINE      CODE     ---       #395
      00FF210AH   LINE      CODE     ---       #396
      ---         BLOCKEND  ---      ---       LVL=0

      00FF20D9H   BLOCK     CODE     ---       LVL=0
      00FF20D9H   LINE      CODE     ---       #398
      00FF20D9H   LINE      CODE     ---       #400
      00FF20DCH   LINE      CODE     ---       #401
      00FF20E2H   LINE      CODE     ---       #402
      00FF20E8H   LINE      CODE     ---       #403
      00FF20EDH   LINE      CODE     ---       #405
      ---         BLOCKEND  ---      ---       LVL=0

      00FF1FD6H   BLOCK     CODE     ---       LVL=0
      00FF1FD6H   LINE      CODE     ---       #408
      00FF1FD6H   LINE      CODE     ---       #410
      00FF1FD9H   LINE      CODE     ---       #411
      00FF1FDFH   LINE      CODE     ---       #412
      00FF1FE5H   LINE      CODE     ---       #413
      00FF1FEBH   LINE      CODE     ---       #415
      ---         BLOCKEND  ---      ---       LVL=0

      00FF21A1H   BLOCK     CODE     ---       LVL=0
      00FF21A1H   LINE      CODE     ---       #418
      00FF21A1H   LINE      CODE     ---       #420
      00FF21A4H   LINE      CODE     ---       #421
      00FF21AAH   LINE      CODE     ---       #422
      00FF21B0H   LINE      CODE     ---       #423
      00FF21B5H   LINE      CODE     ---       #425
      ---         BLOCKEND  ---      ---       LVL=0

      00FF2058H   BLOCK     CODE     ---       LVL=0
      00FF2058H   LINE      CODE     ---       #428
      00FF2058H   LINE      CODE     ---       #430
      00FF205BH   LINE      CODE     ---       #431
      00FF2061H   LINE      CODE     ---       #432
      00FF2067H   LINE      CODE     ---       #433
      00FF206DH   LINE      CODE     ---       #435
      ---         BLOCKEND  ---      ---       LVL=0
L251 LINKER/LOCATER V4.66.93.0                                                        06/20/2023  10:07:46  PAGE 33



      00FF2188H   BLOCK     CODE     ---       LVL=0
      00FF2188H   LINE      CODE     ---       #438
      00FF2188H   LINE      CODE     ---       #440
      00FF218BH   LINE      CODE     ---       #441
      00FF2191H   LINE      CODE     ---       #442
      00FF2197H   LINE      CODE     ---       #443
      00FF219CH   LINE      CODE     ---       #445
      ---         BLOCKEND  ---      ---       LVL=0

      00FF2024H   BLOCK     CODE     ---       LVL=0
      00FF2024H   LINE      CODE     ---       #448
      00FF2024H   LINE      CODE     ---       #450
      00FF2027H   LINE      CODE     ---       #451
      00FF202DH   LINE      CODE     ---       #452
      00FF2033H   LINE      CODE     ---       #453
      00FF2039H   LINE      CODE     ---       #455
      ---         BLOCKEND  ---      ---       LVL=0

      00FF237EH   BLOCK     CODE     ---       LVL=0
      00FF237EH   LINE      CODE     ---       #458
      00FF237EH   LINE      CODE     ---       #460
      00FF2381H   LINE      CODE     ---       #461
      00FF2387H   LINE      CODE     ---       #462
      00FF238DH   LINE      CODE     ---       #464
      ---         BLOCKEND  ---      ---       LVL=0

      00FF1E70H   BLOCK     CODE     ---       LVL=0
      R15         REGSYM    ---      BYTE      bContrast
      00FF1E70H   LINE      CODE     ---       #467
      00FF1E74H   LINE      CODE     ---       #469
      00FF1E77H   LINE      CODE     ---       #470
      00FF1E7DH   LINE      CODE     ---       #471
      00FF1E83H   LINE      CODE     ---       #472
      00FF1E89H   LINE      CODE     ---       #474
      00FF1E8EH   LINE      CODE     ---       #475
      ---         BLOCKEND  ---      ---       LVL=0

      00FF1E4FH   BLOCK     CODE     ---       LVL=0
      R15         REGSYM    ---      BYTE      bMode
      00FF1E4FH   LINE      CODE     ---       #477
      00FF1E53H   LINE      CODE     ---       #479
      00FF1E56H   LINE      CODE     ---       #480
      00FF1E5CH   LINE      CODE     ---       #481
      00FF1E62H   LINE      CODE     ---       #482
      00FF1E68H   LINE      CODE     ---       #484
      00FF1E6DH   LINE      CODE     ---       #485
      ---         BLOCKEND  ---      ---       LVL=0

      00FF1A71H   BLOCK     CODE     ---       LVL=0
      R12         REGSYM    ---      BYTE      bPageStart
      R13         REGSYM    ---      BYTE      bPageEnd
      WR14        REGSYM    ---      WORD      nInterval
      00FF1A71H   LINE      CODE     ---       #487
      00FF1A77H   LINE      CODE     ---       #489
      00FF1A7AH   LINE      CODE     ---       #490
      00FF1A80H   LINE      CODE     ---       #491
      00FF1A86H   LINE      CODE     ---       #492
      00FF1A8BH   LINE      CODE     ---       #493
      00FF1A91H   LINE      CODE     ---       #494
      00FF1A97H   LINE      CODE     ---       #495
      00FF1AA2H   LINE      CODE     ---       #497
      00FF1AA7H   LINE      CODE     ---       #498
      ---         BLOCKEND  ---      ---       LVL=0

L251 LINKER/LOCATER V4.66.93.0                                                        06/20/2023  10:07:46  PAGE 34


      00FF19FDH   BLOCK     CODE     ---       LVL=0
      R12         REGSYM    ---      BYTE      bPageStart
      R13         REGSYM    ---      BYTE      bPageEnd
      WR14        REGSYM    ---      WORD      nInterval
      00FF19FDH   LINE      CODE     ---       #500
      00FF1A03H   LINE      CODE     ---       #502
      00FF1A06H   LINE      CODE     ---       #503
      00FF1A0CH   LINE      CODE     ---       #504
      00FF1A12H   LINE      CODE     ---       #505
      00FF1A18H   LINE      CODE     ---       #506
      00FF1A1EH   LINE      CODE     ---       #507
      00FF1A24H   LINE      CODE     ---       #508
      00FF1A2FH   LINE      CODE     ---       #510
      00FF1A34H   LINE      CODE     ---       #511
      ---         BLOCKEND  ---      ---       LVL=0

      00FF1A37H   BLOCK     CODE     ---       LVL=0
      R12         REGSYM    ---      BYTE      bPageStart
      R13         REGSYM    ---      BYTE      bPageEnd
      WR14        REGSYM    ---      WORD      nInterval
      00FF1A37H   LINE      CODE     ---       #513
      00FF1A3DH   LINE      CODE     ---       #515
      00FF1A40H   LINE      CODE     ---       #516
      00FF1A46H   LINE      CODE     ---       #517
      00FF1A4CH   LINE      CODE     ---       #518
      00FF1A52H   LINE      CODE     ---       #519
      00FF1A58H   LINE      CODE     ---       #520
      00FF1A5EH   LINE      CODE     ---       #521
      00FF1A69H   LINE      CODE     ---       #523
      00FF1A6EH   LINE      CODE     ---       #524
      ---         BLOCKEND  ---      ---       LVL=0

      00FF1FBCH   BLOCK     CODE     ---       LVL=0
      00FF1FBCH   LINE      CODE     ---       #526
      00FF1FBCH   LINE      CODE     ---       #528
      00FF1FBFH   LINE      CODE     ---       #529
      00FF1FC5H   LINE      CODE     ---       #530
      00FF1FCBH   LINE      CODE     ---       #531
      00FF1FD1H   LINE      CODE     ---       #533
      ---         BLOCKEND  ---      ---       LVL=0

      00FF2124H   BLOCK     CODE     ---       LVL=0
      00FF2124H   LINE      CODE     ---       #536
      00FF2124H   LINE      CODE     ---       #538
      00FF2127H   LINE      CODE     ---       #539
      00FF212DH   LINE      CODE     ---       #540
      00FF2133H   LINE      CODE     ---       #541
      00FF2138H   LINE      CODE     ---       #543
      ---         BLOCKEND  ---      ---       LVL=0

      00FF0CAFH   BLOCK     CODE     ---       LVL=0
      REG=3       REGSYM    ---      ---       dat
      000000D5H   SYMBOL    EDATA    WORD      size
      00FF0CB7H   BLOCK     CODE     NEAR LAB  LVL=1
      000000D7H   SYMBOL    EDATA    BYTE      cnt
      000000D8H   SYMBOL    EDATA    WORD      addr
      ---         BLOCKEND  ---      ---       LVL=1
      00FF0CAFH   LINE      CODE     ---       #546
      00FF0CB7H   LINE      CODE     ---       #547
      00FF0CB7H   LINE      CODE     ---       #551
      00FF0CBDH   LINE      CODE     ---       #552
      00FF0CBFH   LINE      CODE     ---       #554
      00FF0CC5H   LINE      CODE     ---       #555
      00FF0CCFH   LINE      CODE     ---       #556
      00FF0CD3H   LINE      CODE     ---       #558
L251 LINKER/LOCATER V4.66.93.0                                                        06/20/2023  10:07:46  PAGE 35


      00FF0CD6H   LINE      CODE     ---       #559
      00FF0CE4H   LINE      CODE     ---       #560
      00FF0CEAH   LINE      CODE     ---       #561
      00FF0CF9H   LINE      CODE     ---       #562
      00FF0D10H   LINE      CODE     ---       #564
      00FF0D19H   LINE      CODE     ---       #566
      00FF0D21H   LINE      CODE     ---       #567
      00FF0D2FH   LINE      CODE     ---       #568
      00FF0D39H   LINE      CODE     ---       #569
      00FF0D44H   LINE      CODE     ---       #570
      ---         BLOCKEND  ---      ---       LVL=0

      00FF188EH   BLOCK     CODE     ---       LVL=0
      R12         REGSYM    ---      BYTE      x
      R13         REGSYM    ---      BYTE      y
      R14         REGSYM    ---      BYTE      cx
      R15         REGSYM    ---      BYTE      cy
      REG=7       REGSYM    ---      ---       dat
      00FF188EH   LINE      CODE     ---       #572
      00FF1898H   LINE      CODE     ---       #574
      00FF189FH   LINE      CODE     ---       #576
      00FF18A2H   LINE      CODE     ---       #577
      00FF18A8H   LINE      CODE     ---       #578
      00FF18AEH   LINE      CODE     ---       #579
      00FF18B4H   LINE      CODE     ---       #580
      00FF18BAH   LINE      CODE     ---       #581
      00FF18C0H   LINE      CODE     ---       #582
      00FF18C6H   LINE      CODE     ---       #584
      00FF18CBH   LINE      CODE     ---       #585
      ---         BLOCKEND  ---      ---       LVL=0

      ---         MODULE    ---      ---       usb_req_class
      00FF22C1H   PUBLIC    CODE     ---       usb_set_ctrl_line_state
      00FF1D99H   PUBLIC    CODE     ---       usb_get_line_coding
      00FF1DBFH   PUBLIC    CODE     ---       usb_set_line_coding
      00FF1FA1H   PUBLIC    CODE     ---       usb_req_class
      000000C9H   PUBLIC    EDATA    ---       LineCoding
      000000D0H   SFRSYM    DATA     BYTE      PSW
      0000009DH   SFRSYM    DATA     BYTE      IRCBAND
      00000097H   SFRSYM    DATA     BYTE      AUXR2
      000000EFH   SFRSYM    DATA     BYTE      AUXINTIF
      000000FDH   SFRSYM    DATA     BYTE      S4CON
      000000ACH   SFRSYM    DATA     BYTE      S3CON
      0000009AH   SFRSYM    DATA     BYTE      S2CON
      000000B7H   SFRSYM    DATA     BYTE      IPH
      000000CDH   SFRSYM    DATA     BYTE      SPSTAT
      000000DDH   SFRSYM    DATA     BYTE      T4T3M
      000000C1H   SFRSYM    DATA     BYTE      WDT_CONTR
      000000DFH   SFRSYM    DATA     BYTE      IP3
      000000F4H   SFRSYM    DATA     BYTE      USBCON
      000000B5H   SFRSYM    DATA     BYTE      IP2
      000000FFH   SFRSYM    DATA     BYTE      RSTCFG
      000000F9H   SFRSYM    DATA     BYTE      LINICR
      0000008EH   SFRSYM    DATA     BYTE      AUXR
      000000AFH   SFRSYM    DATA     BYTE      IE2
      00000088H   SFRSYM    DATA     BYTE      TCON
      00000098H   SFRSYM    DATA     BYTE      SCON
      000000F1H   SFRSYM    DATA     BYTE      CANICR
      00000087H   SFRSYM    DATA     BYTE      PCON
      000000BCH   SFRSYM    DATA     BYTE      ADC_CONTR
      000000E7H   SFRSYM    DATA     BYTE      CMPCR2
      000000E6H   SFRSYM    DATA     BYTE      CMPCR1
      000000B8H   SFRSYM    DATA     BYTE      IP
      0000008FH   SFRSYM    DATA     BYTE      INTCLKO
      000000EEH   SFRSYM    DATA     BYTE      IP3H
L251 LINKER/LOCATER V4.66.93.0                                                        06/20/2023  10:07:46  PAGE 36


      000000B6H   SFRSYM    DATA     BYTE      IP2H
      000000A8H   SFRSYM    DATA     BYTE      IE
      000000BBH   SFRSYM    DATA     BYTE      P_SW3
      000000BAH   SFRSYM    DATA     BYTE      P_SW2
      000000A2H   SFRSYM    DATA     BYTE      P_SW1
      000000CEH   SFRSYM    DATA     BYTE      SPCTL
      000000F8H   SFRSYM    DATA     BYTE      P7
      000000E8H   SFRSYM    DATA     BYTE      P6
      000000C8H   SFRSYM    DATA     BYTE      P5
      000000C0H   SFRSYM    DATA     BYTE      P4
      000000B0H   SFRSYM    DATA     BYTE      P3
      000000A0H   SFRSYM    DATA     BYTE      P2
      00000090H   SFRSYM    DATA     BYTE      P1
      00000080H   SFRSYM    DATA     BYTE      P0

      00FF1FA1H   BLOCK     CODE     ---       LVL=0
      00FF1FA1H   LINE      CODE     ---       #20
      00FF1FA1H   LINE      CODE     ---       #22
      00FF1FB0H   LINE      CODE     ---       #24
      00FF1FB0H   LINE      CODE     ---       #25
      00FF1FB3H   LINE      CODE     ---       #26
      00FF1FB3H   LINE      CODE     ---       #27
      00FF1FB3H   LINE      CODE     ---       #28
      00FF1FB6H   LINE      CODE     ---       #29
      00FF1FB6H   LINE      CODE     ---       #30
      00FF1FB6H   LINE      CODE     ---       #31
      00FF1FB9H   LINE      CODE     ---       #32
      00FF1FB9H   LINE      CODE     ---       #33
      00FF1FB9H   LINE      CODE     ---       #34
      00FF1FBCH   LINE      CODE     ---       #35
      00FF1FBCH   LINE      CODE     ---       #36
      00FF1FBCH   LINE      CODE     ---       #37
      ---         BLOCKEND  ---      ---       LVL=0

      00FF1DBFH   BLOCK     CODE     ---       LVL=0
      00FF1DBFH   LINE      CODE     ---       #39
      00FF1DBFH   LINE      CODE     ---       #41
      00FF1DCFH   LINE      CODE     ---       #44
      00FF1DD2H   LINE      CODE     ---       #45
      00FF1DD2H   LINE      CODE     ---       #46
      00FF1DD2H   LINE      CODE     ---       #48
      00FF1DDAH   LINE      CODE     ---       #49
      00FF1DE2H   LINE      CODE     ---       #51
      00FF1DE5H   LINE      CODE     ---       #52
      ---         BLOCKEND  ---      ---       LVL=0

      00FF1D99H   BLOCK     CODE     ---       LVL=0
      00FF1D99H   LINE      CODE     ---       #54
      00FF1D99H   LINE      CODE     ---       #56
      00FF1DA9H   LINE      CODE     ---       #59
      00FF1DACH   LINE      CODE     ---       #60
      00FF1DACH   LINE      CODE     ---       #61
      00FF1DACH   LINE      CODE     ---       #63
      00FF1DB4H   LINE      CODE     ---       #64
      00FF1DBCH   LINE      CODE     ---       #66
      00FF1DBFH   LINE      CODE     ---       #67
      ---         BLOCKEND  ---      ---       LVL=0

      00FF22C1H   BLOCK     CODE     ---       LVL=0
      00FF22C1H   LINE      CODE     ---       #69
      00FF22C1H   LINE      CODE     ---       #71
      00FF22D1H   LINE      CODE     ---       #74
      00FF22D4H   LINE      CODE     ---       #75
      00FF22D4H   LINE      CODE     ---       #76
      00FF22D4H   LINE      CODE     ---       #78
L251 LINKER/LOCATER V4.66.93.0                                                        06/20/2023  10:07:46  PAGE 37


      00FF22D7H   LINE      CODE     ---       #79
      ---         BLOCKEND  ---      ---       LVL=0

      ---         MODULE    ---      ---       usb_req_std
      00FF18CEH   PUBLIC    CODE     ---       usb_get_interface
      00FF0AD8H   PUBLIC    CODE     ---       usb_clear_feature
      00FF1D22H   PUBLIC    CODE     ---       usb_set_interface
      00FF0B77H   PUBLIC    CODE     ---       usb_get_descriptor
      00FF2485H   PUBLIC    CODE     ---       usb_set_descriptor
      00FF122AH   PUBLIC    CODE     ---       usb_req_std
      00FF2488H   PUBLIC    CODE     ---       usb_synch_frame
      00FF15D3H   PUBLIC    CODE     ---       usb_set_address
      00FF0C16H   PUBLIC    CODE     ---       usb_set_feature
      00FF13F2H   PUBLIC    CODE     ---       usb_get_configuration
      00FF0A33H   PUBLIC    CODE     ---       usb_set_configuration
      00FF086CH   PUBLIC    CODE     ---       usb_get_status
      000000D0H   SFRSYM    DATA     BYTE      PSW
      0000009DH   SFRSYM    DATA     BYTE      IRCBAND
      00000097H   SFRSYM    DATA     BYTE      AUXR2
      000000EFH   SFRSYM    DATA     BYTE      AUXINTIF
      000000FDH   SFRSYM    DATA     BYTE      S4CON
      000000ACH   SFRSYM    DATA     BYTE      S3CON
      0000009AH   SFRSYM    DATA     BYTE      S2CON
      000000B7H   SFRSYM    DATA     BYTE      IPH
      000000CDH   SFRSYM    DATA     BYTE      SPSTAT
      000000DDH   SFRSYM    DATA     BYTE      T4T3M
      000000C1H   SFRSYM    DATA     BYTE      WDT_CONTR
      000000DFH   SFRSYM    DATA     BYTE      IP3
      000000F4H   SFRSYM    DATA     BYTE      USBCON
      000000B5H   SFRSYM    DATA     BYTE      IP2
      000000FFH   SFRSYM    DATA     BYTE      RSTCFG
      000000F9H   SFRSYM    DATA     BYTE      LINICR
      0000008EH   SFRSYM    DATA     BYTE      AUXR
      000000AFH   SFRSYM    DATA     BYTE      IE2
      00000088H   SFRSYM    DATA     BYTE      TCON
      00000098H   SFRSYM    DATA     BYTE      SCON
      000000F1H   SFRSYM    DATA     BYTE      CANICR
      00000087H   SFRSYM    DATA     BYTE      PCON
      000000BCH   SFRSYM    DATA     BYTE      ADC_CONTR
      000000E7H   SFRSYM    DATA     BYTE      CMPCR2
      000000E6H   SFRSYM    DATA     BYTE      CMPCR1
      000000B8H   SFRSYM    DATA     BYTE      IP
      0000008FH   SFRSYM    DATA     BYTE      INTCLKO
      000000EEH   SFRSYM    DATA     BYTE      IP3H
      000000B6H   SFRSYM    DATA     BYTE      IP2H
      000000A8H   SFRSYM    DATA     BYTE      IE
      000000BBH   SFRSYM    DATA     BYTE      P_SW3
      000000BAH   SFRSYM    DATA     BYTE      P_SW2
      000000A2H   SFRSYM    DATA     BYTE      P_SW1
      000000CEH   SFRSYM    DATA     BYTE      SPCTL
      000000F8H   SFRSYM    DATA     BYTE      P7
      000000E8H   SFRSYM    DATA     BYTE      P6
      000000C8H   SFRSYM    DATA     BYTE      P5
      000000C0H   SFRSYM    DATA     BYTE      P4
      000000B0H   SFRSYM    DATA     BYTE      P3
      000000A0H   SFRSYM    DATA     BYTE      P2
      00000090H   SFRSYM    DATA     BYTE      P1
      00000080H   SFRSYM    DATA     BYTE      P0

      00FF122AH   BLOCK     CODE     ---       LVL=0
      00FF122AH   LINE      CODE     ---       #19
      00FF122AH   LINE      CODE     ---       #21
      00FF1262H   LINE      CODE     ---       #23
      00FF1262H   LINE      CODE     ---       #24
      00FF1265H   LINE      CODE     ---       #25
L251 LINKER/LOCATER V4.66.93.0                                                        06/20/2023  10:07:46  PAGE 38


      00FF1265H   LINE      CODE     ---       #26
      00FF1265H   LINE      CODE     ---       #27
      00FF1268H   LINE      CODE     ---       #28
      00FF1268H   LINE      CODE     ---       #29
      00FF1268H   LINE      CODE     ---       #30
      00FF126BH   LINE      CODE     ---       #31
      00FF126BH   LINE      CODE     ---       #32
      00FF126BH   LINE      CODE     ---       #33
      00FF126EH   LINE      CODE     ---       #34
      00FF126EH   LINE      CODE     ---       #35
      00FF126EH   LINE      CODE     ---       #36
      00FF1271H   LINE      CODE     ---       #37
      00FF1271H   LINE      CODE     ---       #38
      00FF1271H   LINE      CODE     ---       #39
      00FF1274H   LINE      CODE     ---       #40
      00FF1274H   LINE      CODE     ---       #41
      00FF1274H   LINE      CODE     ---       #42
      00FF1277H   LINE      CODE     ---       #43
      00FF1277H   LINE      CODE     ---       #44
      00FF1277H   LINE      CODE     ---       #45
      00FF127AH   LINE      CODE     ---       #46
      00FF127AH   LINE      CODE     ---       #47
      00FF127AH   LINE      CODE     ---       #48
      00FF127DH   LINE      CODE     ---       #49
      00FF127DH   LINE      CODE     ---       #50
      00FF127DH   LINE      CODE     ---       #51
      00FF1280H   LINE      CODE     ---       #52
      00FF1280H   LINE      CODE     ---       #53
      00FF1280H   LINE      CODE     ---       #54
      00FF1283H   LINE      CODE     ---       #55
      00FF1283H   LINE      CODE     ---       #56
      00FF1283H   LINE      CODE     ---       #57
      00FF1286H   LINE      CODE     ---       #58
      00FF1286H   LINE      CODE     ---       #59
      00FF1286H   LINE      CODE     ---       #60
      ---         BLOCKEND  ---      ---       LVL=0

      00FF086CH   BLOCK     CODE     ---       LVL=0
      00FF086EH   BLOCK     CODE     NEAR LAB  LVL=1
      R10         REGSYM    ---      BYTE      ep
      ---         BLOCKEND  ---      ---       LVL=1
      00FF086CH   LINE      CODE     ---       #62
      00FF086EH   LINE      CODE     ---       #63
      00FF086EH   LINE      CODE     ---       #66
      00FF088FH   LINE      CODE     ---       #71
      00FF088FH   LINE      CODE     ---       #72
      00FF0892H   LINE      CODE     ---       #73
      00FF0892H   LINE      CODE     ---       #75
      00FF08A3H   LINE      CODE     ---       #77
      00FF08A3H   LINE      CODE     ---       #78
      00FF08AFH   LINE      CODE     ---       #81
      00FF08AFH   LINE      CODE     ---       #82
      00FF08B2H   LINE      CODE     ---       #83
      00FF08B2H   LINE      CODE     ---       #86
      00FF08B2H   LINE      CODE     ---       #87
      00FF08B2H   LINE      CODE     ---       #88
      00FF08B2H   LINE      CODE     ---       #89
      00FF08B4H   LINE      CODE     ---       #90
      00FF08B4H   LINE      CODE     ---       #91
      00FF08CAH   LINE      CODE     ---       #95
      00FF08CAH   LINE      CODE     ---       #96
      00FF08CDH   LINE      CODE     ---       #97
      00FF08CDH   LINE      CODE     ---       #100
      00FF08D5H   LINE      CODE     ---       #101
      00FF08D5H   LINE      CODE     ---       #102
L251 LINKER/LOCATER V4.66.93.0                                                        06/20/2023  10:07:46  PAGE 39


      00FF08D5H   LINE      CODE     ---       #103
      00FF08D7H   LINE      CODE     ---       #104
      00FF08D7H   LINE      CODE     ---       #105
      00FF08E4H   LINE      CODE     ---       #108
      00FF08E4H   LINE      CODE     ---       #109
      00FF08E6H   LINE      CODE     ---       #110
      00FF08E6H   LINE      CODE     ---       #113
      00FF08EFH   LINE      CODE     ---       #114
      00FF08FCH   LINE      CODE     ---       #117
      00FF08FCH   LINE      CODE     ---       #120
      00FF08FCH   LINE      CODE     ---       #132
      00FF0915H   LINE      CODE     ---       #134
      00FF091DH   LINE      CODE     ---       #135
      00FF091DH   LINE      CODE     ---       #136
      00FF091FH   LINE      CODE     ---       #139
      00FF0927H   LINE      CODE     ---       #140
      00FF0927H   LINE      CODE     ---       #141
      00FF0927H   LINE      CODE     ---       #142
      00FF0929H   LINE      CODE     ---       #145
      00FF0929H   LINE      CODE     ---       #160
      00FF0942H   LINE      CODE     ---       #162
      00FF094AH   LINE      CODE     ---       #163
      00FF094AH   LINE      CODE     ---       #164
      00FF094CH   LINE      CODE     ---       #167
      00FF0958H   LINE      CODE     ---       #168
      00FF0960H   LINE      CODE     ---       #169
      00FF0960H   LINE      CODE     ---       #170
      00FF0962H   LINE      CODE     ---       #172
      00FF0962H   LINE      CODE     ---       #173
      00FF0962H   LINE      CODE     ---       #174
      00FF0964H   LINE      CODE     ---       #175
      00FF0964H   LINE      CODE     ---       #176
      00FF0964H   LINE      CODE     ---       #177
      00FF0964H   LINE      CODE     ---       #178
      00FF0964H   LINE      CODE     ---       #179
      00FF0967H   LINE      CODE     ---       #180
      00FF0969H   LINE      CODE     ---       #181
      00FF0969H   LINE      CODE     ---       #183
      00FF096CH   LINE      CODE     ---       #184
      ---         BLOCKEND  ---      ---       LVL=0

      00FF0AD8H   BLOCK     CODE     ---       LVL=0
      R7          REGSYM    ---      BYTE      ep
      00FF0AD8H   LINE      CODE     ---       #186
      00FF0AD8H   LINE      CODE     ---       #187
      00FF0AD8H   LINE      CODE     ---       #190
      00FF0B03H   LINE      CODE     ---       #197
      00FF0B03H   LINE      CODE     ---       #198
      00FF0B05H   LINE      CODE     ---       #199
      00FF0B05H   LINE      CODE     ---       #201
      00FF0B0EH   LINE      CODE     ---       #202
      00FF0B1BH   LINE      CODE     ---       #205
      00FF0B1BH   LINE      CODE     ---       #208
      00FF0B1BH   LINE      CODE     ---       #220
      00FF0B35H   LINE      CODE     ---       #221
      00FF0B3AH   LINE      CODE     ---       #222
      00FF0B3FH   LINE      CODE     ---       #223
      00FF0B3FH   LINE      CODE     ---       #224
      00FF0B41H   LINE      CODE     ---       #227
      00FF0B41H   LINE      CODE     ---       #242
      00FF0B5BH   LINE      CODE     ---       #243
      00FF0B60H   LINE      CODE     ---       #244
      00FF0B68H   LINE      CODE     ---       #245
      00FF0B6FH   LINE      CODE     ---       #246
      00FF0B71H   LINE      CODE     ---       #248
L251 LINKER/LOCATER V4.66.93.0                                                        06/20/2023  10:07:46  PAGE 40


      00FF0B71H   LINE      CODE     ---       #249
      00FF0B74H   LINE      CODE     ---       #250
      00FF0B74H   LINE      CODE     ---       #251
      00FF0B74H   LINE      CODE     ---       #253
      00FF0B77H   LINE      CODE     ---       #254
      ---         BLOCKEND  ---      ---       LVL=0

      00FF0C16H   BLOCK     CODE     ---       LVL=0
      R7          REGSYM    ---      BYTE      ep
      00FF0C16H   LINE      CODE     ---       #256
      00FF0C16H   LINE      CODE     ---       #257
      00FF0C16H   LINE      CODE     ---       #260
      00FF0C41H   LINE      CODE     ---       #267
      00FF0C41H   LINE      CODE     ---       #268
      00FF0C43H   LINE      CODE     ---       #269
      00FF0C43H   LINE      CODE     ---       #271
      00FF0C4CH   LINE      CODE     ---       #272
      00FF0C59H   LINE      CODE     ---       #275
      00FF0C59H   LINE      CODE     ---       #278
      00FF0C59H   LINE      CODE     ---       #290
      00FF0C70H   LINE      CODE     ---       #291
      00FF0C75H   LINE      CODE     ---       #292
      00FF0C7AH   LINE      CODE     ---       #293
      00FF0C7AH   LINE      CODE     ---       #294
      00FF0C7CH   LINE      CODE     ---       #297
      00FF0C7CH   LINE      CODE     ---       #312
      00FF0C93H   LINE      CODE     ---       #313
      00FF0C98H   LINE      CODE     ---       #314
      00FF0CA0H   LINE      CODE     ---       #315
      00FF0CA7H   LINE      CODE     ---       #316
      00FF0CA9H   LINE      CODE     ---       #318
      00FF0CA9H   LINE      CODE     ---       #319
      00FF0CACH   LINE      CODE     ---       #320
      00FF0CACH   LINE      CODE     ---       #321
      00FF0CACH   LINE      CODE     ---       #323
      00FF0CAFH   LINE      CODE     ---       #324
      ---         BLOCKEND  ---      ---       LVL=0

      00FF15D3H   BLOCK     CODE     ---       LVL=0
      00FF15D5H   BLOCK     CODE     NEAR LAB  LVL=1
      R15         REGSYM    ---      BYTE      addr
      ---         BLOCKEND  ---      ---       LVL=1
      00FF15D3H   LINE      CODE     ---       #326
      00FF15D5H   LINE      CODE     ---       #327
      00FF15D5H   LINE      CODE     ---       #330
      00FF15FEH   LINE      CODE     ---       #337
      00FF1601H   LINE      CODE     ---       #338
      00FF1603H   LINE      CODE     ---       #339
      00FF1603H   LINE      CODE     ---       #341
      00FF1603H   LINE      CODE     ---       #342
      00FF1609H   LINE      CODE     ---       #343
      00FF160DH   LINE      CODE     ---       #345
      00FF160FH   LINE      CODE     ---       #346
      00FF1611H   LINE      CODE     ---       #349
      00FF1617H   LINE      CODE     ---       #350
      00FF1617H   LINE      CODE     ---       #352
      00FF161AH   LINE      CODE     ---       #353
      ---         BLOCKEND  ---      ---       LVL=0

      00FF0B77H   BLOCK     CODE     ---       LVL=0
      00FF0B77H   LINE      CODE     ---       #355
      00FF0B77H   LINE      CODE     ---       #357
      00FF0B82H   LINE      CODE     ---       #359
      00FF0B82H   LINE      CODE     ---       #360
      00FF0B85H   LINE      CODE     ---       #361
L251 LINKER/LOCATER V4.66.93.0                                                        06/20/2023  10:07:46  PAGE 41


      00FF0B85H   LINE      CODE     ---       #363
      00FF0B94H   LINE      CODE     ---       #365
      00FF0B94H   LINE      CODE     ---       #366
      00FF0BA0H   LINE      CODE     ---       #367
      00FF0BA4H   LINE      CODE     ---       #368
      00FF0BA6H   LINE      CODE     ---       #369
      00FF0BA6H   LINE      CODE     ---       #370
      00FF0BB2H   LINE      CODE     ---       #371
      00FF0BB6H   LINE      CODE     ---       #372
      00FF0BB8H   LINE      CODE     ---       #373
      00FF0BB8H   LINE      CODE     ---       #374
      00FF0BC6H   LINE      CODE     ---       #376
      00FF0BC6H   LINE      CODE     ---       #377
      00FF0BD2H   LINE      CODE     ---       #378
      00FF0BD6H   LINE      CODE     ---       #379
      00FF0BD8H   LINE      CODE     ---       #380
      00FF0BD8H   LINE      CODE     ---       #381
      00FF0BE4H   LINE      CODE     ---       #382
      00FF0BE8H   LINE      CODE     ---       #383
      00FF0BEAH   LINE      CODE     ---       #384
      00FF0BEAH   LINE      CODE     ---       #385
      00FF0BF6H   LINE      CODE     ---       #386
      00FF0BFEH   LINE      CODE     ---       #387
      00FF0C00H   LINE      CODE     ---       #388
      00FF0C00H   LINE      CODE     ---       #389
      00FF0C00H   LINE      CODE     ---       #390
      00FF0C02H   LINE      CODE     ---       #391
      00FF0C02H   LINE      CODE     ---       #392
      00FF0C02H   LINE      CODE     ---       #393
      00FF0C02H   LINE      CODE     ---       #394
      00FF0C05H   LINE      CODE     ---       #395
      00FF0C05H   LINE      CODE     ---       #396
      00FF0C05H   LINE      CODE     ---       #398
      00FF0C0FH   LINE      CODE     ---       #400
      00FF0C13H   LINE      CODE     ---       #401
      00FF0C13H   LINE      CODE     ---       #403
      00FF0C16H   LINE      CODE     ---       #404
      ---         BLOCKEND  ---      ---       LVL=0

      00FF2485H   BLOCK     CODE     ---       LVL=0
      00FF2485H   LINE      CODE     ---       #406
      00FF2485H   LINE      CODE     ---       #408
      ---         BLOCKEND  ---      ---       LVL=0

      00FF13F2H   BLOCK     CODE     ---       LVL=0
      00FF13F2H   LINE      CODE     ---       #411
      00FF13F2H   LINE      CODE     ---       #413
      00FF141BH   LINE      CODE     ---       #420
      00FF141EH   LINE      CODE     ---       #421
      00FF141EH   LINE      CODE     ---       #422
      00FF141EH   LINE      CODE     ---       #424
      00FF1425H   LINE      CODE     ---       #426
      00FF142DH   LINE      CODE     ---       #427
      00FF142DH   LINE      CODE     ---       #428
      00FF142FH   LINE      CODE     ---       #431
      00FF143BH   LINE      CODE     ---       #432
      00FF1443H   LINE      CODE     ---       #433
      00FF1443H   LINE      CODE     ---       #435
      00FF1446H   LINE      CODE     ---       #436
      ---         BLOCKEND  ---      ---       LVL=0

      00FF0A33H   BLOCK     CODE     ---       LVL=0
      00FF0A33H   LINE      CODE     ---       #438
      00FF0A33H   LINE      CODE     ---       #440
      00FF0A5CH   LINE      CODE     ---       #447
L251 LINKER/LOCATER V4.66.93.0                                                        06/20/2023  10:07:46  PAGE 42


      00FF0A5FH   LINE      CODE     ---       #448
      00FF0A5FH   LINE      CODE     ---       #449
      00FF0A5FH   LINE      CODE     ---       #451
      00FF0A66H   LINE      CODE     ---       #453
      00FF0A6CH   LINE      CODE     ---       #454
      00FF0A71H   LINE      CODE     ---       #455
      00FF0A75H   LINE      CODE     ---       #457
      00FF0A7DH   LINE      CODE     ---       #458
      00FF0A85H   LINE      CODE     ---       #459
      00FF0A8DH   LINE      CODE     ---       #462
      00FF0A95H   LINE      CODE     ---       #463
      00FF0A9DH   LINE      CODE     ---       #464
      00FF0AA5H   LINE      CODE     ---       #482
      00FF0AADH   LINE      CODE     ---       #483
      00FF0AB4H   LINE      CODE     ---       #484
      00FF0ABCH   LINE      CODE     ---       #506
      00FF0AC3H   LINE      CODE     ---       #507
      00FF0AC5H   LINE      CODE     ---       #510
      00FF0ACBH   LINE      CODE     ---       #511
      00FF0AD1H   LINE      CODE     ---       #512
      00FF0AD5H   LINE      CODE     ---       #513
      00FF0AD5H   LINE      CODE     ---       #515
      00FF0AD8H   LINE      CODE     ---       #516
      ---         BLOCKEND  ---      ---       LVL=0

      00FF18CEH   BLOCK     CODE     ---       LVL=0
      00FF18CEH   LINE      CODE     ---       #518
      00FF18CEH   LINE      CODE     ---       #520
      00FF18F2H   LINE      CODE     ---       #526
      00FF18F5H   LINE      CODE     ---       #527
      00FF18F5H   LINE      CODE     ---       #528
      00FF18F5H   LINE      CODE     ---       #530
      00FF1901H   LINE      CODE     ---       #531
      00FF1909H   LINE      CODE     ---       #533
      00FF190CH   LINE      CODE     ---       #534
      ---         BLOCKEND  ---      ---       LVL=0

      00FF1D22H   BLOCK     CODE     ---       LVL=0
      00FF1D22H   LINE      CODE     ---       #536
      00FF1D22H   LINE      CODE     ---       #538
      00FF1D44H   LINE      CODE     ---       #544
      00FF1D47H   LINE      CODE     ---       #545
      00FF1D47H   LINE      CODE     ---       #546
      00FF1D47H   LINE      CODE     ---       #548
      00FF1D4AH   LINE      CODE     ---       #549
      ---         BLOCKEND  ---      ---       LVL=0

      00FF2488H   BLOCK     CODE     ---       LVL=0
      00FF2488H   LINE      CODE     ---       #551
      00FF2488H   LINE      CODE     ---       #553
      ---         BLOCKEND  ---      ---       LVL=0

      ---         MODULE    ---      ---       usb_req_vendor
      00FF248BH   PUBLIC    CODE     ---       usb_req_vendor
      000000D0H   SFRSYM    DATA     BYTE      PSW
      0000009DH   SFRSYM    DATA     BYTE      IRCBAND
      00000097H   SFRSYM    DATA     BYTE      AUXR2
      000000EFH   SFRSYM    DATA     BYTE      AUXINTIF
      000000FDH   SFRSYM    DATA     BYTE      S4CON
      000000ACH   SFRSYM    DATA     BYTE      S3CON
      0000009AH   SFRSYM    DATA     BYTE      S2CON
      000000B7H   SFRSYM    DATA     BYTE      IPH
      000000CDH   SFRSYM    DATA     BYTE      SPSTAT
      000000DDH   SFRSYM    DATA     BYTE      T4T3M
      000000C1H   SFRSYM    DATA     BYTE      WDT_CONTR
L251 LINKER/LOCATER V4.66.93.0                                                        06/20/2023  10:07:46  PAGE 43


      000000DFH   SFRSYM    DATA     BYTE      IP3
      000000F4H   SFRSYM    DATA     BYTE      USBCON
      000000B5H   SFRSYM    DATA     BYTE      IP2
      000000FFH   SFRSYM    DATA     BYTE      RSTCFG
      000000F9H   SFRSYM    DATA     BYTE      LINICR
      0000008EH   SFRSYM    DATA     BYTE      AUXR
      000000AFH   SFRSYM    DATA     BYTE      IE2
      00000088H   SFRSYM    DATA     BYTE      TCON
      00000098H   SFRSYM    DATA     BYTE      SCON
      000000F1H   SFRSYM    DATA     BYTE      CANICR
      00000087H   SFRSYM    DATA     BYTE      PCON
      000000BCH   SFRSYM    DATA     BYTE      ADC_CONTR
      000000E7H   SFRSYM    DATA     BYTE      CMPCR2
      000000E6H   SFRSYM    DATA     BYTE      CMPCR1
      000000B8H   SFRSYM    DATA     BYTE      IP
      0000008FH   SFRSYM    DATA     BYTE      INTCLKO
      000000EEH   SFRSYM    DATA     BYTE      IP3H
      000000B6H   SFRSYM    DATA     BYTE      IP2H
      000000A8H   SFRSYM    DATA     BYTE      IE
      000000BBH   SFRSYM    DATA     BYTE      P_SW3
      000000BAH   SFRSYM    DATA     BYTE      P_SW2
      000000A2H   SFRSYM    DATA     BYTE      P_SW1
      000000CEH   SFRSYM    DATA     BYTE      SPCTL
      000000F8H   SFRSYM    DATA     BYTE      P7
      000000E8H   SFRSYM    DATA     BYTE      P6
      000000C8H   SFRSYM    DATA     BYTE      P5
      000000C0H   SFRSYM    DATA     BYTE      P4
      000000B0H   SFRSYM    DATA     BYTE      P3
      000000A0H   SFRSYM    DATA     BYTE      P2
      00000090H   SFRSYM    DATA     BYTE      P1
      00000080H   SFRSYM    DATA     BYTE      P0

      00FF248BH   BLOCK     CODE     ---       LVL=0
      00FF248BH   LINE      CODE     ---       #17
      00FF248BH   LINE      CODE     ---       #19
      ---         BLOCKEND  ---      ---       LVL=0

      ---         MODULE    ---      ---       usb_desc
      00FF1007H   PUBLIC    CODE     ---       PRODUCTDESC
      00FF1025H   PUBLIC    CODE     ---       LANGIDDESC
      00FF1029H   PUBLIC    CODE     ---       DEVICEDESC
      00FF103BH   PUBLIC    CODE     ---       CONFIGDESC
      00FF107EH   PUBLIC    CODE     ---       PACKET0
      00FF1080H   PUBLIC    CODE     ---       PACKET1
      00FF1082H   PUBLIC    CODE     ---       MANUFACTDESC
      000000D0H   SFRSYM    DATA     BYTE      PSW
      0000009DH   SFRSYM    DATA     BYTE      IRCBAND
      00000097H   SFRSYM    DATA     BYTE      AUXR2
      000000EFH   SFRSYM    DATA     BYTE      AUXINTIF
      000000FDH   SFRSYM    DATA     BYTE      S4CON
      000000ACH   SFRSYM    DATA     BYTE      S3CON
      0000009AH   SFRSYM    DATA     BYTE      S2CON
      000000B7H   SFRSYM    DATA     BYTE      IPH
      000000CDH   SFRSYM    DATA     BYTE      SPSTAT
      000000DDH   SFRSYM    DATA     BYTE      T4T3M
      000000C1H   SFRSYM    DATA     BYTE      WDT_CONTR
      000000DFH   SFRSYM    DATA     BYTE      IP3
      000000F4H   SFRSYM    DATA     BYTE      USBCON
      000000B5H   SFRSYM    DATA     BYTE      IP2
      000000FFH   SFRSYM    DATA     BYTE      RSTCFG
      000000F9H   SFRSYM    DATA     BYTE      LINICR
      0000008EH   SFRSYM    DATA     BYTE      AUXR
      000000AFH   SFRSYM    DATA     BYTE      IE2
      00000088H   SFRSYM    DATA     BYTE      TCON
      00000098H   SFRSYM    DATA     BYTE      SCON
L251 LINKER/LOCATER V4.66.93.0                                                        06/20/2023  10:07:46  PAGE 44


      000000F1H   SFRSYM    DATA     BYTE      CANICR
      00000087H   SFRSYM    DATA     BYTE      PCON
      000000BCH   SFRSYM    DATA     BYTE      ADC_CONTR
      000000E7H   SFRSYM    DATA     BYTE      CMPCR2
      000000E6H   SFRSYM    DATA     BYTE      CMPCR1
      000000B8H   SFRSYM    DATA     BYTE      IP
      0000008FH   SFRSYM    DATA     BYTE      INTCLKO
      000000EEH   SFRSYM    DATA     BYTE      IP3H
      000000B6H   SFRSYM    DATA     BYTE      IP2H
      000000A8H   SFRSYM    DATA     BYTE      IE
      000000BBH   SFRSYM    DATA     BYTE      P_SW3
      000000BAH   SFRSYM    DATA     BYTE      P_SW2
      000000A2H   SFRSYM    DATA     BYTE      P_SW1
      000000CEH   SFRSYM    DATA     BYTE      SPCTL
      000000F8H   SFRSYM    DATA     BYTE      P7
      000000E8H   SFRSYM    DATA     BYTE      P6
      000000C8H   SFRSYM    DATA     BYTE      P5
      000000C0H   SFRSYM    DATA     BYTE      P4
      000000B0H   SFRSYM    DATA     BYTE      P3
      000000A0H   SFRSYM    DATA     BYTE      P2
      00000090H   SFRSYM    DATA     BYTE      P1
      00000080H   SFRSYM    DATA     BYTE      P0

      ---         MODULE    ---      ---       debug
      00FF1D4AH   PUBLIC    CODE     ---       Debug_Init
      000000D0H   SFRSYM    DATA     BYTE      PSW
      0000009DH   SFRSYM    DATA     BYTE      IRCBAND
      00000097H   SFRSYM    DATA     BYTE      AUXR2
      000000EFH   SFRSYM    DATA     BYTE      AUXINTIF
      000000FDH   SFRSYM    DATA     BYTE      S4CON
      000000ACH   SFRSYM    DATA     BYTE      S3CON
      0000009AH   SFRSYM    DATA     BYTE      S2CON
      000000B7H   SFRSYM    DATA     BYTE      IPH
      000000CDH   SFRSYM    DATA     BYTE      SPSTAT
      000000DDH   SFRSYM    DATA     BYTE      T4T3M
      000000C1H   SFRSYM    DATA     BYTE      WDT_CONTR
      000000DFH   SFRSYM    DATA     BYTE      IP3
      000000F4H   SFRSYM    DATA     BYTE      USBCON
      000000B5H   SFRSYM    DATA     BYTE      IP2
      000000FFH   SFRSYM    DATA     BYTE      RSTCFG
      000000DCH   SFRSYM    DATA     BYTE      USBCLK
      000000F9H   SFRSYM    DATA     BYTE      LINICR
      0000008EH   SFRSYM    DATA     BYTE      AUXR
      000000AFH   SFRSYM    DATA     BYTE      IE2
      00000088H   SFRSYM    DATA     BYTE      TCON
      00000098H   SFRSYM    DATA     BYTE      SCON
      000000F1H   SFRSYM    DATA     BYTE      CANICR
      00000087H   SFRSYM    DATA     BYTE      PCON
      000000BCH   SFRSYM    DATA     BYTE      ADC_CONTR
      000000E7H   SFRSYM    DATA     BYTE      CMPCR2
      000000E6H   SFRSYM    DATA     BYTE      CMPCR1
      000000B8H   SFRSYM    DATA     BYTE      IP
      0000008FH   SFRSYM    DATA     BYTE      INTCLKO
      000000EEH   SFRSYM    DATA     BYTE      IP3H
      000000B6H   SFRSYM    DATA     BYTE      IP2H
      000000A8H   SFRSYM    DATA     BYTE      IE
      000000BBH   SFRSYM    DATA     BYTE      P_SW3
      000000BAH   SFRSYM    DATA     BYTE      P_SW2
      000000A2H   SFRSYM    DATA     BYTE      P_SW1
      000000CEH   SFRSYM    DATA     BYTE      SPCTL
      000000F8H   SFRSYM    DATA     BYTE      P7
      000000E8H   SFRSYM    DATA     BYTE      P6
      000000C8H   SFRSYM    DATA     BYTE      P5
      000000C0H   SFRSYM    DATA     BYTE      P4
      000000B0H   SFRSYM    DATA     BYTE      P3
L251 LINKER/LOCATER V4.66.93.0                                                        06/20/2023  10:07:46  PAGE 45


      000000A0H   SFRSYM    DATA     BYTE      P2
      000000B1H   SFRSYM    DATA     BYTE      P3M1
      00000090H   SFRSYM    DATA     BYTE      P1
      000000B2H   SFRSYM    DATA     BYTE      P3M0
      00000080H   SFRSYM    DATA     BYTE      P0

      00FF1D4AH   BLOCK     CODE     ---       LVL=0
      00FF1D4AH   LINE      CODE     ---       #5
      00FF1D4AH   LINE      CODE     ---       #9
      00FF1D4DH   LINE      CODE     ---       #10
      00FF1D50H   LINE      CODE     ---       #12
      00FF1D5DH   LINE      CODE     ---       #13
      00FF1D6BH   LINE      CODE     ---       #15
      00FF1D6EH   LINE      CODE     ---       #16
      00FF1D71H   LINE      CODE     ---       #19
      ---         BLOCKEND  ---      ---       LVL=0

      ---         MODULE    ---      ---       i2c
      00FF1F2EH   PUBLIC    CODE     ---       I2C_RecvACK
      00FF2205H   PUBLIC    CODE     ---       I2C_SendNAK
      00FF2266H   PUBLIC    CODE     ---       I2C_SendData
      00FF1537H   PUBLIC    CODE     ---       I2C_Write
      00FF1F69H   PUBLIC    CODE     ---       I2C_RecvData
      00FF23F1H   PUBLIC    CODE     ---       I2C_Start
      00FF1E2DH   PUBLIC    CODE     ---       I2C_Init
      00FF227DH   PUBLIC    CODE     ---       I2C_Wait
      00FF108AH   PUBLIC    CODE     ---       I2C_read
      00FF247FH   PUBLIC    CODE     ---       I2C_SendByte
      00FF2401H   PUBLIC    CODE     ---       I2C_Stop
      00FF2411H   PUBLIC    CODE     ---       I2C_RecvByte
      00FF224EH   PUBLIC    CODE     ---       I2C_SendACK
      000000D0H   SFRSYM    DATA     BYTE      PSW
      0000009DH   SFRSYM    DATA     BYTE      IRCBAND
      00000097H   SFRSYM    DATA     BYTE      AUXR2
      000000EFH   SFRSYM    DATA     BYTE      AUXINTIF
      000000FDH   SFRSYM    DATA     BYTE      S4CON
      000000ACH   SFRSYM    DATA     BYTE      S3CON
      0000009AH   SFRSYM    DATA     BYTE      S2CON
      000000B7H   SFRSYM    DATA     BYTE      IPH
      000000CDH   SFRSYM    DATA     BYTE      SPSTAT
      000000DDH   SFRSYM    DATA     BYTE      T4T3M
      000000C1H   SFRSYM    DATA     BYTE      WDT_CONTR
      000000DFH   SFRSYM    DATA     BYTE      IP3
      000000F4H   SFRSYM    DATA     BYTE      USBCON
      000000B5H   SFRSYM    DATA     BYTE      IP2
      000000FFH   SFRSYM    DATA     BYTE      RSTCFG
      000000F9H   SFRSYM    DATA     BYTE      LINICR
      0000008EH   SFRSYM    DATA     BYTE      AUXR
      000000AFH   SFRSYM    DATA     BYTE      IE2
      00000088H   SFRSYM    DATA     BYTE      TCON
      00000098H   SFRSYM    DATA     BYTE      SCON
      000000F1H   SFRSYM    DATA     BYTE      CANICR
      00000087H   SFRSYM    DATA     BYTE      PCON
      000000BCH   SFRSYM    DATA     BYTE      ADC_CONTR
      000000E7H   SFRSYM    DATA     BYTE      CMPCR2
      000000E6H   SFRSYM    DATA     BYTE      CMPCR1
      000000B8H   SFRSYM    DATA     BYTE      IP
      0000008FH   SFRSYM    DATA     BYTE      INTCLKO
      000000EEH   SFRSYM    DATA     BYTE      IP3H
      000000B6H   SFRSYM    DATA     BYTE      IP2H
      000000A8H   SFRSYM    DATA     BYTE      IE
      000000BBH   SFRSYM    DATA     BYTE      P_SW3
      000000BAH   SFRSYM    DATA     BYTE      P_SW2
      000000A2H   SFRSYM    DATA     BYTE      P_SW1
      000000CEH   SFRSYM    DATA     BYTE      SPCTL
L251 LINKER/LOCATER V4.66.93.0                                                        06/20/2023  10:07:46  PAGE 46


      000000F8H   SFRSYM    DATA     BYTE      P7
      000000E8H   SFRSYM    DATA     BYTE      P6
      000000C8H   SFRSYM    DATA     BYTE      P5
      000000C0H   SFRSYM    DATA     BYTE      P4
      000000B0H   SFRSYM    DATA     BYTE      P3
      000000A0H   SFRSYM    DATA     BYTE      P2
      00000090H   SFRSYM    DATA     BYTE      P1
      00000080H   SFRSYM    DATA     BYTE      P0

      00FF227DH   BLOCK     CODE     ---       LVL=0
      00FF227DH   LINE      CODE     ---       #5
      00FF227DH   LINE      CODE     ---       #7
      00FF228BH   LINE      CODE     ---       #8
      00FF2293H   LINE      CODE     ---       #9
      ---         BLOCKEND  ---      ---       LVL=0

      00FF23F1H   BLOCK     CODE     ---       LVL=0
      00FF23F1H   LINE      CODE     ---       #11
      00FF23F1H   LINE      CODE     ---       #13
      00FF23FEH   LINE      CODE     ---       #14
      ---         BLOCKEND  ---      ---       LVL=0

      00FF2401H   BLOCK     CODE     ---       LVL=0
      00FF2401H   LINE      CODE     ---       #17
      00FF2401H   LINE      CODE     ---       #19
      00FF240EH   LINE      CODE     ---       #20
      ---         BLOCKEND  ---      ---       LVL=0

      00FF2266H   BLOCK     CODE     ---       LVL=0
      R11         REGSYM    ---      CHAR      dat
      00FF2266H   LINE      CODE     ---       #23
      00FF2266H   LINE      CODE     ---       #25
      00FF2271H   LINE      CODE     ---       #26
      00FF227AH   LINE      CODE     ---       #27
      ---         BLOCKEND  ---      ---       LVL=0

      00FF1F2EH   BLOCK     CODE     ---       LVL=0
      00FF1F2EH   LINE      CODE     ---       #30
      00FF1F2EH   LINE      CODE     ---       #32
      00FF1F3BH   LINE      CODE     ---       #33
      00FF1F3EH   LINE      CODE     ---       #34
      00FF1F4BH   LINE      CODE     ---       #35
      ---         BLOCKEND  ---      ---       LVL=0

      00FF1F69H   BLOCK     CODE     ---       LVL=0
      00FF1F69H   LINE      CODE     ---       #37
      00FF1F69H   LINE      CODE     ---       #39
      00FF1F76H   LINE      CODE     ---       #40
      00FF1F79H   LINE      CODE     ---       #41
      00FF1F84H   LINE      CODE     ---       #42
      ---         BLOCKEND  ---      ---       LVL=0

      00FF224EH   BLOCK     CODE     ---       LVL=0
      00FF224EH   LINE      CODE     ---       #44
      00FF224EH   LINE      CODE     ---       #46
      00FF225AH   LINE      CODE     ---       #47
      00FF2263H   LINE      CODE     ---       #48
      ---         BLOCKEND  ---      ---       LVL=0

      00FF2205H   BLOCK     CODE     ---       LVL=0
      00FF2205H   LINE      CODE     ---       #51
      00FF2205H   LINE      CODE     ---       #53
      00FF2212H   LINE      CODE     ---       #54
      00FF221BH   LINE      CODE     ---       #55
      ---         BLOCKEND  ---      ---       LVL=0
L251 LINKER/LOCATER V4.66.93.0                                                        06/20/2023  10:07:46  PAGE 47



      00FF1E2DH   BLOCK     CODE     ---       LVL=0
      00FF1E2DH   LINE      CODE     ---       #58
      00FF1E2DH   LINE      CODE     ---       #60
      00FF1E3DH   LINE      CODE     ---       #61
      00FF1E46H   LINE      CODE     ---       #62
      00FF1E4EH   LINE      CODE     ---       #63
      ---         BLOCKEND  ---      ---       LVL=0

      00FF247FH   BLOCK     CODE     ---       LVL=0
      R7          REGSYM    ---      BYTE      dat
      00FF247FH   LINE      CODE     ---       #65
      00FF247FH   LINE      CODE     ---       #67
      00FF2482H   LINE      CODE     ---       #68
      ---         BLOCKEND  ---      ---       LVL=0

      00FF2411H   BLOCK     CODE     ---       LVL=0
      00FF2413H   BLOCK     CODE     NEAR LAB  LVL=1
      R15         REGSYM    ---      BYTE      dat
      ---         BLOCKEND  ---      ---       LVL=1
      00FF2411H   LINE      CODE     ---       #71
      00FF2413H   LINE      CODE     ---       #72
      00FF2413H   LINE      CODE     ---       #74
      00FF2418H   LINE      CODE     ---       #75
      00FF241BH   LINE      CODE     ---       #76
      00FF241DH   LINE      CODE     ---       #77
      ---         BLOCKEND  ---      ---       LVL=0

      00FF1537H   BLOCK     CODE     ---       LVL=0
      000000DFH   SYMBOL    EDATA    BYTE      dev_addr
      000000E0H   SYMBOL    EDATA    BYTE      reg_addr
      REG=3       REGSYM    ---      ---       p
      000000E1H   SYMBOL    EDATA    BYTE      len
      00FF1547H   BLOCK     CODE     NEAR LAB  LVL=1
      000000E2H   SYMBOL    EDATA    BYTE      i
      ---         BLOCKEND  ---      ---       LVL=1
      00FF1537H   LINE      CODE     ---       #79
      00FF1547H   LINE      CODE     ---       #80
      00FF1547H   LINE      CODE     ---       #81
      00FF1547H   LINE      CODE     ---       #82
      00FF154AH   LINE      CODE     ---       #83
      00FF1553H   LINE      CODE     ---       #84
      00FF155AH   LINE      CODE     ---       #85
      00FF155DH   LINE      CODE     ---       #87
      00FF156DH   LINE      CODE     ---       #88
      00FF1580H   LINE      CODE     ---       #89
      00FF1583H   LINE      CODE     ---       #90
      ---         BLOCKEND  ---      ---       LVL=0

      00FF108AH   BLOCK     CODE     ---       LVL=0
      000000E3H   SYMBOL    EDATA    BYTE      dev_addr
      000000E4H   SYMBOL    EDATA    BYTE      reg_addr
      REG=3       REGSYM    ---      ---       buf
      000000E5H   SYMBOL    EDATA    BYTE      len
      00FF109AH   BLOCK     CODE     NEAR LAB  LVL=1
      000000E6H   SYMBOL    EDATA    BYTE      i
      ---         BLOCKEND  ---      ---       LVL=1
      00FF108AH   LINE      CODE     ---       #92
      00FF109AH   LINE      CODE     ---       #93
      00FF109AH   LINE      CODE     ---       #94
      00FF109AH   LINE      CODE     ---       #95
      00FF109DH   LINE      CODE     ---       #96
      00FF10A6H   LINE      CODE     ---       #97
      00FF10ADH   LINE      CODE     ---       #98
      00FF10B0H   LINE      CODE     ---       #99
L251 LINKER/LOCATER V4.66.93.0                                                        06/20/2023  10:07:46  PAGE 48


      00FF10BDH   LINE      CODE     ---       #100
      00FF10C0H   LINE      CODE     ---       #102
      00FF10D0H   LINE      CODE     ---       #103
      00FF10EBH   LINE      CODE     ---       #104
      00FF10FBH   LINE      CODE     ---       #105
      00FF10FEH   LINE      CODE     ---       #106
      00FF1101H   LINE      CODE     ---       #107
      ---         BLOCKEND  ---      ---       LVL=0

      ---         MODULE    ---      ---       mpu6050
      00FF0EFEH   PUBLIC    CODE     ---       mpu6050_read
      00FF1446H   PUBLIC    CODE     ---       mpu6050_init
      000000D0H   SFRSYM    DATA     BYTE      PSW
      0000009DH   SFRSYM    DATA     BYTE      IRCBAND
      00000097H   SFRSYM    DATA     BYTE      AUXR2
      000000EFH   SFRSYM    DATA     BYTE      AUXINTIF
      000000FDH   SFRSYM    DATA     BYTE      S4CON
      000000ACH   SFRSYM    DATA     BYTE      S3CON
      0000009AH   SFRSYM    DATA     BYTE      S2CON
      000000B7H   SFRSYM    DATA     BYTE      IPH
      000000CDH   SFRSYM    DATA     BYTE      SPSTAT
      000000DDH   SFRSYM    DATA     BYTE      T4T3M
      000000C1H   SFRSYM    DATA     BYTE      WDT_CONTR
      000000DFH   SFRSYM    DATA     BYTE      IP3
      000000F4H   SFRSYM    DATA     BYTE      USBCON
      000000B5H   SFRSYM    DATA     BYTE      IP2
      000000FFH   SFRSYM    DATA     BYTE      RSTCFG
      000000F9H   SFRSYM    DATA     BYTE      LINICR
      0000008EH   SFRSYM    DATA     BYTE      AUXR
      000000AFH   SFRSYM    DATA     BYTE      IE2
      00000088H   SFRSYM    DATA     BYTE      TCON
      00000098H   SFRSYM    DATA     BYTE      SCON
      000000F1H   SFRSYM    DATA     BYTE      CANICR
      00000087H   SFRSYM    DATA     BYTE      PCON
      000000BCH   SFRSYM    DATA     BYTE      ADC_CONTR
      000000E7H   SFRSYM    DATA     BYTE      CMPCR2
      000000E6H   SFRSYM    DATA     BYTE      CMPCR1
      000000B8H   SFRSYM    DATA     BYTE      IP
      0000008FH   SFRSYM    DATA     BYTE      INTCLKO
      000000EEH   SFRSYM    DATA     BYTE      IP3H
      000000B6H   SFRSYM    DATA     BYTE      IP2H
      000000A8H   SFRSYM    DATA     BYTE      IE
      000000BBH   SFRSYM    DATA     BYTE      P_SW3
      000000BAH   SFRSYM    DATA     BYTE      P_SW2
      000000A2H   SFRSYM    DATA     BYTE      P_SW1
      000000CEH   SFRSYM    DATA     BYTE      SPCTL
      000000F8H   SFRSYM    DATA     BYTE      P7
      000000E8H   SFRSYM    DATA     BYTE      P6
      000000C8H   SFRSYM    DATA     BYTE      P5
      000000C0H   SFRSYM    DATA     BYTE      P4
      000000B0H   SFRSYM    DATA     BYTE      P3
      000000A0H   SFRSYM    DATA     BYTE      P2
      00000090H   SFRSYM    DATA     BYTE      P1
      00000080H   SFRSYM    DATA     BYTE      P0

      00FF1446H   BLOCK     CODE     ---       LVL=0
      000000EBH   SYMBOL    EDATA    ---       dat
      00FF1446H   LINE      CODE     ---       #3
      00FF1446H   LINE      CODE     ---       #4
      00FF1446H   LINE      CODE     ---       #7
      00FF144BH   LINE      CODE     ---       #8
      00FF145AH   LINE      CODE     ---       #10
      00FF1460H   LINE      CODE     ---       #11
      00FF146FH   LINE      CODE     ---       #13
      00FF1475H   LINE      CODE     ---       #14
L251 LINKER/LOCATER V4.66.93.0                                                        06/20/2023  10:07:46  PAGE 49


      00FF1484H   LINE      CODE     ---       #16
      00FF148AH   LINE      CODE     ---       #17
      ---         BLOCKEND  ---      ---       LVL=0

      00FF0EFEH   BLOCK     CODE     ---       LVL=0
      REG=3       REGSYM    ---      ---       mpu6050_data
      00FF0F02H   BLOCK     CODE     NEAR LAB  LVL=1
      000000B3H   SYMBOL    EDATA    ---       buf
      ---         BLOCKEND  ---      ---       LVL=1
      00FF0EFEH   LINE      CODE     ---       #20
      00FF0F02H   LINE      CODE     ---       #21
      00FF0F02H   LINE      CODE     ---       #24
      00FF0F11H   LINE      CODE     ---       #25
      00FF0F20H   LINE      CODE     ---       #26
      00FF0F30H   LINE      CODE     ---       #27
      00FF0F40H   LINE      CODE     ---       #28
      00FF0F50H   LINE      CODE     ---       #29
      00FF0F60H   LINE      CODE     ---       #30
      00FF0F70H   LINE      CODE     ---       #31
      00FF0F80H   LINE      CODE     ---       #32
      ---         BLOCKEND  ---      ---       LVL=0

      ---         MODULE    ---      ---       pwm
      00FF2301H   PUBLIC    CODE     ---       pwm1_setduty
      00FF2316H   PUBLIC    CODE     ---       pwm4_setduty
      00FF23A5H   PUBLIC    CODE     ---       pwm1n_disable
      00FF23B8H   PUBLIC    CODE     ---       pwm1p_disable
      00FF23CBH   PUBLIC    CODE     ---       pwm4n_disable
      00FF23DEH   PUBLIC    CODE     ---       pwm4p_disable
      00FF1EB2H   PUBLIC    CODE     ---       pwm1n_enable
      00FF1ED1H   PUBLIC    CODE     ---       pwm1p_enable
      00FF1EF0H   PUBLIC    CODE     ---       pwm4n_enable
      00FF1F0FH   PUBLIC    CODE     ---       pwm4p_enable
      00FF1286H   PUBLIC    CODE     ---       pwm1n_config
      00FF133EH   PUBLIC    CODE     ---       pwm1p_config
      00FF1398H   PUBLIC    CODE     ---       pwm4n_config
      00FF12E2H   PUBLIC    CODE     ---       pwm4p_config
      00FF173CH   PUBLIC    CODE     ---       pwm_init
      00FF232BH   PUBLIC    CODE     ---       pwma_setcycle
      000000D0H   SFRSYM    DATA     BYTE      PSW
      0000009DH   SFRSYM    DATA     BYTE      IRCBAND
      00000097H   SFRSYM    DATA     BYTE      AUXR2
      000000EFH   SFRSYM    DATA     BYTE      AUXINTIF
      000000FDH   SFRSYM    DATA     BYTE      S4CON
      000000ACH   SFRSYM    DATA     BYTE      S3CON
      0000009AH   SFRSYM    DATA     BYTE      S2CON
      000000B7H   SFRSYM    DATA     BYTE      IPH
      000000CDH   SFRSYM    DATA     BYTE      SPSTAT
      000000DDH   SFRSYM    DATA     BYTE      T4T3M
      000000C1H   SFRSYM    DATA     BYTE      WDT_CONTR
      000000DFH   SFRSYM    DATA     BYTE      IP3
      000000F4H   SFRSYM    DATA     BYTE      USBCON
      000000B5H   SFRSYM    DATA     BYTE      IP2
      000000FFH   SFRSYM    DATA     BYTE      RSTCFG
      000000F9H   SFRSYM    DATA     BYTE      LINICR
      0000008EH   SFRSYM    DATA     BYTE      AUXR
      000000AFH   SFRSYM    DATA     BYTE      IE2
      00000090H.7 SFRSYM    DATA     BIT       P17
      00000090H.6 SFRSYM    DATA     BIT       P16
      00000088H   SFRSYM    DATA     BYTE      TCON
      00000098H   SFRSYM    DATA     BYTE      SCON
      00000090H.1 SFRSYM    DATA     BIT       P11
      000000F1H   SFRSYM    DATA     BYTE      CANICR
      00000087H   SFRSYM    DATA     BYTE      PCON
      00000090H.0 SFRSYM    DATA     BIT       P10
L251 LINKER/LOCATER V4.66.93.0                                                        06/20/2023  10:07:46  PAGE 50


      000000BCH   SFRSYM    DATA     BYTE      ADC_CONTR
      000000E7H   SFRSYM    DATA     BYTE      CMPCR2
      000000E6H   SFRSYM    DATA     BYTE      CMPCR1
      000000B8H   SFRSYM    DATA     BYTE      IP
      0000008FH   SFRSYM    DATA     BYTE      INTCLKO
      000000EEH   SFRSYM    DATA     BYTE      IP3H
      000000B6H   SFRSYM    DATA     BYTE      IP2H
      000000A8H   SFRSYM    DATA     BYTE      IE
      000000BBH   SFRSYM    DATA     BYTE      P_SW3
      000000BAH   SFRSYM    DATA     BYTE      P_SW2
      000000A2H   SFRSYM    DATA     BYTE      P_SW1
      000000CEH   SFRSYM    DATA     BYTE      SPCTL
      000000F8H   SFRSYM    DATA     BYTE      P7
      000000E8H   SFRSYM    DATA     BYTE      P6
      000000C8H   SFRSYM    DATA     BYTE      P5
      000000C0H   SFRSYM    DATA     BYTE      P4
      000000B0H   SFRSYM    DATA     BYTE      P3
      000000A0H   SFRSYM    DATA     BYTE      P2
      00000090H   SFRSYM    DATA     BYTE      P1
      00000080H   SFRSYM    DATA     BYTE      P0

      00FF173CH   BLOCK     CODE     ---       LVL=0
      00FF173CH   LINE      CODE     ---       #3
      00FF173CH   LINE      CODE     ---       #5
      00FF1748H   LINE      CODE     ---       #6
      00FF174FH   LINE      CODE     ---       #7
      00FF1758H   LINE      CODE     ---       #8
      00FF175FH   LINE      CODE     ---       #10
      00FF1767H   LINE      CODE     ---       #11
      00FF1770H   LINE      CODE     ---       #13
      00FF1779H   LINE      CODE     ---       #14
      00FF1782H   LINE      CODE     ---       #15
      ---         BLOCKEND  ---      ---       LVL=0

      00FF1ED1H   BLOCK     CODE     ---       LVL=0
      00FF1ED1H   LINE      CODE     ---       #17
      00FF1ED1H   LINE      CODE     ---       #19
      00FF1ED4H   LINE      CODE     ---       #20
      00FF1ED6H   LINE      CODE     ---       #21
      00FF1EE3H   LINE      CODE     ---       #22
      00FF1EEFH   LINE      CODE     ---       #23
      ---         BLOCKEND  ---      ---       LVL=0

      00FF1EB2H   BLOCK     CODE     ---       LVL=0
      00FF1EB2H   LINE      CODE     ---       #25
      00FF1EB2H   LINE      CODE     ---       #27
      00FF1EB5H   LINE      CODE     ---       #28
      00FF1EB7H   LINE      CODE     ---       #29
      00FF1EC4H   LINE      CODE     ---       #30
      00FF1ED0H   LINE      CODE     ---       #31
      ---         BLOCKEND  ---      ---       LVL=0

      00FF1F0FH   BLOCK     CODE     ---       LVL=0
      00FF1F0FH   LINE      CODE     ---       #33
      00FF1F0FH   LINE      CODE     ---       #35
      00FF1F12H   LINE      CODE     ---       #36
      00FF1F14H   LINE      CODE     ---       #37
      00FF1F21H   LINE      CODE     ---       #38
      00FF1F2DH   LINE      CODE     ---       #39
      ---         BLOCKEND  ---      ---       LVL=0

      00FF1EF0H   BLOCK     CODE     ---       LVL=0
      00FF1EF0H   LINE      CODE     ---       #41
      00FF1EF0H   LINE      CODE     ---       #43
      00FF1EF3H   LINE      CODE     ---       #44
L251 LINKER/LOCATER V4.66.93.0                                                        06/20/2023  10:07:46  PAGE 51


      00FF1EF5H   LINE      CODE     ---       #45
      00FF1F02H   LINE      CODE     ---       #46
      00FF1F0EH   LINE      CODE     ---       #47
      ---         BLOCKEND  ---      ---       LVL=0

      00FF23B8H   BLOCK     CODE     ---       LVL=0
      00FF23B8H   LINE      CODE     ---       #49
      00FF23B8H   LINE      CODE     ---       #51
      00FF23C8H   LINE      CODE     ---       #52
      00FF23CAH   LINE      CODE     ---       #53
      ---         BLOCKEND  ---      ---       LVL=0

      00FF23A5H   BLOCK     CODE     ---       LVL=0
      00FF23A5H   LINE      CODE     ---       #55
      00FF23A5H   LINE      CODE     ---       #57
      00FF23B5H   LINE      CODE     ---       #58
      00FF23B7H   LINE      CODE     ---       #59
      ---         BLOCKEND  ---      ---       LVL=0

      00FF23DEH   BLOCK     CODE     ---       LVL=0
      00FF23DEH   LINE      CODE     ---       #61
      00FF23DEH   LINE      CODE     ---       #63
      00FF23EEH   LINE      CODE     ---       #64
      00FF23F0H   LINE      CODE     ---       #65
      ---         BLOCKEND  ---      ---       LVL=0

      00FF23CBH   BLOCK     CODE     ---       LVL=0
      00FF23CBH   LINE      CODE     ---       #67
      00FF23CBH   LINE      CODE     ---       #69
      00FF23DBH   LINE      CODE     ---       #70
      00FF23DDH   LINE      CODE     ---       #71
      ---         BLOCKEND  ---      ---       LVL=0

      00FF232BH   BLOCK     CODE     ---       LVL=0
      WR0         REGSYM    ---      WORD      cycle
      00FF232BH   LINE      CODE     ---       #73
      00FF232DH   LINE      CODE     ---       #75
      00FF2338H   LINE      CODE     ---       #76
      00FF233FH   LINE      CODE     ---       #77
      ---         BLOCKEND  ---      ---       LVL=0

      00FF2301H   BLOCK     CODE     ---       LVL=0
      WR0         REGSYM    ---      WORD      duty
      00FF2301H   LINE      CODE     ---       #79
      00FF2303H   LINE      CODE     ---       #81
      00FF230EH   LINE      CODE     ---       #82
      00FF2315H   LINE      CODE     ---       #83
      ---         BLOCKEND  ---      ---       LVL=0

      00FF2316H   BLOCK     CODE     ---       LVL=0
      WR0         REGSYM    ---      WORD      duty
      00FF2316H   LINE      CODE     ---       #85
      00FF2318H   LINE      CODE     ---       #87
      00FF2323H   LINE      CODE     ---       #88
      00FF232AH   LINE      CODE     ---       #89
      ---         BLOCKEND  ---      ---       LVL=0

      00FF133EH   BLOCK     CODE     ---       LVL=0
      00FF133EH   LINE      CODE     ---       #91
      00FF133EH   LINE      CODE     ---       #93
      00FF134AH   LINE      CODE     ---       #94
      00FF1357H   LINE      CODE     ---       #96
      00FF135CH   LINE      CODE     ---       #97
      00FF1363H   LINE      CODE     ---       #98
      00FF136BH   LINE      CODE     ---       #99
L251 LINKER/LOCATER V4.66.93.0                                                        06/20/2023  10:07:46  PAGE 52


      00FF1374H   LINE      CODE     ---       #100
      00FF137CH   LINE      CODE     ---       #101
      00FF1385H   LINE      CODE     ---       #102
      00FF138EH   LINE      CODE     ---       #103
      00FF1397H   LINE      CODE     ---       #104
      ---         BLOCKEND  ---      ---       LVL=0

      00FF1286H   BLOCK     CODE     ---       LVL=0
      00FF1286H   LINE      CODE     ---       #106
      00FF1286H   LINE      CODE     ---       #108
      00FF1292H   LINE      CODE     ---       #109
      00FF129FH   LINE      CODE     ---       #110
      00FF12A4H   LINE      CODE     ---       #112
      00FF12ADH   LINE      CODE     ---       #113
      00FF12B5H   LINE      CODE     ---       #114
      00FF12BEH   LINE      CODE     ---       #115
      00FF12C6H   LINE      CODE     ---       #116
      00FF12CFH   LINE      CODE     ---       #117
      00FF12D8H   LINE      CODE     ---       #118
      00FF12E1H   LINE      CODE     ---       #119
      ---         BLOCKEND  ---      ---       LVL=0

      00FF12E2H   BLOCK     CODE     ---       LVL=0
      00FF12E2H   LINE      CODE     ---       #121
      00FF12E2H   LINE      CODE     ---       #123
      00FF12EEH   LINE      CODE     ---       #124
      00FF12FBH   LINE      CODE     ---       #126
      00FF1300H   LINE      CODE     ---       #127
      00FF1309H   LINE      CODE     ---       #128
      00FF1311H   LINE      CODE     ---       #129
      00FF131AH   LINE      CODE     ---       #130
      00FF1322H   LINE      CODE     ---       #131
      00FF132BH   LINE      CODE     ---       #132
      00FF1334H   LINE      CODE     ---       #133
      00FF133DH   LINE      CODE     ---       #134
      ---         BLOCKEND  ---      ---       LVL=0

      00FF1398H   BLOCK     CODE     ---       LVL=0
      00FF1398H   LINE      CODE     ---       #136
      00FF1398H   LINE      CODE     ---       #138
      00FF13A4H   LINE      CODE     ---       #139
      00FF13B1H   LINE      CODE     ---       #140
      00FF13B6H   LINE      CODE     ---       #142
      00FF13BFH   LINE      CODE     ---       #143
      00FF13C7H   LINE      CODE     ---       #144
      00FF13D0H   LINE      CODE     ---       #145
      00FF13D8H   LINE      CODE     ---       #146
      00FF13E1H   LINE      CODE     ---       #147
      00FF13E8H   LINE      CODE     ---       #148
      00FF13F1H   LINE      CODE     ---       #149
      ---         BLOCKEND  ---      ---       LVL=0

      ---         MODULE    ---      ---       spi
      00FF248EH   PUBLIC    CODE     ---       spi_init
      00FF1E0AH   PUBLIC    CODE     ---       SPI_RW
      000000D0H   SFRSYM    DATA     BYTE      PSW
      0000009DH   SFRSYM    DATA     BYTE      IRCBAND
      00000097H   SFRSYM    DATA     BYTE      AUXR2
      000000EFH   SFRSYM    DATA     BYTE      AUXINTIF
      000000FDH   SFRSYM    DATA     BYTE      S4CON
      000000ACH   SFRSYM    DATA     BYTE      S3CON
      0000009AH   SFRSYM    DATA     BYTE      S2CON
      000000B7H   SFRSYM    DATA     BYTE      IPH
      000000CDH   SFRSYM    DATA     BYTE      SPSTAT
      000000DDH   SFRSYM    DATA     BYTE      T4T3M
L251 LINKER/LOCATER V4.66.93.0                                                        06/20/2023  10:07:46  PAGE 53


      000000C1H   SFRSYM    DATA     BYTE      WDT_CONTR
      000000DFH   SFRSYM    DATA     BYTE      IP3
      000000F4H   SFRSYM    DATA     BYTE      USBCON
      000000B5H   SFRSYM    DATA     BYTE      IP2
      000000FFH   SFRSYM    DATA     BYTE      RSTCFG
      000000F9H   SFRSYM    DATA     BYTE      LINICR
      0000008EH   SFRSYM    DATA     BYTE      AUXR
      000000AFH   SFRSYM    DATA     BYTE      IE2
      000000A0H.5 SFRSYM    DATA     BIT       P25
      000000A0H.4 SFRSYM    DATA     BIT       P24
      00000088H   SFRSYM    DATA     BYTE      TCON
      000000A0H.3 SFRSYM    DATA     BIT       P23
      00000098H   SFRSYM    DATA     BYTE      SCON
      000000F1H   SFRSYM    DATA     BYTE      CANICR
      00000087H   SFRSYM    DATA     BYTE      PCON
      000000BCH   SFRSYM    DATA     BYTE      ADC_CONTR
      000000E7H   SFRSYM    DATA     BYTE      CMPCR2
      000000E6H   SFRSYM    DATA     BYTE      CMPCR1
      000000B8H   SFRSYM    DATA     BYTE      IP
      0000008FH   SFRSYM    DATA     BYTE      INTCLKO
      000000EEH   SFRSYM    DATA     BYTE      IP3H
      000000B6H   SFRSYM    DATA     BYTE      IP2H
      000000A8H   SFRSYM    DATA     BYTE      IE
      000000BBH   SFRSYM    DATA     BYTE      P_SW3
      000000BAH   SFRSYM    DATA     BYTE      P_SW2
      000000A2H   SFRSYM    DATA     BYTE      P_SW1
      000000CEH   SFRSYM    DATA     BYTE      SPCTL
      000000F8H   SFRSYM    DATA     BYTE      P7
      000000E8H   SFRSYM    DATA     BYTE      P6
      000000C8H   SFRSYM    DATA     BYTE      P5
      000000C0H   SFRSYM    DATA     BYTE      P4
      000000B0H   SFRSYM    DATA     BYTE      P3
      000000A0H   SFRSYM    DATA     BYTE      P2
      00000090H   SFRSYM    DATA     BYTE      P1
      00000080H   SFRSYM    DATA     BYTE      P0

      00FF248EH   BLOCK     CODE     ---       LVL=0
      00FF248EH   LINE      CODE     ---       #3
      00FF248EH   LINE      CODE     ---       #5
      00FF2490H   LINE      CODE     ---       #6
      ---         BLOCKEND  ---      ---       LVL=0

      00FF1E0AH   BLOCK     CODE     ---       LVL=0
      R6          REGSYM    ---      BYTE      byte
      00FF1E0CH   BLOCK     CODE     NEAR LAB  LVL=1
      R7          REGSYM    ---      BYTE      i
      ---         BLOCKEND  ---      ---       LVL=1
      00FF1E0AH   LINE      CODE     ---       #8
      00FF1E0CH   LINE      CODE     ---       #9
      00FF1E0CH   LINE      CODE     ---       #11
      00FF1E0FH   LINE      CODE     ---       #13
      00FF1E14H   LINE      CODE     ---       #14
      00FF1E18H   LINE      CODE     ---       #16
      00FF1E1AH   LINE      CODE     ---       #17
      00FF1E1CH   LINE      CODE     ---       #18
      00FF1E1EH   LINE      CODE     ---       #19
      00FF1E24H   LINE      CODE     ---       #20
      00FF1E26H   LINE      CODE     ---       #21
      00FF1E2AH   LINE      CODE     ---       #22
      00FF1E2CH   LINE      CODE     ---       #23
      ---         BLOCKEND  ---      ---       LVL=0

      ---         MODULE    ---      ---       rf24
      00FF1B4CH   PUBLIC    CODE     ---       RF24_RxPacket
      00FF1783H   PUBLIC    CODE     ---       RF24_TxPacket
L251 LINKER/LOCATER V4.66.93.0                                                        06/20/2023  10:07:46  PAGE 54


      00FF243CH   PUBLIC    CODE     ---       RF24_Set_Channel
      00FF184DH   PUBLIC    CODE     ---       RF24_Read_Buf
      00FF2473H   PUBLIC    CODE     ---       RF24_Read_Reg
      00FF244AH   PUBLIC    CODE     ---       RF24_Set_P0_Size
      00FF1AAAH   PUBLIC    CODE     ---       RF24_Write_Buf
      00FF2294H   PUBLIC    CODE     ---       RF24_Write_Reg
      00FF2340H   PUBLIC    CODE     ---       RF24_RX_Mode
      00FF2355H   PUBLIC    CODE     ---       RF24_TX_Mode
      00FF0003H   PUBLIC    CODE     ---       RF24_Init
      00FF1CA1H   PUBLIC    CODE     ---       RF24_Set_Rate
      00FF1F85H   PUBLIC    CODE     ---       RF24_Set_Power
      000000DAH   PUBLIC    EDATA    ---       TX_ADDRESS
      000000D0H   SFRSYM    DATA     BYTE      PSW
      0000009DH   SFRSYM    DATA     BYTE      IRCBAND
      00000097H   SFRSYM    DATA     BYTE      AUXR2
      000000EFH   SFRSYM    DATA     BYTE      AUXINTIF
      000000FDH   SFRSYM    DATA     BYTE      S4CON
      000000ACH   SFRSYM    DATA     BYTE      S3CON
      0000009AH   SFRSYM    DATA     BYTE      S2CON
      000000B7H   SFRSYM    DATA     BYTE      IPH
      000000CDH   SFRSYM    DATA     BYTE      SPSTAT
      000000DDH   SFRSYM    DATA     BYTE      T4T3M
      000000C1H   SFRSYM    DATA     BYTE      WDT_CONTR
      000000DFH   SFRSYM    DATA     BYTE      IP3
      000000F4H   SFRSYM    DATA     BYTE      USBCON
      000000B5H   SFRSYM    DATA     BYTE      IP2
      000000FFH   SFRSYM    DATA     BYTE      RSTCFG
      000000F9H   SFRSYM    DATA     BYTE      LINICR
      0000008EH   SFRSYM    DATA     BYTE      AUXR
      000000AFH   SFRSYM    DATA     BYTE      IE2
      000000A0H.7 SFRSYM    DATA     BIT       P27
      000000A0H.6 SFRSYM    DATA     BIT       P26
      000000A0H.5 SFRSYM    DATA     BIT       P25
      00000088H   SFRSYM    DATA     BYTE      TCON
      00000098H   SFRSYM    DATA     BYTE      SCON
      000000A0H.2 SFRSYM    DATA     BIT       P22
      000000F1H   SFRSYM    DATA     BYTE      CANICR
      00000087H   SFRSYM    DATA     BYTE      PCON
      000000BCH   SFRSYM    DATA     BYTE      ADC_CONTR
      000000E7H   SFRSYM    DATA     BYTE      CMPCR2
      000000E6H   SFRSYM    DATA     BYTE      CMPCR1
      000000B8H   SFRSYM    DATA     BYTE      IP
      0000008FH   SFRSYM    DATA     BYTE      INTCLKO
      000000EEH   SFRSYM    DATA     BYTE      IP3H
      000000B6H   SFRSYM    DATA     BYTE      IP2H
      000000A8H   SFRSYM    DATA     BYTE      IE
      000000BBH   SFRSYM    DATA     BYTE      P_SW3
      000000BAH   SFRSYM    DATA     BYTE      P_SW2
      000000A2H   SFRSYM    DATA     BYTE      P_SW1
      000000CEH   SFRSYM    DATA     BYTE      SPCTL
      000000F8H   SFRSYM    DATA     BYTE      P7
      000000E8H   SFRSYM    DATA     BYTE      P6
      000000C8H   SFRSYM    DATA     BYTE      P5
      000000C0H   SFRSYM    DATA     BYTE      P4
      000000B0H   SFRSYM    DATA     BYTE      P3
      000000A0H   SFRSYM    DATA     BYTE      P2
      00000090H   SFRSYM    DATA     BYTE      P1
      00000080H   SFRSYM    DATA     BYTE      P0

      00FF0003H   BLOCK     CODE     ---       LVL=0
      00FF0003H   LINE      CODE     ---       #10
      00FF0003H   LINE      CODE     ---       #12
      00FF0005H   LINE      CODE     ---       #13
      00FF0007H   LINE      CODE     ---       #14
      00FF0009H   LINE      CODE     ---       #16
L251 LINKER/LOCATER V4.66.93.0                                                        06/20/2023  10:07:46  PAGE 55


      ---         BLOCKEND  ---      ---       LVL=0

      00FF2294H   BLOCK     CODE     ---       LVL=0
      R7          REGSYM    ---      BYTE      reg
      R15         REGSYM    ---      BYTE      value
      00FF2298H   BLOCK     CODE     NEAR LAB  LVL=1
      R14         REGSYM    ---      BYTE      status
      ---         BLOCKEND  ---      ---       LVL=1
      00FF2294H   LINE      CODE     ---       #25
      00FF2298H   LINE      CODE     ---       #26
      00FF2298H   LINE      CODE     ---       #29
      00FF229AH   LINE      CODE     ---       #30
      00FF229FH   LINE      CODE     ---       #31
      00FF22A4H   LINE      CODE     ---       #32
      00FF22A6H   LINE      CODE     ---       #34
      00FF22A8H   LINE      CODE     ---       #35
      ---         BLOCKEND  ---      ---       LVL=0

      00FF1AAAH   BLOCK     CODE     ---       LVL=0
      R7          REGSYM    ---      BYTE      reg
      REG=3       REGSYM    ---      ---       pBuf
      00000025H   SYMBOL    EDATA    BYTE      bytes
      00FF1AB2H   BLOCK     CODE     NEAR LAB  LVL=1
      00000026H   SYMBOL    EDATA    BYTE      status
      00000027H   SYMBOL    EDATA    BYTE      byte_ctr
      ---         BLOCKEND  ---      ---       LVL=1
      00FF1AAAH   LINE      CODE     ---       #45
      00FF1AB2H   LINE      CODE     ---       #46
      00FF1AB2H   LINE      CODE     ---       #49
      00FF1AB4H   LINE      CODE     ---       #50
      00FF1ABBH   LINE      CODE     ---       #51
      00FF1ABEH   LINE      CODE     ---       #52
      00FF1AD9H   LINE      CODE     ---       #53
      00FF1ADBH   LINE      CODE     ---       #55
      00FF1ADFH   LINE      CODE     ---       #56
      ---         BLOCKEND  ---      ---       LVL=0

      00FF2473H   BLOCK     CODE     ---       LVL=0
      R7          REGSYM    ---      BYTE      reg
      R11         REGSYM    ---      BYTE      value
      00FF2473H   LINE      CODE     ---       #64
      00FF2473H   LINE      CODE     ---       #65
      00FF2473H   LINE      CODE     ---       #68
      00FF2475H   LINE      CODE     ---       #69
      00FF2478H   LINE      CODE     ---       #70
      00FF247CH   LINE      CODE     ---       #71
      00FF247EH   LINE      CODE     ---       #73
      00FF247EH   LINE      CODE     ---       #74
      ---         BLOCKEND  ---      ---       LVL=0

      00FF184DH   BLOCK     CODE     ---       LVL=0
      R7          REGSYM    ---      BYTE      reg
      REG=3       REGSYM    ---      ---       pBuf
      00000025H   SYMBOL    EDATA    BYTE      bytes
      00FF1855H   BLOCK     CODE     NEAR LAB  LVL=1
      00000026H   SYMBOL    EDATA    BYTE      status
      00000027H   SYMBOL    EDATA    BYTE      byte_ctr
      ---         BLOCKEND  ---      ---       LVL=1
      00FF184DH   LINE      CODE     ---       #84
      00FF1855H   LINE      CODE     ---       #85
      00FF1855H   LINE      CODE     ---       #88
      00FF1857H   LINE      CODE     ---       #89
      00FF185EH   LINE      CODE     ---       #90
      00FF1861H   LINE      CODE     ---       #91
      00FF1885H   LINE      CODE     ---       #92
L251 LINKER/LOCATER V4.66.93.0                                                        06/20/2023  10:07:46  PAGE 56


      00FF1887H   LINE      CODE     ---       #94
      00FF188BH   LINE      CODE     ---       #95
      ---         BLOCKEND  ---      ---       LVL=0

      00FF2340H   BLOCK     CODE     ---       LVL=0
      00FF2340H   LINE      CODE     ---       #103
      00FF2340H   LINE      CODE     ---       #105
      00FF2342H   LINE      CODE     ---       #112
      00FF234AH   LINE      CODE     ---       #113
      00FF2352H   LINE      CODE     ---       #114
      00FF2354H   LINE      CODE     ---       #115
      ---         BLOCKEND  ---      ---       LVL=0

      00FF2355H   BLOCK     CODE     ---       LVL=0
      00FF2355H   LINE      CODE     ---       #123
      00FF2355H   LINE      CODE     ---       #125
      00FF2357H   LINE      CODE     ---       #134
      00FF235FH   LINE      CODE     ---       #135
      00FF2367H   LINE      CODE     ---       #136
      00FF2369H   LINE      CODE     ---       #137
      ---         BLOCKEND  ---      ---       LVL=0

      00FF1B4CH   BLOCK     CODE     ---       LVL=0
      REG=3       REGSYM    ---      ---       rxbuf
      00FF1B50H   BLOCK     CODE     NEAR LAB  LVL=1
      000000ECH   SYMBOL    EDATA    BYTE      state
      ---         BLOCKEND  ---      ---       LVL=1
      00FF1B4CH   LINE      CODE     ---       #146
      00FF1B50H   LINE      CODE     ---       #147
      00FF1B50H   LINE      CODE     ---       #149
      00FF1B5BH   LINE      CODE     ---       #150
      00FF1B60H   LINE      CODE     ---       #152
      00FF1B67H   LINE      CODE     ---       #154
      00FF1B71H   LINE      CODE     ---       #155
      00FF1B79H   LINE      CODE     ---       #156
      00FF1B7CH   LINE      CODE     ---       #157
      00FF1B7CH   LINE      CODE     ---       #158
      00FF1B7EH   LINE      CODE     ---       #159
      ---         BLOCKEND  ---      ---       LVL=0

      00FF1783H   BLOCK     CODE     ---       LVL=0
      REG=1       REGSYM    ---      ---       txbuf
      00FF1785H   BLOCK     CODE     NEAR LAB  LVL=1
      R15         REGSYM    ---      BYTE      state
      ---         BLOCKEND  ---      ---       LVL=1
      00FF1783H   LINE      CODE     ---       #169
      00FF1785H   LINE      CODE     ---       #170
      00FF1785H   LINE      CODE     ---       #172
      00FF1787H   LINE      CODE     ---       #173
      00FF178FH   LINE      CODE     ---       #174
      00FF1791H   LINE      CODE     ---       #176
      00FF179AH   LINE      CODE     ---       #177
      00FF17A1H   LINE      CODE     ---       #178
      00FF17A8H   LINE      CODE     ---       #179
      00FF17ADH   LINE      CODE     ---       #181
      00FF17B5H   LINE      CODE     ---       #182
      00FF17B9H   LINE      CODE     ---       #183
      00FF17B9H   LINE      CODE     ---       #184
      00FF17BEH   LINE      CODE     ---       #186
      00FF17C2H   LINE      CODE     ---       #187
      00FF17C2H   LINE      CODE     ---       #188
      00FF17C4H   LINE      CODE     ---       #189
      ---         BLOCKEND  ---      ---       LVL=0

      00FF1F85H   BLOCK     CODE     ---       LVL=0
L251 LINKER/LOCATER V4.66.93.0                                                        06/20/2023  10:07:46  PAGE 57


      R15         REGSYM    ---      BYTE      p
      00FF1F89H   BLOCK     CODE     NEAR LAB  LVL=1
      R7          REGSYM    ---      BYTE      temp
      ---         BLOCKEND  ---      ---       LVL=1
      00FF1F85H   LINE      CODE     ---       #191
      00FF1F89H   LINE      CODE     ---       #192
      00FF1F89H   LINE      CODE     ---       #194
      00FF1F8BH   LINE      CODE     ---       #195
      00FF1F92H   LINE      CODE     ---       #196
      00FF1F95H   LINE      CODE     ---       #197
      00FF1F97H   LINE      CODE     ---       #198
      00FF1F9CH   LINE      CODE     ---       #199
      00FF1F9EH   LINE      CODE     ---       #200
      ---         BLOCKEND  ---      ---       LVL=0

      00FF243CH   BLOCK     CODE     ---       LVL=0
      R10         REGSYM    ---      BYTE      ch
      00FF243CH   LINE      CODE     ---       #202
      00FF243EH   LINE      CODE     ---       #204
      00FF2440H   LINE      CODE     ---       #205
      00FF2447H   LINE      CODE     ---       #206
      00FF2449H   LINE      CODE     ---       #207
      ---         BLOCKEND  ---      ---       LVL=0

      00FF1CA1H   BLOCK     CODE     ---       LVL=0
      R15         REGSYM    ---      BYTE      rate
      00FF1CA5H   BLOCK     CODE     NEAR LAB  LVL=1
      R7          REGSYM    ---      BYTE      temp
      ---         BLOCKEND  ---      ---       LVL=1
      00FF1CA1H   LINE      CODE     ---       #209
      00FF1CA5H   LINE      CODE     ---       #210
      00FF1CA5H   LINE      CODE     ---       #212
      00FF1CA7H   LINE      CODE     ---       #213
      00FF1CAEH   LINE      CODE     ---       #214
      00FF1CB1H   LINE      CODE     ---       #215
      00FF1CBBH   LINE      CODE     ---       #216
      00FF1CC4H   LINE      CODE     ---       #217
      00FF1CC9H   LINE      CODE     ---       #218
      00FF1CCBH   LINE      CODE     ---       #219
      ---         BLOCKEND  ---      ---       LVL=0

      00FF244AH   BLOCK     CODE     ---       LVL=0
      R10         REGSYM    ---      BYTE      len
      00FF244AH   LINE      CODE     ---       #221
      00FF244CH   LINE      CODE     ---       #223
      00FF244EH   LINE      CODE     ---       #224
      00FF2455H   LINE      CODE     ---       #225
      00FF2457H   LINE      CODE     ---       #226
      ---         BLOCKEND  ---      ---       LVL=0

      ---         MODULE    ---      ---       timer
      00FF1BB4H   PUBLIC    CODE     ---       timer0_isr
      00FF1BE7H   PUBLIC    CODE     ---       timer0_init
      000000D0H   SFRSYM    DATA     BYTE      PSW
      0000009DH   SFRSYM    DATA     BYTE      IRCBAND
      00000097H   SFRSYM    DATA     BYTE      AUXR2
      000000EFH   SFRSYM    DATA     BYTE      AUXINTIF
      000000FDH   SFRSYM    DATA     BYTE      S4CON
      000000ACH   SFRSYM    DATA     BYTE      S3CON
      0000009AH   SFRSYM    DATA     BYTE      S2CON
      000000B7H   SFRSYM    DATA     BYTE      IPH
      000000CDH   SFRSYM    DATA     BYTE      SPSTAT
      000000DDH   SFRSYM    DATA     BYTE      T4T3M
      000000C1H   SFRSYM    DATA     BYTE      WDT_CONTR
      00000088H.4 SFRSYM    DATA     BIT       TR0
L251 LINKER/LOCATER V4.66.93.0                                                        06/20/2023  10:07:46  PAGE 58


      0000008AH   SFRSYM    DATA     BYTE      TL0
      0000008CH   SFRSYM    DATA     BYTE      TH0
      000000DFH   SFRSYM    DATA     BYTE      IP3
      000000F4H   SFRSYM    DATA     BYTE      USBCON
      000000B5H   SFRSYM    DATA     BYTE      IP2
      000000FFH   SFRSYM    DATA     BYTE      RSTCFG
      000000A8H.1 SFRSYM    DATA     BIT       ET0
      000000F9H   SFRSYM    DATA     BYTE      LINICR
      0000008EH   SFRSYM    DATA     BYTE      AUXR
      000000AFH   SFRSYM    DATA     BYTE      IE2
      00000088H   SFRSYM    DATA     BYTE      TCON
      00000089H   SFRSYM    DATA     BYTE      TMOD
      00000098H   SFRSYM    DATA     BYTE      SCON
      000000F1H   SFRSYM    DATA     BYTE      CANICR
      00000087H   SFRSYM    DATA     BYTE      PCON
      000000BCH   SFRSYM    DATA     BYTE      ADC_CONTR
      000000E7H   SFRSYM    DATA     BYTE      CMPCR2
      000000E6H   SFRSYM    DATA     BYTE      CMPCR1
      000000B8H   SFRSYM    DATA     BYTE      IP
      0000008FH   SFRSYM    DATA     BYTE      INTCLKO
      000000EEH   SFRSYM    DATA     BYTE      IP3H
      000000B6H   SFRSYM    DATA     BYTE      IP2H
      000000A8H   SFRSYM    DATA     BYTE      IE
      000000BBH   SFRSYM    DATA     BYTE      P_SW3
      000000BAH   SFRSYM    DATA     BYTE      P_SW2
      000000A2H   SFRSYM    DATA     BYTE      P_SW1
      000000CEH   SFRSYM    DATA     BYTE      SPCTL
      000000F8H   SFRSYM    DATA     BYTE      P7
      000000E8H   SFRSYM    DATA     BYTE      P6
      000000C8H   SFRSYM    DATA     BYTE      P5
      000000C0H   SFRSYM    DATA     BYTE      P4
      000000B0H   SFRSYM    DATA     BYTE      P3
      000000A0H   SFRSYM    DATA     BYTE      P2
      00000090H   SFRSYM    DATA     BYTE      P1
      00000080H   SFRSYM    DATA     BYTE      P0
      000000E9H   SYMBOL    EDATA    ---       timer0_fun

      00FF1BB4H   BLOCK     CODE     ---       LVL=0
      00FF1BB4H   LINE      CODE     ---       #4
      00FF1BCAH   LINE      CODE     ---       #6
      00FF1BD0H   LINE      CODE     ---       #7
      ---         BLOCKEND  ---      ---       LVL=0

      00FF1BE7H   BLOCK     CODE     ---       LVL=0
      WR28        REGSYM    ---      WORD      _us
      REG=15      REGSYM    ---      ---       p
      00FF1BEBH   BLOCK     CODE     NEAR LAB  LVL=1
      WR28        REGSYM    ---      WORD      tmp
      ---         BLOCKEND  ---      ---       LVL=1
      00FF1BE7H   LINE      CODE     ---       #9
      00FF1BEBH   LINE      CODE     ---       #10
      00FF1BEBH   LINE      CODE     ---       #11
      00FF1C00H   LINE      CODE     ---       #12
      00FF1C03H   LINE      CODE     ---       #13
      00FF1C09H   LINE      CODE     ---       #14
      00FF1C0FH   LINE      CODE     ---       #15
      00FF1C11H   LINE      CODE     ---       #16
      00FF1C13H   LINE      CODE     ---       #17
      00FF1C17H   LINE      CODE     ---       #18
      ---         BLOCKEND  ---      ---       LVL=0

      ---         MODULE    ---      ---       VSPRINTF
      00000049H   PUBLIC    EDATA    ---       ?VSPRINTF?BYTE
      00FF00CEH   PUBLIC    CODE     NEAR LAB  VSPRINTF

L251 LINKER/LOCATER V4.66.93.0                                                        06/20/2023  10:07:46  PAGE 59


      ---         MODULE    ---      ---       ?C?PRNFMT
      00FF0117H   PUBLIC    CODE     ---       ?C?PRNFMT

      ---         MODULE    ---      ---       ?C?FPCONVERT
      00FF0534H   PUBLIC    CODE     ---       ?C?FPCONVERT
      00FF05ECH   PUBLIC    CODE     ---       ?C?FPROUND

      ---         MODULE    ---      ---       ?C?FPMUL
      00FF062FH   PUBLIC    CODE     ---       ?C?FPMUL

      ---         MODULE    ---      ---       ?C?FPDIV
      00FF06CFH   PUBLIC    CODE     ---       ?C?FPDIV

      ---         MODULE    ---      ---       ?C?FTNPWR
      00FF0780H   PUBLIC    CODE     ---       ?C?FTNPWR

      ---         MODULE    ---      ---       ?C?FPGETOPN
      00FF07B7H   PUBLIC    CODE     ---       ?C?FPGETOPN2
      00FF07F4H   PUBLIC    CODE     ---       ?C?FPNANRESULT
      00FF07FCH   PUBLIC    CODE     ---       ?C?FPOVERFLOW
      00FF07D0H   PUBLIC    CODE     ---       ?C?FPRESULT
      00FF07E6H   PUBLIC    CODE     ---       ?C?FPRESULT2
      00FF07F9H   PUBLIC    CODE     ---       ?C?FPUNDERFLOW

      ---         MODULE    ---      ---       ?C_START
      00FF0000H   PUBLIC    CODE     ---       ?C?STARTUP
      00FF0000H   PUBLIC    CODE     ---       ?C_STARTUP

      ---         MODULE    ---      ---       ?C?INITEDATA
      00FF1821H   PUBLIC    CODE     ---       ?C?INITEDATA

      ---         MODULE    ---      ---       ?C?LMUL
      00FF0808H   PUBLIC    CODE     ---       ?C?LMUL

      ---         MODULE    ---      ---       ?C?ULDIV
      00FF081BH   PUBLIC    CODE     NEAR LAB  ?C?ULDIV
      00FF0819H   PUBLIC    CODE     NEAR LAB  ?C?ULIDIV

      ---         MODULE    ---      ---       STRLEN
      00FF2458H   PUBLIC    CODE     ---       strlen?_

      ---         MODULE    ---      ---       memcpy
      00FF1DE5H   PUBLIC    CODE     ---       memcpy?_

      ---         MODULE    ---      ---       ?C?INITEDATA_END
      00FF2548H   PUBLIC    HCONST   WORD      ?C?INITEDATA_END

Program Size: data=8.6 edata+hdata=484 xdata=192 const=185 code=9361
L251 RUN COMPLETE.  0 WARNING(S),  0 ERROR(S)
