L251 LINKER/LOCATER V4.66.93.0                                                          06/18/2023  10:11:36  PAGE 1


L251 LINKER/LOCATER V4.66.93.0, INVOKED BY:
D:\KEIL_V251\C251\BIN\L251.EXE .\obj\main.obj, .\src\stc_usb_cdc_32g.LIB, .\obj\debug.obj, .\obj\i2c.obj, .\obj\mpu6050.
>> obj, .\obj\pwm.obj TO .\obj\stc_usb_ser PRINT (.\obj\stc_usb_ser.map) CASE DISABLEWARNING (57) CLASSES (EDATA (0X0-0X
>> FFF), HDATA (0X0-0XFFF))


CPU MODE:     251 SOURCE MODE
INTR FRAME:   2 BYTES SAVED ON INTERRUPT
MEMORY MODEL: XSMALL WITH FLOATING POINT ARITHMETIC


INPUT MODULES INCLUDED:
  .\obj\main.obj (main)
         COMMENT TYPE 0: C251 V5.60.0
  .\src\stc_usb_cdc_32g.LIB (usb)
         COMMENT TYPE 0: C251 V5.60.0
  .\src\stc_usb_cdc_32g.LIB (util)
         COMMENT TYPE 0: C251 V5.60.0
  .\src\stc_usb_cdc_32g.LIB (usb_req_class)
         COMMENT TYPE 0: C251 V5.60.0
  .\src\stc_usb_cdc_32g.LIB (usb_req_std)
         COMMENT TYPE 0: C251 V5.60.0
  .\src\stc_usb_cdc_32g.LIB (usb_req_vendor)
         COMMENT TYPE 0: C251 V5.60.0
  .\src\stc_usb_cdc_32g.LIB (usb_desc)
         COMMENT TYPE 0: C251 V5.60.0
  .\obj\debug.obj (debug)
         COMMENT TYPE 0: C251 V5.60.0
  .\obj\i2c.obj (i2c)
         COMMENT TYPE 0: C251 V5.60.0
  .\obj\mpu6050.obj (mpu6050)
         COMMENT TYPE 0: C251 V5.60.0
  .\obj\pwm.obj (pwm)
         COMMENT TYPE 0: C251 V5.60.0
  D:\KEIL_V251\C251\LIB\C2SFPXS.LIB (VSPRINTF)
         COMMENT TYPE 0: A251 V4.69.6.0
  D:\KEIL_V251\C251\LIB\C2SFPXS.LIB (?C?PRNFMT)
         COMMENT TYPE 0: A251 V4.69.6.0
  D:\KEIL_V251\C251\LIB\C2SFPXS.LIB (?C?FPCONVERT)
         COMMENT TYPE 0: A251 V4.69.6.0
  D:\KEIL_V251\C251\LIB\C2SFPXS.LIB (?C?FPMUL)
         COMMENT TYPE 0: A251 V4.69.6.0
  D:\KEIL_V251\C251\LIB\C2SFPXS.LIB (?C?FPDIV)
         COMMENT TYPE 0: A251 V4.69.6.0
  D:\KEIL_V251\C251\LIB\C2SFPXS.LIB (?C?FTNPWR)
         COMMENT TYPE 0: A251 V4.69.6.0
  D:\KEIL_V251\C251\LIB\C2SFPXS.LIB (?C?FPGETOPN)
         COMMENT TYPE 0: A251 V4.69.6.0
  D:\KEIL_V251\C251\LIB\C2SXS.LIB (?C_START)
         COMMENT TYPE 0: A251 V4.69.6.0
  D:\KEIL_V251\C251\LIB\C2SXS.LIB (?C?INITEDATA)
         COMMENT TYPE 0: A251 V4.69.6.0
  D:\KEIL_V251\C251\LIB\C2SXS.LIB (?C?LMUL)
         COMMENT TYPE 0: A251 V4.69.6.0
  D:\KEIL_V251\C251\LIB\C2SXS.LIB (STRLEN)
         COMMENT TYPE 0: C251 V5.58.7
  D:\KEIL_V251\C251\LIB\C2SXS.LIB (memcpy)
         COMMENT TYPE 0: C251 V5.58.7
  D:\KEIL_V251\C251\LIB\C2SXS.LIB (?C?INITEDATA_END)
         COMMENT TYPE 0: A251 V4.69.6.0


ACTIVE MEMORY CLASSES OF MODULE:  .\obj\stc_usb_ser (main)

BASE        START       END         USED      MEMORY CLASS
==========================================================
L251 LINKER/LOCATER V4.66.93.0                                                        06/18/2023  10:11:36  PAGE 2


000000H     000000H     000FFFH     0001C6H   EDATA
000000H     000000H     000FFFH               HDATA
000000H     FF0000H     FFFFFFH     00008EH   HCONST
FF0000H     FF0000H     FFFFFFH     00217DH   CODE
000020H.0   000020H.0   00002FH.7   000000H.4 BIT
010000H     010000H     01FFFFH     0000C0H   XDATA
FF0000H     FF0000H     FFFFFFH     000004H   CONST
000000H     000000H     00007FH     000008H   DATA


MEMORY MAP OF MODULE:  .\obj\stc_usb_ser (main)


START     STOP      LENGTH    ALIGN  RELOC    MEMORY CLASS   SEGMENT NAME
=========================================================================
000000H   000007H   000008H   ---    AT..     DATA           "REG BANK 0"
000008H   00001BH   000014H   BYTE   UNIT     EDATA          ?ED?USB
00001CH   00001FH   000004H   BYTE   UNIT     EDATA          ?ED?SEG7_SHOWLONG?UTIL
000020H.0 000020H.2 000000H.3 BIT    UNIT     BIT            ?BI?USB
000020H.3 000020H.3 000000H.1 BIT    UNIT     BIT            ?BI?MAIN
000020H.4 000020H   000000H.4 ---    ---      **GAP**
000021H   000054H   000034H   BYTE   UNIT     EDATA          _EDATA_GROUP_
000055H   000080H   00002CH   BYTE   UNIT     EDATA          ?ED?SEG7_SHOWSTRING?UTIL
000081H   00009CH   00001CH   BYTE   UNIT     EDATA          ?ED?MAIN
00009DH   0000AAH   00000EH   BYTE   UNIT     EDATA          ?ED?MPU6050_READ?MPU6050
0000ABH   0000B2H   000008H   BYTE   UNIT     EDATA          ?ED?REVERSE4?UTIL
0000B3H   0000B9H   000007H   BYTE   UNIT     EDATA          ?ED?USB_REQ_CLASS
0000BAH   0000BEH   000005H   BYTE   UNIT     EDATA          ?ED?LCD12864_SETBUFFER?UTIL
0000BFH   0000C3H   000005H   BYTE   UNIT     EDATA          ?ED?OLED12864_SETBUFFER?UTIL
0000C4H   0000C7H   000004H   BYTE   UNIT     EDATA          ?ED?I2C_WRITE?I2C
0000C8H   0000CBH   000004H   BYTE   UNIT     EDATA          ?ED?I2C_READ?I2C
0000CCH   0000CDH   000002H   BYTE   UNIT     EDATA          ?ED?LCD12864_SHOWSTRING?UTIL
0000CEH   0000CEH   000001H   BYTE   UNIT     EDATA          ?ED?MPU6050_INIT?MPU6050
0000CFH   0001CEH   000100H   BYTE   UNIT     EDATA          ?STACK
0001CFH   00FFFFH   00FE31H   ---    ---      **GAP**
010000H   0100BFH   0000C0H   BYTE   INSEG    XDATA          ?XD?USB
0100C0H   FEFFFFH   FDFF40H   ---    ---      **GAP**
FF0000H   FF0002H   000003H   ---    OFFS..   CODE           ?CO?start251?4
FF0003H   FF00C6H   0000C4H   BYTE   INSEG    CODE           ?PR?USB_OUT_EP1?USB
FF00C7H   FF00C9H   000003H   BYTE   INSEG    CODE           ?PR?USB_SET_DESCRIPTOR?USB_REQ_STD
FF00CAH   FF00CAH   000001H   BYTE   INSEG    CODE           ?PR?USB_SUSPEND?USB
FF00CBH   FF00CDH   000003H   ---    OFFS..   CODE           ?PR?IV?25
FF00CEH   FF0818H   00074BH   BYTE   UNIT     CODE           ?C?LIB_CODE
FF0819H   FF091BH   000103H   BYTE   INSEG    CODE           ?PR?USB_GET_STATUS?USB_REQ_STD
FF091CH   FF09DAH   0000BFH   BYTE   INSEG    CODE           ?PR?MAIN?MAIN
FF09DBH   FF0A7FH   0000A5H   BYTE   INSEG    CODE           ?PR?USB_SET_CONFIGURATION?USB_REQ_STD
FF0A80H   FF0B1EH   00009FH   BYTE   INSEG    CODE           ?PR?USB_CLEAR_FEATURE?USB_REQ_STD
FF0B1FH   FF0BBDH   00009FH   BYTE   INSEG    CODE           ?PR?USB_GET_DESCRIPTOR?USB_REQ_STD
FF0BBEH   FF0C56H   000099H   BYTE   INSEG    CODE           ?PR?USB_SET_FEATURE?USB_REQ_STD
FF0C57H   FF0CEEH   000098H   BYTE   INSEG    CODE           ?PR?OLED12864_SETBUFFER?UTIL
FF0CEFH   FF0D86H   000098H   BYTE   INSEG    CODE           ?PR?LCD12864_SETBUFFER?UTIL
FF0D87H   FF0E10H   00008AH   BYTE   INSEG    CODE           ?PR?USB_SETUP?USB
FF0E11H   FF0E95H   000085H   BYTE   INSEG    CODE           ?PR?MPU6050_READ?MPU6050
FF0E96H   FF0F19H   000084H   BYTE   INSEG    CODE           ?PR?USB_ISR?USB
FF0F1AH   FF0F9CH   000083H   BYTE   UNIT     CODE           ?CO?USB_DESC
FF0F9DH   FF1016H   00007AH   BYTE   INSEG    CODE           ?PR?I2C_READ?I2C
FF1017H   FF107DH   000067H   BYTE   INSEG    CODE           ?PR?USB_CTRL_IN?USB
FF107EH   FF10DEH   000061H   BYTE   INSEG    CODE           ?PR?REVERSE4?UTIL
FF10DFH   FF113CH   00005EH   BYTE   INSEG    CODE           ?PR?USB_INIT?USB
FF113DH   FF1198H   00005CH   BYTE   INSEG    CODE           ?PR?USB_REQ_STD?USB_REQ_STD
FF1199H   FF11F4H   00005CH   BYTE   INSEG    CODE           ?PR?PWM1N_CONFIG?PWM
FF11F5H   FF1250H   00005CH   BYTE   INSEG    CODE           ?PR?PWM4P_CONFIG?PWM
FF1251H   FF12AAH   00005AH   BYTE   INSEG    CODE           ?PR?PWM1P_CONFIG?PWM
FF12ABH   FF1304H   00005AH   BYTE   INSEG    CODE           ?PR?PWM4N_CONFIG?PWM
FF1305H   FF1358H   000054H   BYTE   INSEG    CODE           ?PR?USB_GET_CONFIGURATION?USB_REQ_STD
L251 LINKER/LOCATER V4.66.93.0                                                        06/18/2023  10:11:36  PAGE 3


FF1359H   FF13ABH   000053H   BYTE   INSEG    CODE           ?PR?MPU6050_INIT?MPU6050
FF13ACH   FF13FAH   00004FH   BYTE   INSEG    CODE           ?PR?I2C_SCAN?MAIN
FF13FBH   FF1449H   00004FH   BYTE   INSEG    CODE           ?PR?LCD12864_SHOWPICTURE?UTIL
FF144AH   FF1498H   00004FH   BYTE   INSEG    CODE           ?PR?I2C_WRITE?I2C
FF1499H   FF14E5H   00004DH   BYTE   INSEG    CODE           ?PR?USB_CTRL_OUT?USB
FF14E6H   FF152FH   00004AH   BYTE   INSEG    CODE           ?PR?USB_SET_ADDRESS?USB_REQ_STD
FF1530H   FF1578H   000049H   BYTE   INSEG    CODE           ?PR?SEG7_SHOWSTRING?UTIL
FF1579H   FF15C0H   000048H   BYTE   INSEG    CODE           ?PR?USB_RESET?USB
FF15C1H   FF1607H   000047H   BYTE   INSEG    CODE           ?PR?LED40_SENDDATA?UTIL
FF1608H   FF164EH   000047H   BYTE   INSEG    CODE           ?PR?LED64_SENDDATA?UTIL
FF164FH   FF1695H   000047H   BYTE   INSEG    CODE           ?PR?PWM_INIT?PWM
FF1696H   FF16D5H   000040H   BYTE   INSEG    CODE           ?PR?OLED12864_SHOWPICTURE?UTIL
FF16D6H   FF1714H   00003FH   BYTE   INSEG    CODE           ?PR?SYS_INIT?MAIN
FF1715H   FF1727H   000013H   BYTE   UNIT     CODE           ?C_C51STARTUP
FF1728H   FF1750H   000029H   BYTE   UNIT     CODE           ?C_C51STARTUP?2
FF1751H   FF1753H   000003H   BYTE   UNIT     CODE           ?C_C51STARTUP?3
FF1754H   FF1791H   00003EH   BYTE   INSEG    CODE           ?PR?USB_GET_INTERFACE?USB_REQ_STD
FF1792H   FF17CEH   00003DH   BYTE   INSEG    CODE           ?PR?KEYRESETSCAN?MAIN
FF17CFH   FF180BH   00003DH   BYTE   INSEG    CODE           ?PR?SEG7_SHOWLONG?UTIL
FF180CH   FF1848H   00003DH   BYTE   INSEG    CODE           ?PR?LCD12864_SHOWSTRING?UTIL
FF1849H   FF1882H   00003AH   BYTE   INSEG    CODE           ?PR?USB_READ_FIFO?_?USB
FF1883H   FF18BCH   00003AH   BYTE   INSEG    CODE           ?PR?OLED12864_SCROLLRIGHT?UTIL
FF18BDH   FF18F6H   00003AH   BYTE   INSEG    CODE           ?PR?OLED12864_SCROLLUP?UTIL
FF18F7H   FF192FH   000039H   BYTE   INSEG    CODE           ?PR?OLED12864_SCROLLLEFT?UTIL
FF1930H   FF1964H   000035H   BYTE   INSEG    CODE           ?PR?SEG7_SHOWCODE?UTIL
FF1965H   FF1999H   000035H   BYTE   INSEG    CODE           ?PR?REVERSE2?UTIL
FF199AH   FF19CCH   000033H   BYTE   INSEG    CODE           ?PR?SEG7_SHOWFLOAT?UTIL
FF19CDH   FF19FBH   00002FH   BYTE   INSEG    CODE           ?PR?USB_IN?USB
FF19FCH   FF1A28H   00002DH   BYTE   INSEG    CODE           ?PR?USB_IN_EP1?USB
FF1A29H   FF1A55H   00002DH   BYTE   INSEG    CODE           ?PR?PRINTF_HID?UTIL
FF1A56H   FF1A80H   00002BH   BYTE   INSEG    CODE           ?PR?USB_IN_EP2?USB
FF1A81H   FF1AA9H   000029H   BYTE   INSEG    CODE           ?PR?USB_WRITE_FIFO?_?USB
FF1AAAH   FF1AD1H   000028H   BYTE   INSEG    CODE           ?PR?USB_SET_INTERFACE?USB_REQ_STD
FF1AD2H   FF1AF9H   000028H   BYTE   INSEG    CODE           ?PR?DEBUG_INIT?DEBUG
FF1AFAH   FF1B20H   000027H   BYTE   INSEG    CODE           ?PR?LCD12864_SCROLLUP?UTIL
FF1B21H   FF1B46H   000026H   BYTE   INSEG    CODE           ?PR?USB_GET_LINE_CODING?USB_REQ_CLASS
FF1B47H   FF1B6CH   000026H   BYTE   INSEG    CODE           ?PR?USB_SET_LINE_CODING?USB_REQ_CLASS
FF1B6DH   FF1B91H   000025H   BYTE   INSEG    CODE           ?PR?MEMCPY?_?MEMCPY
FF1B92H   FF1BB3H   000022H   BYTE   INSEG    CODE           ?PR?I2C_INIT?I2C
FF1BB4H   FF1BD4H   000021H   BYTE   INSEG    CODE           ?PR?OLED12864_SETADDRESSMODE?UTIL
FF1BD5H   FF1BF5H   000021H   BYTE   INSEG    CODE           ?PR?OLED12864_SETCONTRAST?UTIL
FF1BF6H   FF1C16H   000021H   BYTE   INSEG    CODE           ?PR?LCD12864_REVERSELINE?UTIL
FF1C17H   FF1C35H   00001FH   BYTE   INSEG    CODE           ?PR?PWM1N_ENABLE?PWM
FF1C36H   FF1C54H   00001FH   BYTE   INSEG    CODE           ?PR?PWM1P_ENABLE?PWM
FF1C55H   FF1C73H   00001FH   BYTE   INSEG    CODE           ?PR?PWM4N_ENABLE?PWM
FF1C74H   FF1C92H   00001FH   BYTE   INSEG    CODE           ?PR?PWM4P_ENABLE?PWM
FF1C93H   FF1CB0H   00001EH   BYTE   INSEG    CODE           ?PR?I2C_RECVACK?I2C
FF1CB1H   FF1CCDH   00001DH   BYTE   INSEG    CODE           ?PR?SLEEP_US?UTIL
FF1CCEH   FF1CE9H   00001CH   BYTE   INSEG    CODE           ?PR?I2C_RECVDATA?I2C
FF1CEAH   FF1D04H   00001BH   BYTE   INSEG    CODE           ?PR?USB_REQ_CLASS?USB_REQ_CLASS
FF1D05H   FF1D1EH   00001AH   BYTE   INSEG    CODE           ?PR?OLED12864_SCROLLSTART?UTIL
FF1D1FH   FF1D38H   00001AH   BYTE   INSEG    CODE           ?PR?OLED12864_DISPLAYON?UTIL
FF1D39H   FF1D52H   00001AH   BYTE   INSEG    CODE           ?PR?LCD12864_SCROLLRIGHT?UTIL
FF1D53H   FF1D6CH   00001AH   BYTE   INSEG    CODE           ?PR?LCD12864_AUTOWRAPON?UTIL
FF1D6DH   FF1D86H   00001AH   BYTE   INSEG    CODE           ?PR?OLED12864_VERTICALMIRROR?UTIL
FF1D87H   FF1DA0H   00001AH   BYTE   INSEG    CODE           ?PR?LCD12864_CURSORRETURNHOME?UTIL
FF1DA1H   FF1DBAH   00001AH   BYTE   INSEG    CODE           ?PR?OLED12864_DISPLAYENTIRE?UTIL
FF1DBBH   FF1DD4H   00001AH   BYTE   INSEG    CODE           ?PR?LCD12864_DISPLAYON?UTIL
FF1DD5H   FF1DEEH   00001AH   BYTE   INSEG    CODE           ?PR?LCD12864_CURSORMOVERIGHT?UTIL
FF1DEFH   FF1E08H   00001AH   BYTE   INSEG    CODE           ?PR?LCD12864_CURSORON?UTIL
FF1E09H   FF1E21H   000019H   BYTE   INSEG    CODE           ?PR?USB_BULK_INTR_OUT?USB
FF1E22H   FF1E3AH   000019H   BYTE   INSEG    CODE           ?PR?OLED12864_DISPLAYOFF?UTIL
FF1E3BH   FF1E53H   000019H   BYTE   INSEG    CODE           ?PR?OLED12864_SETHEADER?UTIL
FF1E54H   FF1E6CH   000019H   BYTE   INSEG    CODE           ?PR?LCD12864_AUTOWRAPOFF?UTIL
FF1E6DH   FF1E85H   000019H   BYTE   INSEG    CODE           ?PR?OLED12864_SCROLLSTOP?UTIL
L251 LINKER/LOCATER V4.66.93.0                                                        06/18/2023  10:11:36  PAGE 4


FF1E86H   FF1E9EH   000019H   BYTE   INSEG    CODE           ?PR?LCD12864_DISPLAYOFF?UTIL
FF1E9FH   FF1EB7H   000019H   BYTE   INSEG    CODE           ?PR?LCD12864_SETHEADER?UTIL
FF1EB8H   FF1ED0H   000019H   BYTE   INSEG    CODE           ?PR?LCD12864_SCROLLLEFT?UTIL
FF1ED1H   FF1EE9H   000019H   BYTE   INSEG    CODE           ?PR?OLED12864_HORIZONTALMIRROR?UTIL
FF1EEAH   FF1F02H   000019H   BYTE   INSEG    CODE           ?PR?OLED12864_DISPLAYCONTENT?UTIL
FF1F03H   FF1F1BH   000019H   BYTE   INSEG    CODE           ?PR?LCD12864_CURSOROFF?UTIL
FF1F1CH   FF1F34H   000019H   BYTE   INSEG    CODE           ?PR?LCD12864_CURSORMOVELEFT?UTIL
FF1F35H   FF1F4DH   000019H   BYTE   INSEG    CODE           ?PR?SEG7_SETHEADER?UTIL
FF1F4EH   FF1F66H   000019H   BYTE   INSEG    CODE           ?PR?I2C_SENDNAK?I2C
FF1F67H   FF1F7EH   000018H   BYTE   INSEG    CODE           ?PR?USB_OUT_DONE?USB
FF1F7FH   FF1F96H   000018H   BYTE   INSEG    CODE           ?PR?SLEEP_MS?UTIL
FF1F97H   FF1FAEH   000018H   BYTE   INSEG    CODE           ?PR?I2C_SENDACK?I2C
FF1FAFH   FF1FC5H   000017H   BYTE   INSEG    CODE           ?PR?I2C_SENDDATA?I2C
FF1FC6H   FF1FDCH   000017H   BYTE   INSEG    CODE           ?PR?I2C_WAIT?I2C
FF1FDDH   FF1FF2H   000016H   BYTE   INSEG    CODE           ?PR?DELAY_MS?MAIN
FF1FF3H   FF2008H   000016H   BYTE   INSEG    CODE           ?PR?USB_SET_CTRL_LINE_STATE?USB_REQ_CLASS
FF2009H   FF201DH   000015H   BYTE   INSEG    CODE           ?PR?USB_BULK_INTR_IN?USB
FF201EH   FF2032H   000015H   BYTE   INSEG    CODE           ?PR?USB_READ_REG?USB
FF2033H   FF2047H   000015H   BYTE   INSEG    CODE           ?PR?PWM1_SETDUTY?PWM
FF2048H   FF205CH   000015H   BYTE   INSEG    CODE           ?PR?PWM4_SETDUTY?PWM
FF205DH   FF2071H   000015H   BYTE   INSEG    CODE           ?PR?PWMA_SETCYCLE?PWM
FF2072H   FF2085H   000014H   BYTE   INSEG    CODE           ?PR?LCD12864_DISPLAYCLEAR?UTIL
FF2086H   FF2099H   000014H   BYTE   INSEG    CODE           ?PR?OLED12864_DISPLAYREVERSE?UTIL
FF209AH   FF20ACH   000013H   BYTE   INSEG    CODE           ?PR?USB_WRITE_REG?USB
FF20ADH   FF20BFH   000013H   BYTE   INSEG    CODE           ?PR?PWM1N_DISABLE?PWM
FF20C0H   FF20D2H   000013H   BYTE   INSEG    CODE           ?PR?PWM1P_DISABLE?PWM
FF20D3H   FF20E5H   000013H   BYTE   INSEG    CODE           ?PR?PWM4N_DISABLE?PWM
FF20E6H   FF20F8H   000013H   BYTE   INSEG    CODE           ?PR?PWM4P_DISABLE?PWM
FF20F9H   FF2109H   000011H   BYTE   INSEG    CODE           ?PR?USB_SETUP_IN?USB
FF210AH   FF2119H   000010H   BYTE   INSEG    CODE           ?PR?I2C_START?I2C
FF211AH   FF2129H   000010H   BYTE   INSEG    CODE           ?PR?I2C_STOP?I2C
FF212AH   FF2138H   00000FH   BYTE   INSEG    CODE           ?PR?I2C_RECVBYTE?I2C
FF2139H   FF2146H   00000EH   BYTE   INSEG    CODE           ?PR?USB_SETUP_OUT?USB
FF2147H   FF2154H   00000EH   BYTE   INSEG    CODE           ?PR?USB_SETUP_STALL?USB
FF2155H   FF2162H   00000EH   BYTE   INSEG    CODE           ?PR?STRLEN?_?STRLEN
FF2163H   FF216FH   00000DH   BYTE   INSEG    CODE           ?PR?USB_SETUP_STATUS?USB
FF2170H   FF2175H   000006H   BYTE   INSEG    CODE           ?PR?I2C_SENDBYTE?I2C
FF2176H   FF2178H   000003H   BYTE   INSEG    CODE           ?PR?USB_SYNCH_FRAME?USB_REQ_STD
FF2179H   FF217BH   000003H   BYTE   INSEG    CODE           ?PR?USB_REQ_VENDOR?USB_REQ_VENDOR
FF217CH   FF217CH   000001H   BYTE   INSEG    CODE           ?PR?USB_RESUME?USB
FF217DH   FF2180H   000004H   BYTE   UNIT     CONST          ?CO?PRINTF
FF2181H   FF21EFH   00006FH   BYTE   UNIT     HCONST         ?HC?MAIN
FF21F0H   FF220EH   00001FH   BYTE   UNIT     HCONST         ?C_INITEDATA



OVERLAY MAP OF MODULE:   .\obj\stc_usb_ser (main)


FUNCTION/MODULE                            EDATA_GROUP
--> CALLED FUNCTION/MODULE                 START  STOP
======================================================
usb_isr/usb                                ----- -----
  +--> usb_read_reg/usb
  +--> usb_resume/usb
  +--> usb_reset/usb
  +--> usb_setup/usb
  +--> usb_in_ep1/usb
  +--> usb_in_ep2/usb
  +--> usb_out_ep1/usb
  +--> usb_suspend/usb

usb_read_reg/usb                           ----- -----

usb_resume/usb                             ----- -----
L251 LINKER/LOCATER V4.66.93.0                                                        06/18/2023  10:11:36  PAGE 5



usb_reset/usb                              ----- -----
  +--> usb_write_reg/usb

usb_write_reg/usb                          ----- -----

usb_setup/usb                              ----- -----
  +--> usb_write_reg/usb
  +--> usb_read_reg/usb
  +--> usb_read_fifo?_/usb
  +--> reverse2/util
  +--> usb_req_std/usb_req_std
  +--> usb_req_class/usb_req_class
  +--> usb_req_vendor/usb_req_vendor
  +--> usb_setup_stall/usb
  +--> usb_ctrl_in/usb
  +--> usb_ctrl_out/usb

usb_read_fifo?_/usb                        ----- -----
  +--> usb_read_reg/usb

reverse2/util                              0021H 0024H

usb_req_std/usb_req_std                    ----- -----
  +--> usb_get_status/usb_req_std
  +--> usb_clear_feature/usb_req_std
  +--> usb_set_feature/usb_req_std
  +--> usb_set_address/usb_req_std
  +--> usb_get_descriptor/usb_req_std
  +--> usb_set_descriptor/usb_req_std
  +--> usb_get_configuration/usb_req_std
  +--> usb_set_configuration/usb_req_std
  +--> usb_get_interface/usb_req_std
  +--> usb_set_interface/usb_req_std
  +--> usb_synch_frame/usb_req_std
  +--> usb_setup_stall/usb

usb_get_status/usb_req_std                 ----- -----
  +--> usb_setup_stall/usb
  +--> usb_setup_in/usb

usb_setup_stall/usb                        ----- -----
  +--> usb_write_reg/usb

usb_setup_in/usb                           ----- -----
  +--> usb_write_reg/usb
  +--> usb_ctrl_in/usb

usb_ctrl_in/usb                            ----- -----
  +--> usb_write_reg/usb
  +--> usb_read_reg/usb
  +--> usb_write_fifo?_/usb

usb_write_fifo?_/usb                       ----- -----
  +--> usb_write_reg/usb

usb_clear_feature/usb_req_std              ----- -----
  +--> usb_write_reg/usb
  +--> usb_setup_stall/usb
  +--> usb_setup_status/usb

usb_setup_status/usb                       ----- -----
  +--> usb_write_reg/usb

usb_set_feature/usb_req_std                ----- -----
L251 LINKER/LOCATER V4.66.93.0                                                        06/18/2023  10:11:36  PAGE 6


  +--> usb_write_reg/usb
  +--> usb_setup_stall/usb
  +--> usb_setup_status/usb

usb_set_address/usb_req_std                ----- -----
  +--> usb_setup_stall/usb
  +--> usb_write_reg/usb
  +--> usb_setup_status/usb

usb_get_descriptor/usb_req_std             ----- -----
  +--> usb_setup_stall/usb
  +--> usb_setup_in/usb

usb_set_descriptor/usb_req_std             ----- -----
  +--> usb_setup_stall/usb

usb_get_configuration/usb_req_std          ----- -----
  +--> usb_setup_stall/usb
  +--> usb_setup_in/usb

usb_set_configuration/usb_req_std          ----- -----
  +--> usb_setup_stall/usb
  +--> usb_write_reg/usb
  +--> usb_setup_status/usb

usb_get_interface/usb_req_std              ----- -----
  +--> usb_setup_stall/usb
  +--> usb_setup_in/usb

usb_set_interface/usb_req_std              ----- -----
  +--> usb_setup_stall/usb
  +--> usb_setup_status/usb

usb_synch_frame/usb_req_std                ----- -----
  +--> usb_setup_stall/usb

usb_req_class/usb_req_class                ----- -----
  +--> usb_set_line_coding/usb_req_class
  +--> usb_get_line_coding/usb_req_class
  +--> usb_set_ctrl_line_state/usb_req_class
  +--> usb_setup_stall/usb

usb_set_line_coding/usb_req_class          ----- -----
  +--> usb_setup_stall/usb
  +--> usb_setup_out/usb

usb_setup_out/usb                          ----- -----
  +--> usb_write_reg/usb

usb_get_line_coding/usb_req_class          ----- -----
  +--> usb_setup_stall/usb
  +--> usb_setup_in/usb

usb_set_ctrl_line_state/usb_req_class      ----- -----
  +--> usb_setup_stall/usb
  +--> usb_setup_status/usb

usb_req_vendor/usb_req_vendor              ----- -----
  +--> usb_setup_stall/usb

usb_ctrl_out/usb                           ----- -----
  +--> usb_write_reg/usb
  +--> usb_read_reg/usb
  +--> usb_read_fifo?_/usb

L251 LINKER/LOCATER V4.66.93.0                                                        06/18/2023  10:11:36  PAGE 7


usb_in_ep1/usb                             ----- -----
  +--> usb_write_reg/usb
  +--> usb_read_reg/usb

usb_in_ep2/usb                             ----- -----
  +--> usb_write_reg/usb
  +--> usb_read_reg/usb

usb_out_ep1/usb                            ----- -----
  +--> usb_write_reg/usb
  +--> usb_read_reg/usb
  +--> usb_read_fifo?_/usb
  +--> sleep_ms/util

sleep_ms/util                              ----- -----
  +--> sleep_us/util

sleep_us/util                              ----- -----

usb_suspend/usb                            ----- -----

*** NEW ROOT *****************************

?C_C51STARTUP                              ----- -----

*** NEW ROOT *****************************

?C_C51STARTUP?3                            ----- -----
  +--> main/main

main/main                                  ----- -----
  +--> sys_init/main
  +--> usb_init/usb
  +--> delay_ms/main
  +--> printf_hid/util
  +--> pwm_init/pwm
  +--> pwma_setcycle/pwm
  +--> pwm1_setduty/pwm
  +--> pwm4_setduty/pwm
  +--> pwm1p_enable/pwm
  +--> pwm4p_enable/pwm
  +--> pwm1n_enable/pwm
  +--> pwm4n_enable/pwm
  +--> KeyResetScan/main
  +--> usb_OUT_done/usb
  +--> memcpy?_/memcpy
  +--> usb_IN/usb

sys_init/main                              ----- -----
  +--> Debug_Init/debug
  +--> I2C_Init/i2c

Debug_Init/debug                           ----- -----

I2C_Init/i2c                               ----- -----

usb_init/usb                               ----- -----
  +--> usb_write_reg/usb

delay_ms/main                              ----- -----

printf_hid/util                            0025H 0050H
  +--> VSPRINTF/VSPRINTF
  +--> usb_IN/usb

L251 LINKER/LOCATER V4.66.93.0                                                        06/18/2023  10:11:36  PAGE 8


VSPRINTF/VSPRINTF                          0051H 0054H
  +--> OUT/VSPRINTF

OUT/VSPRINTF                               ----- -----
  +--> PUTCH/VSPRINTF

PUTCH/VSPRINTF                             ----- -----

usb_IN/usb                                 ----- -----
  +--> usb_write_reg/usb
  +--> usb_read_reg/usb
  +--> usb_bulk_intr_in/usb

usb_bulk_intr_in/usb                       ----- -----
  +--> usb_write_fifo?_/usb
  +--> usb_write_reg/usb

pwm_init/pwm                               ----- -----

pwma_setcycle/pwm                          ----- -----

pwm1_setduty/pwm                           ----- -----

pwm4_setduty/pwm                           ----- -----

pwm1p_enable/pwm                           ----- -----
  +--> pwm1n_disable/pwm

pwm1n_disable/pwm                          ----- -----

pwm4p_enable/pwm                           ----- -----
  +--> pwm4n_disable/pwm

pwm4n_disable/pwm                          ----- -----

pwm1n_enable/pwm                           ----- -----
  +--> pwm1p_disable/pwm

pwm1p_disable/pwm                          ----- -----

pwm4n_enable/pwm                           ----- -----
  +--> pwm4p_disable/pwm

pwm4p_disable/pwm                          ----- -----

KeyResetScan/main                          ----- -----
  +--> delay_ms/main

usb_OUT_done/usb                           ----- -----
  +--> usb_write_reg/usb

memcpy?_/memcpy                            ----- -----

*** NEW ROOT *****************************

?C_C51STARTUP?2                            ----- -----



PUBLIC SYMBOLS OF MODULE:  .\obj\stc_usb_ser (main)


      VALUE       CLASS    TYPE      PUBLIC SYMBOL NAME
      =================================================
      000000FFH   NUMBER   ---       ?C?CODESEG
L251 LINKER/LOCATER V4.66.93.0                                                        06/18/2023  10:11:36  PAGE 9


      00FF0534H   CODE     ---       ?C?FPCONVERT
      00FF06CFH   CODE     ---       ?C?FPDIV
      00FF07B7H   CODE     ---       ?C?FPGETOPN2
      00FF062FH   CODE     ---       ?C?FPMUL
      00FF07F4H   CODE     ---       ?C?FPNANRESULT
      00FF07FCH   CODE     ---       ?C?FPOVERFLOW
      00FF07D0H   CODE     ---       ?C?FPRESULT
      00FF07E6H   CODE     ---       ?C?FPRESULT2
      00FF05ECH   CODE     ---       ?C?FPROUND
      00FF07F9H   CODE     ---       ?C?FPUNDERFLOW
      00FF0780H   CODE     ---       ?C?FTNPWR
      00FF1728H   CODE     ---       ?C?INITEDATA
      00FF220DH   HCONST   WORD      ?C?INITEDATA_END
      00FF0808H   CODE     ---       ?C?LMUL
      00FF0117H   CODE     ---       ?C?PRNFMT
      00FF0000H   CODE     ---       ?C?STARTUP
      00000001H   NUMBER   ---       ?C?XDATASEG
      00FF0000H   CODE     ---       ?C_STARTUP
      0000004DH   EDATA    BYTE      ?printf_hid?BYTE
      0000007DH   EDATA    BYTE      ?SEG7_ShowString?BYTE
      00000049H   EDATA    ---       ?vsprintf?BYTE
*SFR* 000000BCH   DATA     BYTE      ADC_CONTR
*SFR* 000000EFH   DATA     BYTE      AUXINTIF
*SFR* 0000008EH   DATA     BYTE      AUXR
*SFR* 00000097H   DATA     BYTE      AUXR2
      00000020H.1 BIT      BIT       bUsbFeatureReady
      00000020H.2 BIT      BIT       bUsbInBusy
      00000020H.0 BIT      BIT       bUsbOutReady
*SFR* 000000F1H   DATA     BYTE      CANICR
*SFR* 000000EAH   DATA     BYTE      CKCON
*SFR* 000000E6H   DATA     BYTE      CMPCR1
*SFR* 000000E7H   DATA     BYTE      CMPCR2
      00FF0F4EH   CODE     ---       CONFIGDESC
      00FF1AD2H   CODE     ---       Debug_Init
      00FF1FDDH   CODE     ---       delay_ms
      00FF0F3CH   CODE     ---       DEVICEDESC
      00000012H   EDATA    BYTE      DeviceState
*SFR* 000000A8H.7 DATA     BIT       EA
*SFR* 000000BAH.7 DATA     BIT       EAXFR
      00000013H   EDATA    ---       Ep0State
*SFR* 000000AFH.7 DATA     BIT       EUSB
      00FF1B92H   CODE     ---       I2C_Init
      00FF0F9DH   CODE     ---       I2C_read
      00FF1C93H   CODE     ---       I2C_RecvACK
      00FF212AH   CODE     ---       I2C_RecvByte
      00FF1CCEH   CODE     ---       I2C_RecvData
      00FF13ACH   CODE     ---       I2C_Scan
      00FF1F97H   CODE     ---       I2C_SendACK
      00FF2170H   CODE     ---       I2C_SendByte
      00FF1FAFH   CODE     ---       I2C_SendData
      00FF1F4EH   CODE     ---       I2C_SendNAK
      00FF210AH   CODE     ---       I2C_Start
      00FF211AH   CODE     ---       I2C_Stop
      00FF1FC6H   CODE     ---       I2C_Wait
      00FF144AH   CODE     ---       I2C_Write
*SFR* 000000C7H   DATA     BYTE      IAP_CONTR
*SFR* 000000A8H   DATA     BYTE      IE
*SFR* 000000AFH   DATA     BYTE      IE2
      0000001AH   EDATA    BYTE      InEpState
*SFR* 0000008FH   DATA     BYTE      INTCLKO
*SFR* 000000B8H   DATA     BYTE      IP
*SFR* 000000B5H   DATA     BYTE      IP2
*SFR* 000000B6H   DATA     BYTE      IP2H
*SFR* 000000DFH   DATA     BYTE      IP3
*SFR* 000000EEH   DATA     BYTE      IP3H
L251 LINKER/LOCATER V4.66.93.0                                                        06/18/2023  10:11:36  PAGE 10


*SFR* 000000B7H   DATA     BYTE      IPH
*SFR* 0000009DH   DATA     BYTE      IRCBAND
      00000085H   EDATA    WORD      Key_cnt
      00000020H.3 BIT      BIT       Key_Flag
      00FF1792H   CODE     ---       KeyResetScan
      00FF0F38H   CODE     ---       LANGIDDESC
      00FF1E54H   CODE     ---       LCD12864_AutoWrapOff
      00FF1D53H   CODE     ---       LCD12864_AutoWrapOn
      00FF1F1CH   CODE     ---       LCD12864_CursorMoveLeft
      00FF1DD5H   CODE     ---       LCD12864_CursorMoveRight
      00FF1F03H   CODE     ---       LCD12864_CursorOff
      00FF1DEFH   CODE     ---       LCD12864_CursorOn
      00FF1D87H   CODE     ---       LCD12864_CursorReturnHome
      00FF2072H   CODE     ---       LCD12864_DisplayClear
      00FF1E86H   CODE     ---       LCD12864_DisplayOff
      00FF1DBBH   CODE     ---       LCD12864_DisplayOn
      00FF1BF6H   CODE     ---       LCD12864_ReverseLine
      00FF1EB8H   CODE     ---       LCD12864_ScrollLeft
      00FF1D39H   CODE     ---       LCD12864_ScrollRight
      00FF1AFAH   CODE     ---       LCD12864_ScrollUp
      00FF13FBH   CODE     ---       LCD12864_ShowPicture
      00FF180CH   CODE     ---       LCD12864_ShowString
      00FF15C1H   CODE     ---       LED40_SendData
      00FF1608H   CODE     ---       LED64_SendData
      000000B3H   EDATA    ---       LineCoding
*SFR* 000000F9H   DATA     BYTE      LINICR
      00FF091CH   CODE     ---       main
      00FF0F95H   CODE     ---       MANUFACTDESC
      00FF1B6DH   CODE     ---       memcpy?_
      00FF1359H   CODE     ---       mpu6050_init
      00FF0E11H   CODE     ---       mpu6050_read
      0000008BH   EDATA    ---       mpu_dat
      00FF1EEAH   CODE     ---       OLED12864_DisplayContent
      00FF1DA1H   CODE     ---       OLED12864_DisplayEntire
      00FF1E22H   CODE     ---       OLED12864_DisplayOff
      00FF1D1FH   CODE     ---       OLED12864_DisplayOn
      00FF2086H   CODE     ---       OLED12864_DisplayReverse
      00FF1ED1H   CODE     ---       OLED12864_HorizontalMirror
      00FF18F7H   CODE     ---       OLED12864_ScrollLeft
      00FF1883H   CODE     ---       OLED12864_ScrollRight
      00FF1D05H   CODE     ---       OLED12864_ScrollStart
      00FF1E6DH   CODE     ---       OLED12864_ScrollStop
      00FF18BDH   CODE     ---       OLED12864_ScrollUp
      00FF1BB4H   CODE     ---       OLED12864_SetAddressMode
      00FF1BD5H   CODE     ---       OLED12864_SetContrast
      00FF1696H   CODE     ---       OLED12864_ShowPicture
      00FF1D6DH   CODE     ---       OLED12864_VerticalMirror
      0000001BH   EDATA    BYTE      OutEpState
      00000010H   EDATA    BYTE      OutNumber
*SFR* 00000080H   DATA     BYTE      P0
*SFR* 00000094H   DATA     BYTE      P0M0
*SFR* 00000093H   DATA     BYTE      P0M1
*SFR* 00000090H   DATA     BYTE      P1
*SFR* 00000090H.0 DATA     BIT       P10
*SFR* 00000090H.1 DATA     BIT       P11
*SFR* 00000090H.6 DATA     BIT       P16
*SFR* 00000090H.7 DATA     BIT       P17
*SFR* 00000092H   DATA     BYTE      P1M0
*SFR* 00000091H   DATA     BYTE      P1M1
*SFR* 000000A0H   DATA     BYTE      P2
*SFR* 000000A0H.0 DATA     BIT       P20
*SFR* 000000A0H.1 DATA     BIT       P21
*SFR* 00000096H   DATA     BYTE      P2M0
*SFR* 00000095H   DATA     BYTE      P2M1
*SFR* 000000B0H   DATA     BYTE      P3
L251 LINKER/LOCATER V4.66.93.0                                                        06/18/2023  10:11:36  PAGE 11


*SFR* 000000B0H.2 DATA     BIT       P32
*SFR* 000000B2H   DATA     BYTE      P3M0
*SFR* 000000B1H   DATA     BYTE      P3M1
*SFR* 000000C0H   DATA     BYTE      P4
*SFR* 000000B4H   DATA     BYTE      P4M0
*SFR* 000000B3H   DATA     BYTE      P4M1
*SFR* 000000C8H   DATA     BYTE      P5
*SFR* 000000CAH   DATA     BYTE      P5M0
*SFR* 000000C9H   DATA     BYTE      P5M1
*SFR* 000000E8H   DATA     BYTE      P6
*SFR* 000000CCH   DATA     BYTE      P6M0
*SFR* 000000CBH   DATA     BYTE      P6M1
*SFR* 000000F8H   DATA     BYTE      P7
*SFR* 000000E2H   DATA     BYTE      P7M0
*SFR* 000000E1H   DATA     BYTE      P7M1
*SFR* 000000A2H   DATA     BYTE      P_SW1
*SFR* 000000BAH   DATA     BYTE      P_SW2
*SFR* 000000BBH   DATA     BYTE      P_SW3
      00FF0F91H   CODE     ---       PACKET0
      00FF0F93H   CODE     ---       PACKET1
*SFR* 00000087H   DATA     BYTE      PCON
      00FF1A29H   CODE     ---       printf_hid
      00FF0F1AH   CODE     ---       PRODUCTDESC
*SFR* 000000D0H   DATA     BYTE      PSW
      00FF2033H   CODE     ---       pwm1_setduty
      00FF1199H   CODE     ---       pwm1n_config
      00FF20ADH   CODE     ---       pwm1n_disable
      00FF1C17H   CODE     ---       pwm1n_enable
      00FF1251H   CODE     ---       pwm1p_config
      00FF20C0H   CODE     ---       pwm1p_disable
      00FF1C36H   CODE     ---       pwm1p_enable
      00FF2048H   CODE     ---       pwm4_setduty
      00FF12ABH   CODE     ---       pwm4n_config
      00FF20D3H   CODE     ---       pwm4n_disable
      00FF1C55H   CODE     ---       pwm4n_enable
      00FF11F5H   CODE     ---       pwm4p_config
      00FF20E6H   CODE     ---       pwm4p_disable
      00FF1C74H   CODE     ---       pwm4p_enable
      00FF164FH   CODE     ---       pwm_init
      00FF205DH   CODE     ---       pwma_setcycle
      00FF1965H   CODE     ---       reverse2
      00FF107EH   CODE     ---       reverse4
*SFR* 000000FFH   DATA     BYTE      RSTCFG
*SFR* 0000009AH   DATA     BYTE      S2CON
*SFR* 000000ACH   DATA     BYTE      S3CON
*SFR* 000000FDH   DATA     BYTE      S4CON
*SFR* 00000098H   DATA     BYTE      SCON
      00FF1930H   CODE     ---       SEG7_ShowCode
      00FF199AH   CODE     ---       SEG7_ShowFloat
      00FF17CFH   CODE     ---       SEG7_ShowLong
      00FF1530H   CODE     ---       SEG7_ShowString
      00000008H   EDATA    ---       Setup
      00FF1F7FH   CODE     ---       sleep_ms
      00FF1CB1H   CODE     ---       sleep_us
*SFR* 000000CEH   DATA     BYTE      SPCTL
*SFR* 000000CDH   DATA     BYTE      SPSTAT
      00FF2155H   CODE     ---       strlen?_
      00FF16D6H   CODE     ---       sys_init
*SFR* 000000DDH   DATA     BYTE      T4T3M
*SFR* 00000088H   DATA     BYTE      TCON
      00FF2009H   CODE     ---       usb_bulk_intr_in
      00FF1E09H   CODE     ---       usb_bulk_intr_out
      00FF0A80H   CODE     ---       usb_clear_feature
      00FF1017H   CODE     ---       usb_ctrl_in
      00FF1499H   CODE     ---       usb_ctrl_out
L251 LINKER/LOCATER V4.66.93.0                                                        06/18/2023  10:11:36  PAGE 12


      00FF1305H   CODE     ---       usb_get_configuration
      00FF0B1FH   CODE     ---       usb_get_descriptor
      00FF1754H   CODE     ---       usb_get_interface
      00FF1B21H   CODE     ---       usb_get_line_coding
      00FF0819H   CODE     ---       usb_get_status
      00FF19CDH   CODE     ---       usb_IN
      00FF19FCH   CODE     ---       usb_in_ep1
      00FF1A56H   CODE     ---       usb_in_ep2
      00FF10DFH   CODE     ---       usb_init
      00FF0E96H   CODE     ---       usb_isr
      00FF1F67H   CODE     ---       usb_OUT_done
      00FF0003H   CODE     ---       usb_out_ep1
      00FF1849H   CODE     ---       usb_read_fifo?_
      00FF201EH   CODE     ---       usb_read_reg
      00FF1CEAH   CODE     ---       usb_req_class
      00FF113DH   CODE     ---       usb_req_std
      00FF2179H   CODE     ---       usb_req_vendor
      00FF1579H   CODE     ---       usb_reset
      00FF217CH   CODE     ---       usb_resume
      00FF14E6H   CODE     ---       usb_set_address
      00FF09DBH   CODE     ---       usb_set_configuration
      00FF1FF3H   CODE     ---       usb_set_ctrl_line_state
      00FF00C7H   CODE     ---       usb_set_descriptor
      00FF0BBEH   CODE     ---       usb_set_feature
      00FF1AAAH   CODE     ---       usb_set_interface
      00FF1B47H   CODE     ---       usb_set_line_coding
      00FF0D87H   CODE     ---       usb_setup
      00FF20F9H   CODE     ---       usb_setup_in
      00FF2139H   CODE     ---       usb_setup_out
      00FF2147H   CODE     ---       usb_setup_stall
      00FF2163H   CODE     ---       usb_setup_status
      00FF00CAH   CODE     ---       usb_suspend
      00FF2176H   CODE     ---       usb_synch_frame
      00FF1A81H   CODE     ---       usb_write_fifo?_
      00FF209AH   CODE     ---       usb_write_reg
*SFR* 000000FCH   DATA     BYTE      USBADR
*SFR* 000000DCH   DATA     BYTE      USBCLK
*SFR* 000000F4H   DATA     BYTE      USBCON
*SFR* 000000ECH   DATA     BYTE      USBDAT
      00010080H   XDATA    ---       UsbFeatureBuffer
      00010000H   XDATA    ---       UsbInBuffer
      00010040H   XDATA    ---       UsbOutBuffer
      00000099H   EDATA    ---       USER_DEVICEDESC
      00000087H   EDATA    ---       USER_PRODUCTDESC
      00000081H   EDATA    ---       USER_STCISPCMD
      00FF00CEH   CODE     NEAR LAB  vsprintf
*SFR* 000000C1H   DATA     BYTE      WDT_CONTR
*SFR* 000000E9H   DATA     BYTE      WTST



SYMBOL TABLE OF MODULE:  .\obj\stc_usb_ser (main)

      VALUE       REP       CLASS    TYPE      SYMBOL NAME
      ====================================================
      ---         MODULE    ---      ---       main
      00FF13ACH   PUBLIC    CODE     ---       I2C_Scan
      00FF091CH   PUBLIC    CODE     ---       main
      00FF1792H   PUBLIC    CODE     ---       KeyResetScan
      00FF1FDDH   PUBLIC    CODE     ---       delay_ms
      00FF16D6H   PUBLIC    CODE     ---       sys_init
      00000020H.3 PUBLIC    BIT      BIT       Key_Flag
      00000081H   PUBLIC    EDATA    ---       USER_STCISPCMD
      00000085H   PUBLIC    EDATA    WORD      Key_cnt
      00000087H   PUBLIC    EDATA    ---       USER_PRODUCTDESC
L251 LINKER/LOCATER V4.66.93.0                                                        06/18/2023  10:11:36  PAGE 13


      0000008BH   PUBLIC    EDATA    ---       mpu_dat
      00000099H   PUBLIC    EDATA    ---       USER_DEVICEDESC
      00000094H   SFRSYM    DATA     BYTE      P0M0
      000000D0H   SFRSYM    DATA     BYTE      PSW
      000000BAH.7 SFRSYM    DATA     BIT       EAXFR
      0000009DH   SFRSYM    DATA     BYTE      IRCBAND
      00000097H   SFRSYM    DATA     BYTE      AUXR2
      000000EAH   SFRSYM    DATA     BYTE      CKCON
      000000EFH   SFRSYM    DATA     BYTE      AUXINTIF
      000000FDH   SFRSYM    DATA     BYTE      S4CON
      000000ACH   SFRSYM    DATA     BYTE      S3CON
      0000009AH   SFRSYM    DATA     BYTE      S2CON
      000000B7H   SFRSYM    DATA     BYTE      IPH
      000000CDH   SFRSYM    DATA     BYTE      SPSTAT
      000000DDH   SFRSYM    DATA     BYTE      T4T3M
      000000C1H   SFRSYM    DATA     BYTE      WDT_CONTR
      000000E9H   SFRSYM    DATA     BYTE      WTST
      000000DFH   SFRSYM    DATA     BYTE      IP3
      000000F4H   SFRSYM    DATA     BYTE      USBCON
      000000B5H   SFRSYM    DATA     BYTE      IP2
      000000FFH   SFRSYM    DATA     BYTE      RSTCFG
      000000DCH   SFRSYM    DATA     BYTE      USBCLK
      000000C7H   SFRSYM    DATA     BYTE      IAP_CONTR
      000000F9H   SFRSYM    DATA     BYTE      LINICR
      0000008EH   SFRSYM    DATA     BYTE      AUXR
      000000AFH   SFRSYM    DATA     BYTE      IE2
      00000088H   SFRSYM    DATA     BYTE      TCON
      000000B0H.2 SFRSYM    DATA     BIT       P32
      00000098H   SFRSYM    DATA     BYTE      SCON
      000000A0H.1 SFRSYM    DATA     BIT       P21
      000000A0H.0 SFRSYM    DATA     BIT       P20
      000000F1H   SFRSYM    DATA     BYTE      CANICR
      00000087H   SFRSYM    DATA     BYTE      PCON
      000000BCH   SFRSYM    DATA     BYTE      ADC_CONTR
      000000E7H   SFRSYM    DATA     BYTE      CMPCR2
      000000E6H   SFRSYM    DATA     BYTE      CMPCR1
      000000B8H   SFRSYM    DATA     BYTE      IP
      0000008FH   SFRSYM    DATA     BYTE      INTCLKO
      000000EEH   SFRSYM    DATA     BYTE      IP3H
      000000B6H   SFRSYM    DATA     BYTE      IP2H
      000000A8H   SFRSYM    DATA     BYTE      IE
      000000BBH   SFRSYM    DATA     BYTE      P_SW3
      000000BAH   SFRSYM    DATA     BYTE      P_SW2
      000000A2H   SFRSYM    DATA     BYTE      P_SW1
      000000CEH   SFRSYM    DATA     BYTE      SPCTL
      000000F8H   SFRSYM    DATA     BYTE      P7
      000000A8H.7 SFRSYM    DATA     BIT       EA
      000000E1H   SFRSYM    DATA     BYTE      P7M1
      000000E8H   SFRSYM    DATA     BYTE      P6
      000000C8H   SFRSYM    DATA     BYTE      P5
      000000CBH   SFRSYM    DATA     BYTE      P6M1
      000000E2H   SFRSYM    DATA     BYTE      P7M0
      000000C0H   SFRSYM    DATA     BYTE      P4
      000000C9H   SFRSYM    DATA     BYTE      P5M1
      000000CCH   SFRSYM    DATA     BYTE      P6M0
      000000B0H   SFRSYM    DATA     BYTE      P3
      000000B3H   SFRSYM    DATA     BYTE      P4M1
      000000CAH   SFRSYM    DATA     BYTE      P5M0
      000000A0H   SFRSYM    DATA     BYTE      P2
      000000B1H   SFRSYM    DATA     BYTE      P3M1
      000000B4H   SFRSYM    DATA     BYTE      P4M0
      00000090H   SFRSYM    DATA     BYTE      P1
      00000095H   SFRSYM    DATA     BYTE      P2M1
      000000B2H   SFRSYM    DATA     BYTE      P3M0
      00000080H   SFRSYM    DATA     BYTE      P0
L251 LINKER/LOCATER V4.66.93.0                                                        06/18/2023  10:11:36  PAGE 14


      00000091H   SFRSYM    DATA     BYTE      P1M1
      00000096H   SFRSYM    DATA     BYTE      P2M0
      00000092H   SFRSYM    DATA     BYTE      P1M0
      00000093H   SFRSYM    DATA     BYTE      P0M1

      00FF13ACH   BLOCK     CODE     ---       LVL=0
      00FF13AEH   BLOCK     CODE     NEAR LAB  LVL=1
      R14         REGSYM    ---      BYTE      addr_test
      R15         REGSYM    ---      BYTE      flag
      ---         BLOCKEND  ---      ---       LVL=1
      00FF13ACH   LINE      CODE     ---       #59
      00FF13AEH   LINE      CODE     ---       #60
      00FF13AEH   LINE      CODE     ---       #63
      00FF13B0H   LINE      CODE     ---       #65
      00FF13BBH   LINE      CODE     ---       #67
      00FF13BDH   LINE      CODE     ---       #69
      00FF13C0H   LINE      CODE     ---       #70
      00FF13CCH   LINE      CODE     ---       #71
      00FF13CFH   LINE      CODE     ---       #72
      00FF13D3H   LINE      CODE     ---       #74
      00FF13D5H   LINE      CODE     ---       #75
      00FF13E6H   LINE      CODE     ---       #76
      00FF13EDH   LINE      CODE     ---       #79
      00FF13F8H   LINE      CODE     ---       #82
      ---         BLOCKEND  ---      ---       LVL=0

      00FF091CH   BLOCK     CODE     ---       LVL=0
      00FF091CH   LINE      CODE     ---       #84
      00FF091CH   LINE      CODE     ---       #86
      00FF091FH   LINE      CODE     ---       #87
      00FF0922H   LINE      CODE     ---       #88
      00FF0924H   LINE      CODE     ---       #90
      00FF092BH   LINE      CODE     ---       #92
      00FF092DH   LINE      CODE     ---       #93
      00FF092FH   LINE      CODE     ---       #94
      00FF093FH   LINE      CODE     ---       #95
      00FF0944H   LINE      CODE     ---       #96
      00FF0949H   LINE      CODE     ---       #97
      00FF094EH   LINE      CODE     ---       #98
      00FF0953H   LINE      CODE     ---       #99
      00FF0958H   LINE      CODE     ---       #100
      00FF095AH   LINE      CODE     ---       #101
      00FF0965H   LINE      CODE     ---       #104
      00FF0968H   LINE      CODE     ---       #105
      00FF096FH   LINE      CODE     ---       #106
      00FF0976H   LINE      CODE     ---       #107
      00FF097DH   LINE      CODE     ---       #108
      00FF0980H   LINE      CODE     ---       #109
      00FF0983H   LINE      CODE     ---       #110
      00FF0986H   LINE      CODE     ---       #111
      00FF0989H   LINE      CODE     ---       #112
      00FF098BH   LINE      CODE     ---       #114
      00FF098BH   LINE      CODE     ---       #116
      00FF0990H   LINE      CODE     ---       #117
      00FF0993H   LINE      CODE     ---       #119
      00FF099AH   LINE      CODE     ---       #120
      00FF099AH   LINE      CODE     ---       #122
      00FF099DH   LINE      CODE     ---       #124
      00FF09A0H   LINE      CODE     ---       #126
      00FF09B5H   LINE      CODE     ---       #128
      00FF09D2H   LINE      CODE     ---       #129
      00FF09D9H   LINE      CODE     ---       #130
      ---         BLOCKEND  ---      ---       LVL=0

      00FF16D6H   BLOCK     CODE     ---       LVL=0
L251 LINKER/LOCATER V4.66.93.0                                                        06/18/2023  10:11:36  PAGE 15


      00FF16D6H   LINE      CODE     ---       #134
      00FF16D6H   LINE      CODE     ---       #136
      00FF16D9H   LINE      CODE     ---       #137
      00FF16DCH   LINE      CODE     ---       #138
      00FF16DFH   LINE      CODE     ---       #140
      00FF16E5H   LINE      CODE     ---       #141
      00FF16EBH   LINE      CODE     ---       #142
      00FF16F1H   LINE      CODE     ---       #143
      00FF16F7H   LINE      CODE     ---       #144
      00FF16FDH   LINE      CODE     ---       #145
      00FF1703H   LINE      CODE     ---       #146
      00FF1709H   LINE      CODE     ---       #147
      00FF170FH   LINE      CODE     ---       #149
      00FF1712H   LINE      CODE     ---       #151
      ---         BLOCKEND  ---      ---       LVL=0

      00FF1FDDH   BLOCK     CODE     ---       LVL=0
      R10         REGSYM    ---      BYTE      ms
      00FF1FDFH   BLOCK     CODE     NEAR LAB  LVL=1
      WR8         REGSYM    ---      WORD      i
      ---         BLOCKEND  ---      ---       LVL=1
      00FF1FDDH   LINE      CODE     ---       #163
      00FF1FDFH   LINE      CODE     ---       #164
      00FF1FDFH   LINE      CODE     ---       #166
      00FF1FDFH   LINE      CODE     ---       #167
      00FF1FE3H   LINE      CODE     ---       #168
      00FF1FEBH   LINE      CODE     ---       #169
      00FF1FF2H   LINE      CODE     ---       #170
      ---         BLOCKEND  ---      ---       LVL=0

      00FF1792H   BLOCK     CODE     ---       LVL=0
      00FF1792H   LINE      CODE     ---       #181
      00FF1792H   LINE      CODE     ---       #183
      00FF1795H   LINE      CODE     ---       #185
      00FF1798H   LINE      CODE     ---       #187
      00FF17A2H   LINE      CODE     ---       #188
      00FF17A8H   LINE      CODE     ---       #190
      00FF17AAH   LINE      CODE     ---       #192
      00FF17ADH   LINE      CODE     ---       #193
      00FF17B0H   LINE      CODE     ---       #194
      00FF17BCH   LINE      CODE     ---       #196
      00FF17C1H   LINE      CODE     ---       #197
      00FF17C4H   LINE      CODE     ---       #198
      00FF17C6H   LINE      CODE     ---       #204
      00FF17CCH   LINE      CODE     ---       #205
      00FF17CEH   LINE      CODE     ---       #206
      00FF17CEH   LINE      CODE     ---       #207
      ---         BLOCKEND  ---      ---       LVL=0

      ---         MODULE    ---      ---       usb
      00FF20F9H   PUBLIC    CODE     ---       usb_setup_in
      00FF2139H   PUBLIC    CODE     ---       usb_setup_out
      00FF1017H   PUBLIC    CODE     ---       usb_ctrl_in
      00FF1499H   PUBLIC    CODE     ---       usb_ctrl_out
      00FF1F67H   PUBLIC    CODE     ---       usb_OUT_done
      00FF00CAH   PUBLIC    CODE     ---       usb_suspend
      00FF2009H   PUBLIC    CODE     ---       usb_bulk_intr_in
      00FF1E09H   PUBLIC    CODE     ---       usb_bulk_intr_out
      00FF217CH   PUBLIC    CODE     ---       usb_resume
      00FF19CDH   PUBLIC    CODE     ---       usb_IN
      00FF1849H   PUBLIC    CODE     ---       usb_read_fifo?_
      00FF1579H   PUBLIC    CODE     ---       usb_reset
      00FF0D87H   PUBLIC    CODE     ---       usb_setup
      00FF1A81H   PUBLIC    CODE     ---       usb_write_fifo?_
      00FF10DFH   PUBLIC    CODE     ---       usb_init
L251 LINKER/LOCATER V4.66.93.0                                                        06/18/2023  10:11:36  PAGE 16


      00FF2147H   PUBLIC    CODE     ---       usb_setup_stall
      00FF2163H   PUBLIC    CODE     ---       usb_setup_status
      00FF201EH   PUBLIC    CODE     ---       usb_read_reg
      00FF19FCH   PUBLIC    CODE     ---       usb_in_ep1
      00FF1A56H   PUBLIC    CODE     ---       usb_in_ep2
      00FF0003H   PUBLIC    CODE     ---       usb_out_ep1
      00FF209AH   PUBLIC    CODE     ---       usb_write_reg
      00FF0E96H   PUBLIC    CODE     ---       usb_isr
      00000008H   PUBLIC    EDATA    ---       Setup
      00000010H   PUBLIC    EDATA    BYTE      OutNumber
      00000012H   PUBLIC    EDATA    BYTE      DeviceState
      00000013H   PUBLIC    EDATA    ---       Ep0State
      0000001AH   PUBLIC    EDATA    BYTE      InEpState
      0000001BH   PUBLIC    EDATA    BYTE      OutEpState
      00000020H.0 PUBLIC    BIT      BIT       bUsbOutReady
      00000020H.1 PUBLIC    BIT      BIT       bUsbFeatureReady
      00000020H.2 PUBLIC    BIT      BIT       bUsbInBusy
      00010000H   PUBLIC    XDATA    ---       UsbInBuffer
      00010040H   PUBLIC    XDATA    ---       UsbOutBuffer
      00010080H   PUBLIC    XDATA    ---       UsbFeatureBuffer
      000000D0H   SFRSYM    DATA     BYTE      PSW
      0000009DH   SFRSYM    DATA     BYTE      IRCBAND
      00000097H   SFRSYM    DATA     BYTE      AUXR2
      000000EFH   SFRSYM    DATA     BYTE      AUXINTIF
      000000FDH   SFRSYM    DATA     BYTE      S4CON
      000000ACH   SFRSYM    DATA     BYTE      S3CON
      0000009AH   SFRSYM    DATA     BYTE      S2CON
      000000B7H   SFRSYM    DATA     BYTE      IPH
      000000CDH   SFRSYM    DATA     BYTE      SPSTAT
      000000DDH   SFRSYM    DATA     BYTE      T4T3M
      000000C1H   SFRSYM    DATA     BYTE      WDT_CONTR
      000000DFH   SFRSYM    DATA     BYTE      IP3
      000000F4H   SFRSYM    DATA     BYTE      USBCON
      000000B5H   SFRSYM    DATA     BYTE      IP2
      000000FFH   SFRSYM    DATA     BYTE      RSTCFG
      000000DCH   SFRSYM    DATA     BYTE      USBCLK
      000000ECH   SFRSYM    DATA     BYTE      USBDAT
      000000C7H   SFRSYM    DATA     BYTE      IAP_CONTR
      000000F9H   SFRSYM    DATA     BYTE      LINICR
      000000FCH   SFRSYM    DATA     BYTE      USBADR
      0000008EH   SFRSYM    DATA     BYTE      AUXR
      000000AFH   SFRSYM    DATA     BYTE      IE2
      00000088H   SFRSYM    DATA     BYTE      TCON
      00000098H   SFRSYM    DATA     BYTE      SCON
      000000F1H   SFRSYM    DATA     BYTE      CANICR
      00000087H   SFRSYM    DATA     BYTE      PCON
      000000BCH   SFRSYM    DATA     BYTE      ADC_CONTR
      000000AFH.7 SFRSYM    DATA     BIT       EUSB
      000000E7H   SFRSYM    DATA     BYTE      CMPCR2
      000000E6H   SFRSYM    DATA     BYTE      CMPCR1
      000000B8H   SFRSYM    DATA     BYTE      IP
      0000008FH   SFRSYM    DATA     BYTE      INTCLKO
      000000EEH   SFRSYM    DATA     BYTE      IP3H
      000000B6H   SFRSYM    DATA     BYTE      IP2H
      000000A8H   SFRSYM    DATA     BYTE      IE
      000000BBH   SFRSYM    DATA     BYTE      P_SW3
      000000BAH   SFRSYM    DATA     BYTE      P_SW2
      000000A2H   SFRSYM    DATA     BYTE      P_SW1
      000000CEH   SFRSYM    DATA     BYTE      SPCTL
      000000F8H   SFRSYM    DATA     BYTE      P7
      000000E8H   SFRSYM    DATA     BYTE      P6
      000000C8H   SFRSYM    DATA     BYTE      P5
      000000C0H   SFRSYM    DATA     BYTE      P4
      000000B0H   SFRSYM    DATA     BYTE      P3
      000000A0H   SFRSYM    DATA     BYTE      P2
L251 LINKER/LOCATER V4.66.93.0                                                        06/18/2023  10:11:36  PAGE 17


      00000090H   SFRSYM    DATA     BYTE      P1
      00000080H   SFRSYM    DATA     BYTE      P0
      00000011H   SYMBOL    EDATA    CHAR      ispCheck

      00FF10DFH   BLOCK     CODE     ---       LVL=0
      00FF10DFH   LINE      CODE     ---       #35
      00FF10DFH   LINE      CODE     ---       #37
      00FF10E5H   LINE      CODE     ---       #38
      00FF10EDH   LINE      CODE     ---       #39
      00FF10F5H   LINE      CODE     ---       #40
      00FF10FDH   LINE      CODE     ---       #41
      00FF1105H   LINE      CODE     ---       #42
      00FF110CH   LINE      CODE     ---       #44
      00FF1112H   LINE      CODE     ---       #45
      00FF1117H   LINE      CODE     ---       #46
      00FF111BH   LINE      CODE     ---       #47
      00FF111FH   LINE      CODE     ---       #49
      00FF112BH   LINE      CODE     ---       #50
      00FF112FH   LINE      CODE     ---       #51
      00FF1133H   LINE      CODE     ---       #52
      00FF1139H   LINE      CODE     ---       #54
      00FF113CH   LINE      CODE     ---       #55
      ---         BLOCKEND  ---      ---       LVL=0

      00FF201EH   BLOCK     CODE     ---       LVL=0
      R10         REGSYM    ---      BYTE      addr
      00FF2020H   BLOCK     CODE     NEAR LAB  LVL=1
      R11         REGSYM    ---      BYTE      dat
      ---         BLOCKEND  ---      ---       LVL=1
      00FF201EH   LINE      CODE     ---       #57
      00FF2020H   LINE      CODE     ---       #58
      00FF2020H   LINE      CODE     ---       #61
      00FF2025H   LINE      CODE     ---       #62
      00FF202BH   LINE      CODE     ---       #63
      00FF2030H   LINE      CODE     ---       #64
      00FF2032H   LINE      CODE     ---       #66
      00FF2032H   LINE      CODE     ---       #67
      ---         BLOCKEND  ---      ---       LVL=0

      00FF209AH   BLOCK     CODE     ---       LVL=0
      R7          REGSYM    ---      BYTE      addr
      R10         REGSYM    ---      BYTE      dat
      00FF209AH   LINE      CODE     ---       #69
      00FF209EH   LINE      CODE     ---       #71
      00FF20A3H   LINE      CODE     ---       #72
      00FF20A9H   LINE      CODE     ---       #73
      00FF20ACH   LINE      CODE     ---       #74
      ---         BLOCKEND  ---      ---       LVL=0

      00FF1849H   BLOCK     CODE     ---       LVL=0
      FFFFFFFEH   STKSYM    ---      BYTE      fifo
      REG=3       REGSYM    ---      ---       pdat
      00FF1851H   BLOCK     CODE     NEAR LAB  LVL=1
      00000000H   STKSYM    ---      BYTE      cnt
      FFFFFFFFH   STKSYM    ---      BYTE      ret
      ---         BLOCKEND  ---      ---       LVL=1
      00FF1849H   LINE      CODE     ---       #76
      00FF1851H   LINE      CODE     ---       #77
      00FF1851H   LINE      CODE     ---       #81
      00FF185DH   LINE      CODE     ---       #82
      00FF185FH   LINE      CODE     ---       #84
      00FF186BH   LINE      CODE     ---       #85
      00FF1878H   LINE      CODE     ---       #87
      00FF187CH   LINE      CODE     ---       #88
      ---         BLOCKEND  ---      ---       LVL=0
L251 LINKER/LOCATER V4.66.93.0                                                        06/18/2023  10:11:36  PAGE 18



      00FF1A81H   BLOCK     CODE     ---       LVL=0
      00000000H   STKSYM    ---      BYTE      fifo
      REG=3       REGSYM    ---      ---       pdat
      FFFFFFFFH   STKSYM    ---      BYTE      cnt
      00FF1A81H   LINE      CODE     ---       #90
      00FF1A89H   LINE      CODE     ---       #92
      00FF1A8BH   LINE      CODE     ---       #94
      00FF1A96H   LINE      CODE     ---       #95
      00FF1AA5H   LINE      CODE     ---       #96
      ---         BLOCKEND  ---      ---       LVL=0

      00FF0E96H   BLOCK     CODE     ---       LVL=0
      00FF0EAEH   BLOCK     CODE     NEAR LAB  LVL=1
      R14         REGSYM    ---      BYTE      intrusb
      R12         REGSYM    ---      BYTE      intrin
      R13         REGSYM    ---      BYTE      introut
      R15         REGSYM    ---      BYTE      adrTemp
      ---         BLOCKEND  ---      ---       LVL=1
      00FF0E96H   LINE      CODE     ---       #98
      00FF0EAEH   LINE      CODE     ---       #99
      00FF0EAEH   LINE      CODE     ---       #105
      00FF0EB1H   LINE      CODE     ---       #107
      00FF0EB8H   LINE      CODE     ---       #108
      00FF0EBFH   LINE      CODE     ---       #109
      00FF0EC6H   LINE      CODE     ---       #111
      00FF0ECEH   LINE      CODE     ---       #112
      00FF0ED6H   LINE      CODE     ---       #114
      00FF0EDEH   LINE      CODE     ---       #117
      00FF0EE6H   LINE      CODE     ---       #120
      00FF0EEEH   LINE      CODE     ---       #133
      00FF0EF6H   LINE      CODE     ---       #148
      00FF0EFEH   LINE      CODE     ---       #150
      00FF0F01H   LINE      CODE     ---       #151
      ---         BLOCKEND  ---      ---       LVL=0

      00FF217CH   BLOCK     CODE     ---       LVL=0
      00FF217CH   LINE      CODE     ---       #153
      00FF217CH   LINE      CODE     ---       #155
      ---         BLOCKEND  ---      ---       LVL=0

      00FF1579H   BLOCK     CODE     ---       LVL=0
      00FF1579H   LINE      CODE     ---       #157
      00FF1579H   LINE      CODE     ---       #159
      00FF157FH   LINE      CODE     ---       #160
      00FF1585H   LINE      CODE     ---       #161
      00FF158AH   LINE      CODE     ---       #164
      00FF1592H   LINE      CODE     ---       #165
      00FF159AH   LINE      CODE     ---       #168
      00FF15A2H   LINE      CODE     ---       #169
      00FF15AAH   LINE      CODE     ---       #184
      00FF15B2H   LINE      CODE     ---       #185
      00FF15BAH   LINE      CODE     ---       #203
      ---         BLOCKEND  ---      ---       LVL=0

      00FF00CAH   BLOCK     CODE     ---       LVL=0
      00FF00CAH   LINE      CODE     ---       #206
      00FF00CAH   LINE      CODE     ---       #208
      ---         BLOCKEND  ---      ---       LVL=0

      00FF0D87H   BLOCK     CODE     ---       LVL=0
      00FF0D89H   BLOCK     CODE     NEAR LAB  LVL=1
      R15         REGSYM    ---      BYTE      csr
      ---         BLOCKEND  ---      ---       LVL=1
      00FF0D87H   LINE      CODE     ---       #210
L251 LINKER/LOCATER V4.66.93.0                                                        06/18/2023  10:11:36  PAGE 19


      00FF0D89H   LINE      CODE     ---       #211
      00FF0D89H   LINE      CODE     ---       #214
      00FF0D90H   LINE      CODE     ---       #215
      00FF0D97H   LINE      CODE     ---       #217
      00FF0D9AH   LINE      CODE     ---       #219
      00FF0DA4H   LINE      CODE     ---       #220
      00FF0DA9H   LINE      CODE     ---       #221
      00FF0DA9H   LINE      CODE     ---       #222
      00FF0DAEH   LINE      CODE     ---       #224
      00FF0DB8H   LINE      CODE     ---       #225
      00FF0DB8H   LINE      CODE     ---       #227
      00FF0DC7H   LINE      CODE     ---       #229
      00FF0DC7H   LINE      CODE     ---       #230
      00FF0DCCH   LINE      CODE     ---       #232
      00FF0DD5H   LINE      CODE     ---       #233
      00FF0DE0H   LINE      CODE     ---       #234
      00FF0DF2H   LINE      CODE     ---       #236
      00FF0DF2H   LINE      CODE     ---       #237
      00FF0DF5H   LINE      CODE     ---       #238
      00FF0DF7H   LINE      CODE     ---       #239
      00FF0DF7H   LINE      CODE     ---       #240
      00FF0DFAH   LINE      CODE     ---       #241
      00FF0DFCH   LINE      CODE     ---       #242
      00FF0DFCH   LINE      CODE     ---       #243
      00FF0DFFH   LINE      CODE     ---       #244
      00FF0E01H   LINE      CODE     ---       #245
      00FF0E01H   LINE      CODE     ---       #246
      00FF0E04H   LINE      CODE     ---       #247
      00FF0E06H   LINE      CODE     ---       #248
      00FF0E06H   LINE      CODE     ---       #249
      00FF0E06H   LINE      CODE     ---       #250
      00FF0E06H   LINE      CODE     ---       #251
      00FF0E06H   LINE      CODE     ---       #252
      00FF0E09H   LINE      CODE     ---       #253
      00FF0E0BH   LINE      CODE     ---       #254
      00FF0E0BH   LINE      CODE     ---       #255
      00FF0E0EH   LINE      CODE     ---       #256
      00FF0E0EH   LINE      CODE     ---       #257
      00FF0E0EH   LINE      CODE     ---       #258
      ---         BLOCKEND  ---      ---       LVL=0

      00FF2147H   BLOCK     CODE     ---       LVL=0
      00FF2147H   LINE      CODE     ---       #260
      00FF2147H   LINE      CODE     ---       #262
      00FF214DH   LINE      CODE     ---       #263
      ---         BLOCKEND  ---      ---       LVL=0

      00FF20F9H   BLOCK     CODE     ---       LVL=0
      00FF20F9H   LINE      CODE     ---       #266
      00FF20F9H   LINE      CODE     ---       #268
      00FF20FFH   LINE      CODE     ---       #269
      00FF2107H   LINE      CODE     ---       #270
      ---         BLOCKEND  ---      ---       LVL=0

      00FF2139H   BLOCK     CODE     ---       LVL=0
      00FF2139H   LINE      CODE     ---       #273
      00FF2139H   LINE      CODE     ---       #275
      00FF213FH   LINE      CODE     ---       #276
      ---         BLOCKEND  ---      ---       LVL=0

      00FF2163H   BLOCK     CODE     ---       LVL=0
      00FF2163H   LINE      CODE     ---       #279
      00FF2163H   LINE      CODE     ---       #281
      00FF2168H   LINE      CODE     ---       #282
      ---         BLOCKEND  ---      ---       LVL=0
L251 LINKER/LOCATER V4.66.93.0                                                        06/18/2023  10:11:36  PAGE 20



      00FF1017H   BLOCK     CODE     ---       LVL=0
      00FF1019H   BLOCK     CODE     NEAR LAB  LVL=1
      R11         REGSYM    ---      BYTE      csr
      R15         REGSYM    ---      BYTE      cnt
      ---         BLOCKEND  ---      ---       LVL=1
      00FF1017H   LINE      CODE     ---       #285
      00FF1019H   LINE      CODE     ---       #286
      00FF1019H   LINE      CODE     ---       #290
      00FF1020H   LINE      CODE     ---       #291
      00FF1025H   LINE      CODE     ---       #292
      00FF1028H   LINE      CODE     ---       #294
      00FF1039H   LINE      CODE     ---       #295
      00FF1044H   LINE      CODE     ---       #296
      00FF1050H   LINE      CODE     ---       #297
      00FF105CH   LINE      CODE     ---       #298
      00FF1064H   LINE      CODE     ---       #300
      00FF106CH   LINE      CODE     ---       #301
      00FF1071H   LINE      CODE     ---       #302
      00FF1073H   LINE      CODE     ---       #305
      00FF107BH   LINE      CODE     ---       #306
      00FF107BH   LINE      CODE     ---       #307
      ---         BLOCKEND  ---      ---       LVL=0

      00FF1499H   BLOCK     CODE     ---       LVL=0
      R11         REGSYM    ---      BYTE      csr
      R7          REGSYM    ---      BYTE      cnt
      00FF1499H   LINE      CODE     ---       #309
      00FF1499H   LINE      CODE     ---       #310
      00FF1499H   LINE      CODE     ---       #314
      00FF14A0H   LINE      CODE     ---       #315
      00FF14A5H   LINE      CODE     ---       #316
      00FF14A8H   LINE      CODE     ---       #318
      00FF14B1H   LINE      CODE     ---       #319
      00FF14BDH   LINE      CODE     ---       #320
      00FF14C7H   LINE      CODE     ---       #321
      00FF14CFH   LINE      CODE     ---       #323
      00FF14D7H   LINE      CODE     ---       #324
      00FF14DCH   LINE      CODE     ---       #325
      00FF14DDH   LINE      CODE     ---       #328
      00FF14E5H   LINE      CODE     ---       #329
      00FF14E5H   LINE      CODE     ---       #330
      ---         BLOCKEND  ---      ---       LVL=0

      00FF2009H   BLOCK     CODE     ---       LVL=0
      REG=0       REGSYM    ---      ---       pData
      R7          REGSYM    ---      BYTE      bSize
      R10         REGSYM    ---      BYTE      ep
      00FF2009H   LINE      CODE     ---       #332
      00FF200DH   LINE      CODE     ---       #334
      00FF2016H   LINE      CODE     ---       #335
      ---         BLOCKEND  ---      ---       LVL=0

      00FF1E09H   BLOCK     CODE     ---       LVL=0
      REG=0       REGSYM    ---      ---       pData
      R7          REGSYM    ---      BYTE      ep
      00FF1E0BH   BLOCK     CODE     NEAR LAB  LVL=1
      R15         REGSYM    ---      BYTE      cnt
      ---         BLOCKEND  ---      ---       LVL=1
      00FF1E09H   LINE      CODE     ---       #338
      00FF1E0BH   LINE      CODE     ---       #339
      00FF1E0BH   LINE      CODE     ---       #342
      00FF1E16H   LINE      CODE     ---       #343
      00FF1E1DH   LINE      CODE     ---       #345
      00FF1E1FH   LINE      CODE     ---       #346
L251 LINKER/LOCATER V4.66.93.0                                                        06/18/2023  10:11:36  PAGE 21


      ---         BLOCKEND  ---      ---       LVL=0

      00FF19FCH   BLOCK     CODE     ---       LVL=0
      00FF19FEH   BLOCK     CODE     NEAR LAB  LVL=1
      R15         REGSYM    ---      BYTE      csr
      ---         BLOCKEND  ---      ---       LVL=1
      00FF19FCH   LINE      CODE     ---       #349
      00FF19FEH   LINE      CODE     ---       #350
      00FF19FEH   LINE      CODE     ---       #353
      00FF1A06H   LINE      CODE     ---       #354
      00FF1A0DH   LINE      CODE     ---       #355
      00FF1A10H   LINE      CODE     ---       #357
      00FF1A18H   LINE      CODE     ---       #358
      00FF1A18H   LINE      CODE     ---       #359
      00FF1A1DH   LINE      CODE     ---       #361
      00FF1A24H   LINE      CODE     ---       #362
      00FF1A24H   LINE      CODE     ---       #364
      00FF1A26H   LINE      CODE     ---       #365
      ---         BLOCKEND  ---      ---       LVL=0

      00FF1A56H   BLOCK     CODE     ---       LVL=0
      00FF1A58H   BLOCK     CODE     NEAR LAB  LVL=1
      R15         REGSYM    ---      BYTE      csr
      ---         BLOCKEND  ---      ---       LVL=1
      00FF1A56H   LINE      CODE     ---       #369
      00FF1A58H   LINE      CODE     ---       #370
      00FF1A58H   LINE      CODE     ---       #373
      00FF1A60H   LINE      CODE     ---       #374
      00FF1A67H   LINE      CODE     ---       #375
      00FF1A6AH   LINE      CODE     ---       #377
      00FF1A72H   LINE      CODE     ---       #378
      00FF1A72H   LINE      CODE     ---       #379
      00FF1A77H   LINE      CODE     ---       #381
      00FF1A7EH   LINE      CODE     ---       #382
      ---         BLOCKEND  ---      ---       LVL=0

      00FF0003H   BLOCK     CODE     ---       LVL=0
      00FF0005H   BLOCK     CODE     NEAR LAB  LVL=1
      R15         REGSYM    ---      BYTE      csr
      R15         REGSYM    ---      BYTE      cnt
      ---         BLOCKEND  ---      ---       LVL=1
      00FF0003H   LINE      CODE     ---       #444
      00FF0005H   LINE      CODE     ---       #445
      00FF0005H   LINE      CODE     ---       #449
      00FF000DH   LINE      CODE     ---       #450
      00FF0014H   LINE      CODE     ---       #451
      00FF0017H   LINE      CODE     ---       #453
      00FF001FH   LINE      CODE     ---       #454
      00FF001FH   LINE      CODE     ---       #455
      00FF0027H   LINE      CODE     ---       #457
      00FF0038H   LINE      CODE     ---       #459
      00FF0043H   LINE      CODE     ---       #461
      00FF0047H   LINE      CODE     ---       #463
      00FF006BH   LINE      CODE     ---       #465
      00FF0070H   LINE      CODE     ---       #466
      00FF007FH   LINE      CODE     ---       #468
      00FF0086H   LINE      CODE     ---       #470
      00FF0089H   LINE      CODE     ---       #471
      00FF008CH   LINE      CODE     ---       #472
      00FF0098H   LINE      CODE     ---       #474
      00FF009FH   LINE      CODE     ---       #476
      00FF00A2H   LINE      CODE     ---       #477
      00FF00A4H   LINE      CODE     ---       #480
      00FF00AFH   LINE      CODE     ---       #481
      00FF00B3H   LINE      CODE     ---       #483
L251 LINKER/LOCATER V4.66.93.0                                                        06/18/2023  10:11:36  PAGE 22


      00FF00B8H   LINE      CODE     ---       #484
      00FF00C2H   LINE      CODE     ---       #485
      00FF00C2H   LINE      CODE     ---       #487
      00FF00C4H   LINE      CODE     ---       #489
      ---         BLOCKEND  ---      ---       LVL=0

      00FF19CDH   BLOCK     CODE     ---       LVL=0
      R15         REGSYM    ---      BYTE      cnt
      00FF19CDH   LINE      CODE     ---       #565
      00FF19D1H   LINE      CODE     ---       #567
      00FF19D4H   LINE      CODE     ---       #569
      00FF19DCH   LINE      CODE     ---       #570
      00FF19E4H   LINE      CODE     ---       #571
      00FF19F4H   LINE      CODE     ---       #572
      00FF19F6H   LINE      CODE     ---       #574
      00FF19F9H   LINE      CODE     ---       #575
      ---         BLOCKEND  ---      ---       LVL=0

      00FF1F67H   BLOCK     CODE     ---       LVL=0
      00FF1F67H   LINE      CODE     ---       #577
      00FF1F67H   LINE      CODE     ---       #579
      00FF1F6AH   LINE      CODE     ---       #581
      00FF1F72H   LINE      CODE     ---       #582
      00FF1F79H   LINE      CODE     ---       #583
      00FF1F7BH   LINE      CODE     ---       #585
      00FF1F7EH   LINE      CODE     ---       #586
      ---         BLOCKEND  ---      ---       LVL=0

      ---         MODULE    ---      ---       util
      00FF2072H   PUBLIC    CODE     ---       LCD12864_DisplayClear
      00FF1883H   PUBLIC    CODE     ---       OLED12864_ScrollRight
      00FF1E22H   PUBLIC    CODE     ---       OLED12864_DisplayOff
      00FF18F7H   PUBLIC    CODE     ---       OLED12864_ScrollLeft
      00FF1BB4H   PUBLIC    CODE     ---       OLED12864_SetAddressMode
      00FF1BD5H   PUBLIC    CODE     ---       OLED12864_SetContrast
      00FF1E54H   PUBLIC    CODE     ---       LCD12864_AutoWrapOff
      00FF1696H   PUBLIC    CODE     ---       OLED12864_ShowPicture
      00FF1D05H   PUBLIC    CODE     ---       OLED12864_ScrollStart
      00FF199AH   PUBLIC    CODE     ---       SEG7_ShowFloat
      00FF1530H   PUBLIC    CODE     ---       SEG7_ShowString
      00FF1930H   PUBLIC    CODE     ---       SEG7_ShowCode
      00FF15C1H   PUBLIC    CODE     ---       LED40_SendData
      00FF1D1FH   PUBLIC    CODE     ---       OLED12864_DisplayOn
      00FF1BF6H   PUBLIC    CODE     ---       LCD12864_ReverseLine
      00FF1E6DH   PUBLIC    CODE     ---       OLED12864_ScrollStop
      00FF1608H   PUBLIC    CODE     ---       LED64_SendData
      00FF1A29H   PUBLIC    CODE     ---       printf_hid
      00FF17CFH   PUBLIC    CODE     ---       SEG7_ShowLong
      00FF1D39H   PUBLIC    CODE     ---       LCD12864_ScrollRight
      00FF1D53H   PUBLIC    CODE     ---       LCD12864_AutoWrapOn
      00FF1E86H   PUBLIC    CODE     ---       LCD12864_DisplayOff
      00FF1965H   PUBLIC    CODE     ---       reverse2
      00FF107EH   PUBLIC    CODE     ---       reverse4
      00FF1EB8H   PUBLIC    CODE     ---       LCD12864_ScrollLeft
      00FF1ED1H   PUBLIC    CODE     ---       OLED12864_HorizontalMirror
      00FF13FBH   PUBLIC    CODE     ---       LCD12864_ShowPicture
      00FF18BDH   PUBLIC    CODE     ---       OLED12864_ScrollUp
      00FF1EEAH   PUBLIC    CODE     ---       OLED12864_DisplayContent
      00FF2086H   PUBLIC    CODE     ---       OLED12864_DisplayReverse
      00FF1D6DH   PUBLIC    CODE     ---       OLED12864_VerticalMirror
      00FF1D87H   PUBLIC    CODE     ---       LCD12864_CursorReturnHome
      00FF1DA1H   PUBLIC    CODE     ---       OLED12864_DisplayEntire
      00FF1DBBH   PUBLIC    CODE     ---       LCD12864_DisplayOn
      00FF1DD5H   PUBLIC    CODE     ---       LCD12864_CursorMoveRight
      00FF180CH   PUBLIC    CODE     ---       LCD12864_ShowString
L251 LINKER/LOCATER V4.66.93.0                                                        06/18/2023  10:11:36  PAGE 23


      00FF1F03H   PUBLIC    CODE     ---       LCD12864_CursorOff
      00FF1F7FH   PUBLIC    CODE     ---       sleep_ms
      00FF1F1CH   PUBLIC    CODE     ---       LCD12864_CursorMoveLeft
      00FF1CB1H   PUBLIC    CODE     ---       sleep_us
      00FF1AFAH   PUBLIC    CODE     ---       LCD12864_ScrollUp
      00FF1DEFH   PUBLIC    CODE     ---       LCD12864_CursorOn
      0000007DH   PUBLIC    EDATA    BYTE      ?SEG7_ShowString?BYTE
      0000004DH   PUBLIC    EDATA    BYTE      ?printf_hid?BYTE
      000000D0H   SFRSYM    DATA     BYTE      PSW
      0000009DH   SFRSYM    DATA     BYTE      IRCBAND
      00000097H   SFRSYM    DATA     BYTE      AUXR2
      000000EFH   SFRSYM    DATA     BYTE      AUXINTIF
      000000FDH   SFRSYM    DATA     BYTE      S4CON
      000000ACH   SFRSYM    DATA     BYTE      S3CON
      0000009AH   SFRSYM    DATA     BYTE      S2CON
      000000B7H   SFRSYM    DATA     BYTE      IPH
      000000CDH   SFRSYM    DATA     BYTE      SPSTAT
      000000DDH   SFRSYM    DATA     BYTE      T4T3M
      000000C1H   SFRSYM    DATA     BYTE      WDT_CONTR
      000000DFH   SFRSYM    DATA     BYTE      IP3
      000000F4H   SFRSYM    DATA     BYTE      USBCON
      000000B5H   SFRSYM    DATA     BYTE      IP2
      000000FFH   SFRSYM    DATA     BYTE      RSTCFG
      000000F9H   SFRSYM    DATA     BYTE      LINICR
      0000008EH   SFRSYM    DATA     BYTE      AUXR
      000000AFH   SFRSYM    DATA     BYTE      IE2
      00000088H   SFRSYM    DATA     BYTE      TCON
      00000098H   SFRSYM    DATA     BYTE      SCON
      000000F1H   SFRSYM    DATA     BYTE      CANICR
      00000087H   SFRSYM    DATA     BYTE      PCON
      000000BCH   SFRSYM    DATA     BYTE      ADC_CONTR
      000000E7H   SFRSYM    DATA     BYTE      CMPCR2
      000000E6H   SFRSYM    DATA     BYTE      CMPCR1
      000000B8H   SFRSYM    DATA     BYTE      IP
      0000008FH   SFRSYM    DATA     BYTE      INTCLKO
      000000EEH   SFRSYM    DATA     BYTE      IP3H
      000000B6H   SFRSYM    DATA     BYTE      IP2H
      000000A8H   SFRSYM    DATA     BYTE      IE
      000000BBH   SFRSYM    DATA     BYTE      P_SW3
      000000BAH   SFRSYM    DATA     BYTE      P_SW2
      000000A2H   SFRSYM    DATA     BYTE      P_SW1
      000000CEH   SFRSYM    DATA     BYTE      SPCTL
      000000F8H   SFRSYM    DATA     BYTE      P7
      000000E8H   SFRSYM    DATA     BYTE      P6
      000000C8H   SFRSYM    DATA     BYTE      P5
      000000C0H   SFRSYM    DATA     BYTE      P4
      000000B0H   SFRSYM    DATA     BYTE      P3
      000000A0H   SFRSYM    DATA     BYTE      P2
      00000090H   SFRSYM    DATA     BYTE      P1
      00000080H   SFRSYM    DATA     BYTE      P0
      00FF1E3BH   SYMBOL    CODE     ---       OLED12864_SetHeader
      00FF0C57H   SYMBOL    CODE     ---       OLED12864_SetBuffer
      00FF1E9FH   SYMBOL    CODE     ---       LCD12864_SetHeader
      00FF0CEFH   SYMBOL    CODE     ---       LCD12864_SetBuffer
      00FF1F35H   SYMBOL    CODE     ---       SEG7_SetHeader

      00FF107EH   BLOCK     CODE     ---       LVL=0
      000000ABH   SYMBOL    EDATA    DWORD     d
      00FF1082H   BLOCK     CODE     NEAR LAB  LVL=1
      000000AFH   SYMBOL    EDATA    DWORD     ret
      ---         BLOCKEND  ---      ---       LVL=1
      00FF107EH   LINE      CODE     ---       #17
      00FF1082H   LINE      CODE     ---       #18
      00FF1082H   LINE      CODE     ---       #21
      00FF1098H   LINE      CODE     ---       #22
L251 LINKER/LOCATER V4.66.93.0                                                        06/18/2023  10:11:36  PAGE 24


      00FF10AEH   LINE      CODE     ---       #23
      00FF10C4H   LINE      CODE     ---       #24
      00FF10DAH   LINE      CODE     ---       #26
      00FF10DEH   LINE      CODE     ---       #27
      ---         BLOCKEND  ---      ---       LVL=0

      00FF1965H   BLOCK     CODE     ---       LVL=0
      00000021H   SYMBOL    EDATA    WORD      w
      00FF1969H   BLOCK     CODE     NEAR LAB  LVL=1
      00000023H   SYMBOL    EDATA    WORD      ret
      ---         BLOCKEND  ---      ---       LVL=1
      00FF1965H   LINE      CODE     ---       #29
      00FF1969H   LINE      CODE     ---       #30
      00FF1969H   LINE      CODE     ---       #33
      00FF197FH   LINE      CODE     ---       #34
      00FF1995H   LINE      CODE     ---       #36
      00FF1999H   LINE      CODE     ---       #37
      ---         BLOCKEND  ---      ---       LVL=0

      00FF1CB1H   BLOCK     CODE     ---       LVL=0
      WR6         REGSYM    ---      WORD      n
      00FF1CB1H   LINE      CODE     ---       #39
      00FF1CB1H   LINE      CODE     ---       #41
      00FF1CB3H   LINE      CODE     ---       #50
      00FF1CB4H   LINE      CODE     ---       #51
      00FF1CB5H   LINE      CODE     ---       #52
      00FF1CB6H   LINE      CODE     ---       #53
      00FF1CB7H   LINE      CODE     ---       #55
      00FF1CB8H   LINE      CODE     ---       #56
      00FF1CB9H   LINE      CODE     ---       #57
      00FF1CBAH   LINE      CODE     ---       #58
      00FF1CBBH   LINE      CODE     ---       #59
      00FF1CBCH   LINE      CODE     ---       #61
      00FF1CBDH   LINE      CODE     ---       #62
      00FF1CBEH   LINE      CODE     ---       #63
      00FF1CBFH   LINE      CODE     ---       #64
      00FF1CC0H   LINE      CODE     ---       #65
      00FF1CC1H   LINE      CODE     ---       #67
      00FF1CC2H   LINE      CODE     ---       #68
      00FF1CC3H   LINE      CODE     ---       #69
      00FF1CC4H   LINE      CODE     ---       #70
      00FF1CC5H   LINE      CODE     ---       #71
      00FF1CCDH   LINE      CODE     ---       #72
      ---         BLOCKEND  ---      ---       LVL=0

      00FF1F7FH   BLOCK     CODE     ---       LVL=0
      WR14        REGSYM    ---      WORD      n
      00FF1F7FH   LINE      CODE     ---       #74
      00FF1F83H   LINE      CODE     ---       #76
      00FF1F94H   LINE      CODE     ---       #78
      ---         BLOCKEND  ---      ---       LVL=0

      00FF1F35H   BLOCK     CODE     ---       LVL=0
      00FF1F35H   LINE      CODE     ---       #80
      00FF1F35H   LINE      CODE     ---       #82
      00FF1F3BH   LINE      CODE     ---       #83
      00FF1F41H   LINE      CODE     ---       #84
      00FF1F47H   LINE      CODE     ---       #85
      00FF1F4DH   LINE      CODE     ---       #86
      ---         BLOCKEND  ---      ---       LVL=0

      00FF17CFH   BLOCK     CODE     ---       LVL=0
      0000001CH   SYMBOL    EDATA    LONG      n
      R15         REGSYM    ---      CHAR      radix
      00FF17CFH   LINE      CODE     ---       #88
L251 LINKER/LOCATER V4.66.93.0                                                        06/18/2023  10:11:36  PAGE 25


      00FF17D7H   LINE      CODE     ---       #90
      00FF17DAH   LINE      CODE     ---       #91
      00FF17E0H   LINE      CODE     ---       #92
      00FF17E6H   LINE      CODE     ---       #93
      00FF17ECH   LINE      CODE     ---       #94
      00FF17F1H   LINE      CODE     ---       #95
      00FF1804H   LINE      CODE     ---       #97
      00FF1809H   LINE      CODE     ---       #98
      ---         BLOCKEND  ---      ---       LVL=0

      00FF199AH   BLOCK     CODE     ---       LVL=0
      DR12        REGSYM    ---      FLOAT     f
      00FF199AH   LINE      CODE     ---       #100
      00FF199EH   LINE      CODE     ---       #102
      00FF19A1H   LINE      CODE     ---       #103
      00FF19A7H   LINE      CODE     ---       #104
      00FF19ADH   LINE      CODE     ---       #105
      00FF19B2H   LINE      CODE     ---       #106
      00FF19B6H   LINE      CODE     ---       #107
      00FF19C5H   LINE      CODE     ---       #109
      00FF19CAH   LINE      CODE     ---       #110
      ---         BLOCKEND  ---      ---       LVL=0

      00FF1930H   BLOCK     CODE     ---       LVL=0
      REG=3       REGSYM    ---      ---       cod
      00FF1930H   LINE      CODE     ---       #112
      00FF1932H   LINE      CODE     ---       #114
      00FF1935H   LINE      CODE     ---       #115
      00FF193BH   LINE      CODE     ---       #116
      00FF1940H   LINE      CODE     ---       #117
      00FF1944H   LINE      CODE     ---       #118
      00FF1948H   LINE      CODE     ---       #119
      00FF195DH   LINE      CODE     ---       #121
      00FF1962H   LINE      CODE     ---       #122
      ---         BLOCKEND  ---      ---       LVL=0

      00FF1530H   BLOCK     CODE     ---       LVL=0
      0000007DH   SYMBOL    EDATA    ---       fmt
      00FF1536H   BLOCK     CODE     NEAR LAB  LVL=1
      REG=1       REGSYM    ---      ---       va
      WR14        REGSYM    ---      INT       ret
      ---         BLOCKEND  ---      ---       LVL=1
      00FF1530H   LINE      CODE     ---       #124
      00FF1536H   LINE      CODE     ---       #125
      00FF1536H   LINE      CODE     ---       #129
      00FF1539H   LINE      CODE     ---       #130
      00FF153FH   LINE      CODE     ---       #131
      00FF1544H   LINE      CODE     ---       #132
      00FF1548H   LINE      CODE     ---       #133
      00FF154CH   LINE      CODE     ---       #135
      00FF1554H   LINE      CODE     ---       #136
      00FF156DH   LINE      CODE     ---       #139
      00FF1574H   LINE      CODE     ---       #141
      00FF1576H   LINE      CODE     ---       #142
      ---         BLOCKEND  ---      ---       LVL=0

      00FF1A29H   BLOCK     CODE     ---       LVL=0
      0000004DH   SYMBOL    EDATA    ---       fmt
      00FF1A2FH   BLOCK     CODE     NEAR LAB  LVL=1
      REG=1       REGSYM    ---      ---       va
      WR14        REGSYM    ---      INT       ret
      ---         BLOCKEND  ---      ---       LVL=1
      00FF1A29H   LINE      CODE     ---       #144
      00FF1A2FH   LINE      CODE     ---       #145
      00FF1A2FH   LINE      CODE     ---       #149
L251 LINKER/LOCATER V4.66.93.0                                                        06/18/2023  10:11:36  PAGE 26


      00FF1A37H   LINE      CODE     ---       #150
      00FF1A4CH   LINE      CODE     ---       #153
      00FF1A51H   LINE      CODE     ---       #155
      00FF1A53H   LINE      CODE     ---       #156
      ---         BLOCKEND  ---      ---       LVL=0

      00FF15C1H   BLOCK     CODE     ---       LVL=0
      REG=0       REGSYM    ---      ---       dat
      R15         REGSYM    ---      BYTE      size
      00FF15C1H   LINE      CODE     ---       #158
      00FF15C5H   LINE      CODE     ---       #160
      00FF15CAH   LINE      CODE     ---       #161
      00FF15CDH   LINE      CODE     ---       #163
      00FF15D3H   LINE      CODE     ---       #164
      00FF15D9H   LINE      CODE     ---       #165
      00FF15DFH   LINE      CODE     ---       #166
      00FF15E5H   LINE      CODE     ---       #167
      00FF15EBH   LINE      CODE     ---       #168
      00FF15FEH   LINE      CODE     ---       #170
      00FF1605H   LINE      CODE     ---       #171
      ---         BLOCKEND  ---      ---       LVL=0

      00FF1608H   BLOCK     CODE     ---       LVL=0
      REG=0       REGSYM    ---      ---       dat
      R15         REGSYM    ---      BYTE      size
      00FF1608H   LINE      CODE     ---       #173
      00FF160CH   LINE      CODE     ---       #175
      00FF1611H   LINE      CODE     ---       #176
      00FF1614H   LINE      CODE     ---       #178
      00FF161AH   LINE      CODE     ---       #179
      00FF1620H   LINE      CODE     ---       #180
      00FF1626H   LINE      CODE     ---       #181
      00FF162CH   LINE      CODE     ---       #182
      00FF1632H   LINE      CODE     ---       #183
      00FF1645H   LINE      CODE     ---       #185
      00FF164CH   LINE      CODE     ---       #186
      ---         BLOCKEND  ---      ---       LVL=0

      00FF1E9FH   BLOCK     CODE     ---       LVL=0
      00FF1E9FH   LINE      CODE     ---       #188
      00FF1E9FH   LINE      CODE     ---       #190
      00FF1EA5H   LINE      CODE     ---       #191
      00FF1EABH   LINE      CODE     ---       #192
      00FF1EB1H   LINE      CODE     ---       #193
      00FF1EB7H   LINE      CODE     ---       #194
      ---         BLOCKEND  ---      ---       LVL=0

      00FF1E86H   BLOCK     CODE     ---       LVL=0
      00FF1E86H   LINE      CODE     ---       #196
      00FF1E86H   LINE      CODE     ---       #198
      00FF1E89H   LINE      CODE     ---       #199
      00FF1E8FH   LINE      CODE     ---       #200
      00FF1E95H   LINE      CODE     ---       #201
      00FF1E9AH   LINE      CODE     ---       #203
      ---         BLOCKEND  ---      ---       LVL=0

      00FF1DBBH   BLOCK     CODE     ---       LVL=0
      00FF1DBBH   LINE      CODE     ---       #206
      00FF1DBBH   LINE      CODE     ---       #208
      00FF1DBEH   LINE      CODE     ---       #209
      00FF1DC4H   LINE      CODE     ---       #210
      00FF1DCAH   LINE      CODE     ---       #211
      00FF1DD0H   LINE      CODE     ---       #213
      ---         BLOCKEND  ---      ---       LVL=0

L251 LINKER/LOCATER V4.66.93.0                                                        06/18/2023  10:11:36  PAGE 27


      00FF1F03H   BLOCK     CODE     ---       LVL=0
      00FF1F03H   LINE      CODE     ---       #216
      00FF1F03H   LINE      CODE     ---       #218
      00FF1F06H   LINE      CODE     ---       #219
      00FF1F0CH   LINE      CODE     ---       #220
      00FF1F12H   LINE      CODE     ---       #221
      00FF1F17H   LINE      CODE     ---       #223
      ---         BLOCKEND  ---      ---       LVL=0

      00FF1DEFH   BLOCK     CODE     ---       LVL=0
      00FF1DEFH   LINE      CODE     ---       #226
      00FF1DEFH   LINE      CODE     ---       #228
      00FF1DF2H   LINE      CODE     ---       #229
      00FF1DF8H   LINE      CODE     ---       #230
      00FF1DFEH   LINE      CODE     ---       #231
      00FF1E04H   LINE      CODE     ---       #233
      ---         BLOCKEND  ---      ---       LVL=0

      00FF1F1CH   BLOCK     CODE     ---       LVL=0
      00FF1F1CH   LINE      CODE     ---       #236
      00FF1F1CH   LINE      CODE     ---       #238
      00FF1F1FH   LINE      CODE     ---       #239
      00FF1F25H   LINE      CODE     ---       #240
      00FF1F2BH   LINE      CODE     ---       #241
      00FF1F30H   LINE      CODE     ---       #243
      ---         BLOCKEND  ---      ---       LVL=0

      00FF1DD5H   BLOCK     CODE     ---       LVL=0
      00FF1DD5H   LINE      CODE     ---       #246
      00FF1DD5H   LINE      CODE     ---       #248
      00FF1DD8H   LINE      CODE     ---       #249
      00FF1DDEH   LINE      CODE     ---       #250
      00FF1DE4H   LINE      CODE     ---       #251
      00FF1DEAH   LINE      CODE     ---       #253
      ---         BLOCKEND  ---      ---       LVL=0

      00FF1D87H   BLOCK     CODE     ---       LVL=0
      00FF1D87H   LINE      CODE     ---       #256
      00FF1D87H   LINE      CODE     ---       #258
      00FF1D8AH   LINE      CODE     ---       #259
      00FF1D90H   LINE      CODE     ---       #260
      00FF1D96H   LINE      CODE     ---       #261
      00FF1D9CH   LINE      CODE     ---       #263
      ---         BLOCKEND  ---      ---       LVL=0

      00FF1EB8H   BLOCK     CODE     ---       LVL=0
      00FF1EB8H   LINE      CODE     ---       #266
      00FF1EB8H   LINE      CODE     ---       #268
      00FF1EBBH   LINE      CODE     ---       #269
      00FF1EC1H   LINE      CODE     ---       #270
      00FF1EC7H   LINE      CODE     ---       #271
      00FF1ECCH   LINE      CODE     ---       #273
      ---         BLOCKEND  ---      ---       LVL=0

      00FF1D39H   BLOCK     CODE     ---       LVL=0
      00FF1D39H   LINE      CODE     ---       #276
      00FF1D39H   LINE      CODE     ---       #278
      00FF1D3CH   LINE      CODE     ---       #279
      00FF1D42H   LINE      CODE     ---       #280
      00FF1D48H   LINE      CODE     ---       #281
      00FF1D4EH   LINE      CODE     ---       #283
      ---         BLOCKEND  ---      ---       LVL=0

      00FF1AFAH   BLOCK     CODE     ---       LVL=0
      R15         REGSYM    ---      BYTE      line
L251 LINKER/LOCATER V4.66.93.0                                                        06/18/2023  10:11:36  PAGE 28


      00FF1AFAH   LINE      CODE     ---       #286
      00FF1AFEH   LINE      CODE     ---       #288
      00FF1B01H   LINE      CODE     ---       #289
      00FF1B07H   LINE      CODE     ---       #290
      00FF1B0DH   LINE      CODE     ---       #291
      00FF1B13H   LINE      CODE     ---       #292
      00FF1B19H   LINE      CODE     ---       #294
      00FF1B1EH   LINE      CODE     ---       #295
      ---         BLOCKEND  ---      ---       LVL=0

      00FF1E54H   BLOCK     CODE     ---       LVL=0
      00FF1E54H   LINE      CODE     ---       #297
      00FF1E54H   LINE      CODE     ---       #299
      00FF1E57H   LINE      CODE     ---       #300
      00FF1E5DH   LINE      CODE     ---       #301
      00FF1E63H   LINE      CODE     ---       #302
      00FF1E68H   LINE      CODE     ---       #304
      ---         BLOCKEND  ---      ---       LVL=0

      00FF1D53H   BLOCK     CODE     ---       LVL=0
      00FF1D53H   LINE      CODE     ---       #307
      00FF1D53H   LINE      CODE     ---       #309
      00FF1D56H   LINE      CODE     ---       #310
      00FF1D5CH   LINE      CODE     ---       #311
      00FF1D62H   LINE      CODE     ---       #312
      00FF1D68H   LINE      CODE     ---       #314
      ---         BLOCKEND  ---      ---       LVL=0

      00FF1BF6H   BLOCK     CODE     ---       LVL=0
      R15         REGSYM    ---      BYTE      line
      00FF1BF6H   LINE      CODE     ---       #317
      00FF1BFAH   LINE      CODE     ---       #319
      00FF1BFDH   LINE      CODE     ---       #320
      00FF1C03H   LINE      CODE     ---       #321
      00FF1C09H   LINE      CODE     ---       #322
      00FF1C0FH   LINE      CODE     ---       #324
      00FF1C14H   LINE      CODE     ---       #325
      ---         BLOCKEND  ---      ---       LVL=0

      00FF2072H   BLOCK     CODE     ---       LVL=0
      00FF2072H   LINE      CODE     ---       #327
      00FF2072H   LINE      CODE     ---       #329
      00FF2075H   LINE      CODE     ---       #330
      00FF207BH   LINE      CODE     ---       #331
      00FF2081H   LINE      CODE     ---       #333
      ---         BLOCKEND  ---      ---       LVL=0

      00FF0CEFH   BLOCK     CODE     ---       LVL=0
      REG=3       REGSYM    ---      ---       dat
      000000BAH   SYMBOL    EDATA    WORD      size
      00FF0CF7H   BLOCK     CODE     NEAR LAB  LVL=1
      000000BCH   SYMBOL    EDATA    BYTE      cnt
      000000BDH   SYMBOL    EDATA    WORD      addr
      ---         BLOCKEND  ---      ---       LVL=1
      00FF0CEFH   LINE      CODE     ---       #336
      00FF0CF7H   LINE      CODE     ---       #337
      00FF0CF7H   LINE      CODE     ---       #341
      00FF0CFDH   LINE      CODE     ---       #342
      00FF0CFFH   LINE      CODE     ---       #344
      00FF0D05H   LINE      CODE     ---       #345
      00FF0D0FH   LINE      CODE     ---       #346
      00FF0D13H   LINE      CODE     ---       #348
      00FF0D16H   LINE      CODE     ---       #349
      00FF0D24H   LINE      CODE     ---       #350
      00FF0D2AH   LINE      CODE     ---       #351
L251 LINKER/LOCATER V4.66.93.0                                                        06/18/2023  10:11:36  PAGE 29


      00FF0D39H   LINE      CODE     ---       #352
      00FF0D50H   LINE      CODE     ---       #354
      00FF0D59H   LINE      CODE     ---       #356
      00FF0D61H   LINE      CODE     ---       #357
      00FF0D6FH   LINE      CODE     ---       #358
      00FF0D79H   LINE      CODE     ---       #359
      00FF0D84H   LINE      CODE     ---       #360
      ---         BLOCKEND  ---      ---       LVL=0

      00FF180CH   BLOCK     CODE     ---       LVL=0
      000000CCH   SYMBOL    EDATA    BYTE      x
      000000CDH   SYMBOL    EDATA    BYTE      y
      REG=3       REGSYM    ---      ---       str
      00FF180CH   LINE      CODE     ---       #362
      00FF1818H   LINE      CODE     ---       #364
      00FF1822H   LINE      CODE     ---       #366
      00FF1825H   LINE      CODE     ---       #367
      00FF182BH   LINE      CODE     ---       #368
      00FF1831H   LINE      CODE     ---       #369
      00FF1839H   LINE      CODE     ---       #370
      00FF1841H   LINE      CODE     ---       #372
      00FF1846H   LINE      CODE     ---       #373
      ---         BLOCKEND  ---      ---       LVL=0

      00FF13FBH   BLOCK     CODE     ---       LVL=0
      R12         REGSYM    ---      BYTE      x
      R13         REGSYM    ---      BYTE      y
      R14         REGSYM    ---      BYTE      cx
      R15         REGSYM    ---      BYTE      cy
      REG=7       REGSYM    ---      ---       dat
      00FF13FBH   LINE      CODE     ---       #375
      00FF1407H   LINE      CODE     ---       #377
      00FF141BH   LINE      CODE     ---       #379
      00FF141EH   LINE      CODE     ---       #380
      00FF1424H   LINE      CODE     ---       #381
      00FF142AH   LINE      CODE     ---       #382
      00FF1430H   LINE      CODE     ---       #383
      00FF1436H   LINE      CODE     ---       #384
      00FF143CH   LINE      CODE     ---       #385
      00FF1442H   LINE      CODE     ---       #387
      00FF1447H   LINE      CODE     ---       #388
      ---         BLOCKEND  ---      ---       LVL=0

      00FF1E3BH   BLOCK     CODE     ---       LVL=0
      00FF1E3BH   LINE      CODE     ---       #390
      00FF1E3BH   LINE      CODE     ---       #392
      00FF1E41H   LINE      CODE     ---       #393
      00FF1E47H   LINE      CODE     ---       #394
      00FF1E4DH   LINE      CODE     ---       #395
      00FF1E53H   LINE      CODE     ---       #396
      ---         BLOCKEND  ---      ---       LVL=0

      00FF1E22H   BLOCK     CODE     ---       LVL=0
      00FF1E22H   LINE      CODE     ---       #398
      00FF1E22H   LINE      CODE     ---       #400
      00FF1E25H   LINE      CODE     ---       #401
      00FF1E2BH   LINE      CODE     ---       #402
      00FF1E31H   LINE      CODE     ---       #403
      00FF1E36H   LINE      CODE     ---       #405
      ---         BLOCKEND  ---      ---       LVL=0

      00FF1D1FH   BLOCK     CODE     ---       LVL=0
      00FF1D1FH   LINE      CODE     ---       #408
      00FF1D1FH   LINE      CODE     ---       #410
      00FF1D22H   LINE      CODE     ---       #411
L251 LINKER/LOCATER V4.66.93.0                                                        06/18/2023  10:11:36  PAGE 30


      00FF1D28H   LINE      CODE     ---       #412
      00FF1D2EH   LINE      CODE     ---       #413
      00FF1D34H   LINE      CODE     ---       #415
      ---         BLOCKEND  ---      ---       LVL=0

      00FF1EEAH   BLOCK     CODE     ---       LVL=0
      00FF1EEAH   LINE      CODE     ---       #418
      00FF1EEAH   LINE      CODE     ---       #420
      00FF1EEDH   LINE      CODE     ---       #421
      00FF1EF3H   LINE      CODE     ---       #422
      00FF1EF9H   LINE      CODE     ---       #423
      00FF1EFEH   LINE      CODE     ---       #425
      ---         BLOCKEND  ---      ---       LVL=0

      00FF1DA1H   BLOCK     CODE     ---       LVL=0
      00FF1DA1H   LINE      CODE     ---       #428
      00FF1DA1H   LINE      CODE     ---       #430
      00FF1DA4H   LINE      CODE     ---       #431
      00FF1DAAH   LINE      CODE     ---       #432
      00FF1DB0H   LINE      CODE     ---       #433
      00FF1DB6H   LINE      CODE     ---       #435
      ---         BLOCKEND  ---      ---       LVL=0

      00FF1ED1H   BLOCK     CODE     ---       LVL=0
      00FF1ED1H   LINE      CODE     ---       #438
      00FF1ED1H   LINE      CODE     ---       #440
      00FF1ED4H   LINE      CODE     ---       #441
      00FF1EDAH   LINE      CODE     ---       #442
      00FF1EE0H   LINE      CODE     ---       #443
      00FF1EE5H   LINE      CODE     ---       #445
      ---         BLOCKEND  ---      ---       LVL=0

      00FF1D6DH   BLOCK     CODE     ---       LVL=0
      00FF1D6DH   LINE      CODE     ---       #448
      00FF1D6DH   LINE      CODE     ---       #450
      00FF1D70H   LINE      CODE     ---       #451
      00FF1D76H   LINE      CODE     ---       #452
      00FF1D7CH   LINE      CODE     ---       #453
      00FF1D82H   LINE      CODE     ---       #455
      ---         BLOCKEND  ---      ---       LVL=0

      00FF2086H   BLOCK     CODE     ---       LVL=0
      00FF2086H   LINE      CODE     ---       #458
      00FF2086H   LINE      CODE     ---       #460
      00FF2089H   LINE      CODE     ---       #461
      00FF208FH   LINE      CODE     ---       #462
      00FF2095H   LINE      CODE     ---       #464
      ---         BLOCKEND  ---      ---       LVL=0

      00FF1BD5H   BLOCK     CODE     ---       LVL=0
      R15         REGSYM    ---      BYTE      bContrast
      00FF1BD5H   LINE      CODE     ---       #467
      00FF1BD9H   LINE      CODE     ---       #469
      00FF1BDCH   LINE      CODE     ---       #470
      00FF1BE2H   LINE      CODE     ---       #471
      00FF1BE8H   LINE      CODE     ---       #472
      00FF1BEEH   LINE      CODE     ---       #474
      00FF1BF3H   LINE      CODE     ---       #475
      ---         BLOCKEND  ---      ---       LVL=0

      00FF1BB4H   BLOCK     CODE     ---       LVL=0
      R15         REGSYM    ---      BYTE      bMode
      00FF1BB4H   LINE      CODE     ---       #477
      00FF1BB8H   LINE      CODE     ---       #479
      00FF1BBBH   LINE      CODE     ---       #480
L251 LINKER/LOCATER V4.66.93.0                                                        06/18/2023  10:11:36  PAGE 31


      00FF1BC1H   LINE      CODE     ---       #481
      00FF1BC7H   LINE      CODE     ---       #482
      00FF1BCDH   LINE      CODE     ---       #484
      00FF1BD2H   LINE      CODE     ---       #485
      ---         BLOCKEND  ---      ---       LVL=0

      00FF18F7H   BLOCK     CODE     ---       LVL=0
      R12         REGSYM    ---      BYTE      bPageStart
      R13         REGSYM    ---      BYTE      bPageEnd
      WR14        REGSYM    ---      WORD      nInterval
      00FF18F7H   LINE      CODE     ---       #487
      00FF18FDH   LINE      CODE     ---       #489
      00FF1900H   LINE      CODE     ---       #490
      00FF1906H   LINE      CODE     ---       #491
      00FF190CH   LINE      CODE     ---       #492
      00FF1911H   LINE      CODE     ---       #493
      00FF1917H   LINE      CODE     ---       #494
      00FF191DH   LINE      CODE     ---       #495
      00FF1928H   LINE      CODE     ---       #497
      00FF192DH   LINE      CODE     ---       #498
      ---         BLOCKEND  ---      ---       LVL=0

      00FF1883H   BLOCK     CODE     ---       LVL=0
      R12         REGSYM    ---      BYTE      bPageStart
      R13         REGSYM    ---      BYTE      bPageEnd
      WR14        REGSYM    ---      WORD      nInterval
      00FF1883H   LINE      CODE     ---       #500
      00FF1889H   LINE      CODE     ---       #502
      00FF188CH   LINE      CODE     ---       #503
      00FF1892H   LINE      CODE     ---       #504
      00FF1898H   LINE      CODE     ---       #505
      00FF189EH   LINE      CODE     ---       #506
      00FF18A4H   LINE      CODE     ---       #507
      00FF18AAH   LINE      CODE     ---       #508
      00FF18B5H   LINE      CODE     ---       #510
      00FF18BAH   LINE      CODE     ---       #511
      ---         BLOCKEND  ---      ---       LVL=0

      00FF18BDH   BLOCK     CODE     ---       LVL=0
      R12         REGSYM    ---      BYTE      bPageStart
      R13         REGSYM    ---      BYTE      bPageEnd
      WR14        REGSYM    ---      WORD      nInterval
      00FF18BDH   LINE      CODE     ---       #513
      00FF18C3H   LINE      CODE     ---       #515
      00FF18C6H   LINE      CODE     ---       #516
      00FF18CCH   LINE      CODE     ---       #517
      00FF18D2H   LINE      CODE     ---       #518
      00FF18D8H   LINE      CODE     ---       #519
      00FF18DEH   LINE      CODE     ---       #520
      00FF18E4H   LINE      CODE     ---       #521
      00FF18EFH   LINE      CODE     ---       #523
      00FF18F4H   LINE      CODE     ---       #524
      ---         BLOCKEND  ---      ---       LVL=0

      00FF1D05H   BLOCK     CODE     ---       LVL=0
      00FF1D05H   LINE      CODE     ---       #526
      00FF1D05H   LINE      CODE     ---       #528
      00FF1D08H   LINE      CODE     ---       #529
      00FF1D0EH   LINE      CODE     ---       #530
      00FF1D14H   LINE      CODE     ---       #531
      00FF1D1AH   LINE      CODE     ---       #533
      ---         BLOCKEND  ---      ---       LVL=0

      00FF1E6DH   BLOCK     CODE     ---       LVL=0
      00FF1E6DH   LINE      CODE     ---       #536
L251 LINKER/LOCATER V4.66.93.0                                                        06/18/2023  10:11:36  PAGE 32


      00FF1E6DH   LINE      CODE     ---       #538
      00FF1E70H   LINE      CODE     ---       #539
      00FF1E76H   LINE      CODE     ---       #540
      00FF1E7CH   LINE      CODE     ---       #541
      00FF1E81H   LINE      CODE     ---       #543
      ---         BLOCKEND  ---      ---       LVL=0

      00FF0C57H   BLOCK     CODE     ---       LVL=0
      REG=3       REGSYM    ---      ---       dat
      000000BFH   SYMBOL    EDATA    WORD      size
      00FF0C5FH   BLOCK     CODE     NEAR LAB  LVL=1
      000000C1H   SYMBOL    EDATA    BYTE      cnt
      000000C2H   SYMBOL    EDATA    WORD      addr
      ---         BLOCKEND  ---      ---       LVL=1
      00FF0C57H   LINE      CODE     ---       #546
      00FF0C5FH   LINE      CODE     ---       #547
      00FF0C5FH   LINE      CODE     ---       #551
      00FF0C65H   LINE      CODE     ---       #552
      00FF0C67H   LINE      CODE     ---       #554
      00FF0C6DH   LINE      CODE     ---       #555
      00FF0C77H   LINE      CODE     ---       #556
      00FF0C7BH   LINE      CODE     ---       #558
      00FF0C7EH   LINE      CODE     ---       #559
      00FF0C8CH   LINE      CODE     ---       #560
      00FF0C92H   LINE      CODE     ---       #561
      00FF0CA1H   LINE      CODE     ---       #562
      00FF0CB8H   LINE      CODE     ---       #564
      00FF0CC1H   LINE      CODE     ---       #566
      00FF0CC9H   LINE      CODE     ---       #567
      00FF0CD7H   LINE      CODE     ---       #568
      00FF0CE1H   LINE      CODE     ---       #569
      00FF0CECH   LINE      CODE     ---       #570
      ---         BLOCKEND  ---      ---       LVL=0

      00FF1696H   BLOCK     CODE     ---       LVL=0
      R12         REGSYM    ---      BYTE      x
      R13         REGSYM    ---      BYTE      y
      R14         REGSYM    ---      BYTE      cx
      R15         REGSYM    ---      BYTE      cy
      REG=7       REGSYM    ---      ---       dat
      00FF1696H   LINE      CODE     ---       #572
      00FF16A0H   LINE      CODE     ---       #574
      00FF16A7H   LINE      CODE     ---       #576
      00FF16AAH   LINE      CODE     ---       #577
      00FF16B0H   LINE      CODE     ---       #578
      00FF16B6H   LINE      CODE     ---       #579
      00FF16BCH   LINE      CODE     ---       #580
      00FF16C2H   LINE      CODE     ---       #581
      00FF16C8H   LINE      CODE     ---       #582
      00FF16CEH   LINE      CODE     ---       #584
      00FF16D3H   LINE      CODE     ---       #585
      ---         BLOCKEND  ---      ---       LVL=0

      ---         MODULE    ---      ---       usb_req_class
      00FF1FF3H   PUBLIC    CODE     ---       usb_set_ctrl_line_state
      00FF1B21H   PUBLIC    CODE     ---       usb_get_line_coding
      00FF1B47H   PUBLIC    CODE     ---       usb_set_line_coding
      00FF1CEAH   PUBLIC    CODE     ---       usb_req_class
      000000B3H   PUBLIC    EDATA    ---       LineCoding
      000000D0H   SFRSYM    DATA     BYTE      PSW
      0000009DH   SFRSYM    DATA     BYTE      IRCBAND
      00000097H   SFRSYM    DATA     BYTE      AUXR2
      000000EFH   SFRSYM    DATA     BYTE      AUXINTIF
      000000FDH   SFRSYM    DATA     BYTE      S4CON
      000000ACH   SFRSYM    DATA     BYTE      S3CON
L251 LINKER/LOCATER V4.66.93.0                                                        06/18/2023  10:11:36  PAGE 33


      0000009AH   SFRSYM    DATA     BYTE      S2CON
      000000B7H   SFRSYM    DATA     BYTE      IPH
      000000CDH   SFRSYM    DATA     BYTE      SPSTAT
      000000DDH   SFRSYM    DATA     BYTE      T4T3M
      000000C1H   SFRSYM    DATA     BYTE      WDT_CONTR
      000000DFH   SFRSYM    DATA     BYTE      IP3
      000000F4H   SFRSYM    DATA     BYTE      USBCON
      000000B5H   SFRSYM    DATA     BYTE      IP2
      000000FFH   SFRSYM    DATA     BYTE      RSTCFG
      000000F9H   SFRSYM    DATA     BYTE      LINICR
      0000008EH   SFRSYM    DATA     BYTE      AUXR
      000000AFH   SFRSYM    DATA     BYTE      IE2
      00000088H   SFRSYM    DATA     BYTE      TCON
      00000098H   SFRSYM    DATA     BYTE      SCON
      000000F1H   SFRSYM    DATA     BYTE      CANICR
      00000087H   SFRSYM    DATA     BYTE      PCON
      000000BCH   SFRSYM    DATA     BYTE      ADC_CONTR
      000000E7H   SFRSYM    DATA     BYTE      CMPCR2
      000000E6H   SFRSYM    DATA     BYTE      CMPCR1
      000000B8H   SFRSYM    DATA     BYTE      IP
      0000008FH   SFRSYM    DATA     BYTE      INTCLKO
      000000EEH   SFRSYM    DATA     BYTE      IP3H
      000000B6H   SFRSYM    DATA     BYTE      IP2H
      000000A8H   SFRSYM    DATA     BYTE      IE
      000000BBH   SFRSYM    DATA     BYTE      P_SW3
      000000BAH   SFRSYM    DATA     BYTE      P_SW2
      000000A2H   SFRSYM    DATA     BYTE      P_SW1
      000000CEH   SFRSYM    DATA     BYTE      SPCTL
      000000F8H   SFRSYM    DATA     BYTE      P7
      000000E8H   SFRSYM    DATA     BYTE      P6
      000000C8H   SFRSYM    DATA     BYTE      P5
      000000C0H   SFRSYM    DATA     BYTE      P4
      000000B0H   SFRSYM    DATA     BYTE      P3
      000000A0H   SFRSYM    DATA     BYTE      P2
      00000090H   SFRSYM    DATA     BYTE      P1
      00000080H   SFRSYM    DATA     BYTE      P0

      00FF1CEAH   BLOCK     CODE     ---       LVL=0
      00FF1CEAH   LINE      CODE     ---       #20
      00FF1CEAH   LINE      CODE     ---       #22
      00FF1CF9H   LINE      CODE     ---       #24
      00FF1CF9H   LINE      CODE     ---       #25
      00FF1CFCH   LINE      CODE     ---       #26
      00FF1CFCH   LINE      CODE     ---       #27
      00FF1CFCH   LINE      CODE     ---       #28
      00FF1CFFH   LINE      CODE     ---       #29
      00FF1CFFH   LINE      CODE     ---       #30
      00FF1CFFH   LINE      CODE     ---       #31
      00FF1D02H   LINE      CODE     ---       #32
      00FF1D02H   LINE      CODE     ---       #33
      00FF1D02H   LINE      CODE     ---       #34
      00FF1D05H   LINE      CODE     ---       #35
      00FF1D05H   LINE      CODE     ---       #36
      00FF1D05H   LINE      CODE     ---       #37
      ---         BLOCKEND  ---      ---       LVL=0

      00FF1B47H   BLOCK     CODE     ---       LVL=0
      00FF1B47H   LINE      CODE     ---       #39
      00FF1B47H   LINE      CODE     ---       #41
      00FF1B57H   LINE      CODE     ---       #44
      00FF1B5AH   LINE      CODE     ---       #45
      00FF1B5AH   LINE      CODE     ---       #46
      00FF1B5AH   LINE      CODE     ---       #48
      00FF1B62H   LINE      CODE     ---       #49
      00FF1B6AH   LINE      CODE     ---       #51
L251 LINKER/LOCATER V4.66.93.0                                                        06/18/2023  10:11:36  PAGE 34


      00FF1B6DH   LINE      CODE     ---       #52
      ---         BLOCKEND  ---      ---       LVL=0

      00FF1B21H   BLOCK     CODE     ---       LVL=0
      00FF1B21H   LINE      CODE     ---       #54
      00FF1B21H   LINE      CODE     ---       #56
      00FF1B31H   LINE      CODE     ---       #59
      00FF1B34H   LINE      CODE     ---       #60
      00FF1B34H   LINE      CODE     ---       #61
      00FF1B34H   LINE      CODE     ---       #63
      00FF1B3CH   LINE      CODE     ---       #64
      00FF1B44H   LINE      CODE     ---       #66
      00FF1B47H   LINE      CODE     ---       #67
      ---         BLOCKEND  ---      ---       LVL=0

      00FF1FF3H   BLOCK     CODE     ---       LVL=0
      00FF1FF3H   LINE      CODE     ---       #69
      00FF1FF3H   LINE      CODE     ---       #71
      00FF2003H   LINE      CODE     ---       #74
      00FF2006H   LINE      CODE     ---       #75
      00FF2006H   LINE      CODE     ---       #76
      00FF2006H   LINE      CODE     ---       #78
      00FF2009H   LINE      CODE     ---       #79
      ---         BLOCKEND  ---      ---       LVL=0

      ---         MODULE    ---      ---       usb_req_std
      00FF1754H   PUBLIC    CODE     ---       usb_get_interface
      00FF0A80H   PUBLIC    CODE     ---       usb_clear_feature
      00FF1AAAH   PUBLIC    CODE     ---       usb_set_interface
      00FF0B1FH   PUBLIC    CODE     ---       usb_get_descriptor
      00FF00C7H   PUBLIC    CODE     ---       usb_set_descriptor
      00FF113DH   PUBLIC    CODE     ---       usb_req_std
      00FF2176H   PUBLIC    CODE     ---       usb_synch_frame
      00FF14E6H   PUBLIC    CODE     ---       usb_set_address
      00FF0BBEH   PUBLIC    CODE     ---       usb_set_feature
      00FF1305H   PUBLIC    CODE     ---       usb_get_configuration
      00FF09DBH   PUBLIC    CODE     ---       usb_set_configuration
      00FF0819H   PUBLIC    CODE     ---       usb_get_status
      000000D0H   SFRSYM    DATA     BYTE      PSW
      0000009DH   SFRSYM    DATA     BYTE      IRCBAND
      00000097H   SFRSYM    DATA     BYTE      AUXR2
      000000EFH   SFRSYM    DATA     BYTE      AUXINTIF
      000000FDH   SFRSYM    DATA     BYTE      S4CON
      000000ACH   SFRSYM    DATA     BYTE      S3CON
      0000009AH   SFRSYM    DATA     BYTE      S2CON
      000000B7H   SFRSYM    DATA     BYTE      IPH
      000000CDH   SFRSYM    DATA     BYTE      SPSTAT
      000000DDH   SFRSYM    DATA     BYTE      T4T3M
      000000C1H   SFRSYM    DATA     BYTE      WDT_CONTR
      000000DFH   SFRSYM    DATA     BYTE      IP3
      000000F4H   SFRSYM    DATA     BYTE      USBCON
      000000B5H   SFRSYM    DATA     BYTE      IP2
      000000FFH   SFRSYM    DATA     BYTE      RSTCFG
      000000F9H   SFRSYM    DATA     BYTE      LINICR
      0000008EH   SFRSYM    DATA     BYTE      AUXR
      000000AFH   SFRSYM    DATA     BYTE      IE2
      00000088H   SFRSYM    DATA     BYTE      TCON
      00000098H   SFRSYM    DATA     BYTE      SCON
      000000F1H   SFRSYM    DATA     BYTE      CANICR
      00000087H   SFRSYM    DATA     BYTE      PCON
      000000BCH   SFRSYM    DATA     BYTE      ADC_CONTR
      000000E7H   SFRSYM    DATA     BYTE      CMPCR2
      000000E6H   SFRSYM    DATA     BYTE      CMPCR1
      000000B8H   SFRSYM    DATA     BYTE      IP
      0000008FH   SFRSYM    DATA     BYTE      INTCLKO
L251 LINKER/LOCATER V4.66.93.0                                                        06/18/2023  10:11:36  PAGE 35


      000000EEH   SFRSYM    DATA     BYTE      IP3H
      000000B6H   SFRSYM    DATA     BYTE      IP2H
      000000A8H   SFRSYM    DATA     BYTE      IE
      000000BBH   SFRSYM    DATA     BYTE      P_SW3
      000000BAH   SFRSYM    DATA     BYTE      P_SW2
      000000A2H   SFRSYM    DATA     BYTE      P_SW1
      000000CEH   SFRSYM    DATA     BYTE      SPCTL
      000000F8H   SFRSYM    DATA     BYTE      P7
      000000E8H   SFRSYM    DATA     BYTE      P6
      000000C8H   SFRSYM    DATA     BYTE      P5
      000000C0H   SFRSYM    DATA     BYTE      P4
      000000B0H   SFRSYM    DATA     BYTE      P3
      000000A0H   SFRSYM    DATA     BYTE      P2
      00000090H   SFRSYM    DATA     BYTE      P1
      00000080H   SFRSYM    DATA     BYTE      P0

      00FF113DH   BLOCK     CODE     ---       LVL=0
      00FF113DH   LINE      CODE     ---       #19
      00FF113DH   LINE      CODE     ---       #21
      00FF1175H   LINE      CODE     ---       #23
      00FF1175H   LINE      CODE     ---       #24
      00FF1178H   LINE      CODE     ---       #25
      00FF1178H   LINE      CODE     ---       #26
      00FF1178H   LINE      CODE     ---       #27
      00FF117BH   LINE      CODE     ---       #28
      00FF117BH   LINE      CODE     ---       #29
      00FF117BH   LINE      CODE     ---       #30
      00FF117EH   LINE      CODE     ---       #31
      00FF117EH   LINE      CODE     ---       #32
      00FF117EH   LINE      CODE     ---       #33
      00FF1181H   LINE      CODE     ---       #34
      00FF1181H   LINE      CODE     ---       #35
      00FF1181H   LINE      CODE     ---       #36
      00FF1184H   LINE      CODE     ---       #37
      00FF1184H   LINE      CODE     ---       #38
      00FF1184H   LINE      CODE     ---       #39
      00FF1187H   LINE      CODE     ---       #40
      00FF1187H   LINE      CODE     ---       #41
      00FF1187H   LINE      CODE     ---       #42
      00FF118AH   LINE      CODE     ---       #43
      00FF118AH   LINE      CODE     ---       #44
      00FF118AH   LINE      CODE     ---       #45
      00FF118DH   LINE      CODE     ---       #46
      00FF118DH   LINE      CODE     ---       #47
      00FF118DH   LINE      CODE     ---       #48
      00FF1190H   LINE      CODE     ---       #49
      00FF1190H   LINE      CODE     ---       #50
      00FF1190H   LINE      CODE     ---       #51
      00FF1193H   LINE      CODE     ---       #52
      00FF1193H   LINE      CODE     ---       #53
      00FF1193H   LINE      CODE     ---       #54
      00FF1196H   LINE      CODE     ---       #55
      00FF1196H   LINE      CODE     ---       #56
      00FF1196H   LINE      CODE     ---       #57
      00FF1199H   LINE      CODE     ---       #58
      00FF1199H   LINE      CODE     ---       #59
      00FF1199H   LINE      CODE     ---       #60
      ---         BLOCKEND  ---      ---       LVL=0

      00FF0819H   BLOCK     CODE     ---       LVL=0
      00FF081BH   BLOCK     CODE     NEAR LAB  LVL=1
      R10         REGSYM    ---      BYTE      ep
      ---         BLOCKEND  ---      ---       LVL=1
      00FF0819H   LINE      CODE     ---       #62
      00FF081BH   LINE      CODE     ---       #63
L251 LINKER/LOCATER V4.66.93.0                                                        06/18/2023  10:11:36  PAGE 36


      00FF081BH   LINE      CODE     ---       #66
      00FF083CH   LINE      CODE     ---       #71
      00FF083CH   LINE      CODE     ---       #72
      00FF083FH   LINE      CODE     ---       #73
      00FF083FH   LINE      CODE     ---       #75
      00FF0850H   LINE      CODE     ---       #77
      00FF0850H   LINE      CODE     ---       #78
      00FF085CH   LINE      CODE     ---       #81
      00FF085CH   LINE      CODE     ---       #82
      00FF085FH   LINE      CODE     ---       #83
      00FF085FH   LINE      CODE     ---       #86
      00FF085FH   LINE      CODE     ---       #87
      00FF085FH   LINE      CODE     ---       #88
      00FF085FH   LINE      CODE     ---       #89
      00FF0861H   LINE      CODE     ---       #90
      00FF0861H   LINE      CODE     ---       #91
      00FF0877H   LINE      CODE     ---       #95
      00FF0877H   LINE      CODE     ---       #96
      00FF087AH   LINE      CODE     ---       #97
      00FF087AH   LINE      CODE     ---       #100
      00FF0882H   LINE      CODE     ---       #101
      00FF0882H   LINE      CODE     ---       #102
      00FF0882H   LINE      CODE     ---       #103
      00FF0884H   LINE      CODE     ---       #104
      00FF0884H   LINE      CODE     ---       #105
      00FF0891H   LINE      CODE     ---       #108
      00FF0891H   LINE      CODE     ---       #109
      00FF0893H   LINE      CODE     ---       #110
      00FF0893H   LINE      CODE     ---       #113
      00FF089CH   LINE      CODE     ---       #114
      00FF08A9H   LINE      CODE     ---       #117
      00FF08A9H   LINE      CODE     ---       #120
      00FF08A9H   LINE      CODE     ---       #132
      00FF08C2H   LINE      CODE     ---       #134
      00FF08CAH   LINE      CODE     ---       #135
      00FF08CAH   LINE      CODE     ---       #136
      00FF08CCH   LINE      CODE     ---       #139
      00FF08D4H   LINE      CODE     ---       #140
      00FF08D4H   LINE      CODE     ---       #141
      00FF08D4H   LINE      CODE     ---       #142
      00FF08D6H   LINE      CODE     ---       #145
      00FF08D6H   LINE      CODE     ---       #160
      00FF08EFH   LINE      CODE     ---       #162
      00FF08F7H   LINE      CODE     ---       #163
      00FF08F7H   LINE      CODE     ---       #164
      00FF08F9H   LINE      CODE     ---       #167
      00FF0905H   LINE      CODE     ---       #168
      00FF090DH   LINE      CODE     ---       #169
      00FF090DH   LINE      CODE     ---       #170
      00FF090FH   LINE      CODE     ---       #172
      00FF090FH   LINE      CODE     ---       #173
      00FF090FH   LINE      CODE     ---       #174
      00FF0911H   LINE      CODE     ---       #175
      00FF0911H   LINE      CODE     ---       #176
      00FF0911H   LINE      CODE     ---       #177
      00FF0911H   LINE      CODE     ---       #178
      00FF0911H   LINE      CODE     ---       #179
      00FF0914H   LINE      CODE     ---       #180
      00FF0916H   LINE      CODE     ---       #181
      00FF0916H   LINE      CODE     ---       #183
      00FF0919H   LINE      CODE     ---       #184
      ---         BLOCKEND  ---      ---       LVL=0

      00FF0A80H   BLOCK     CODE     ---       LVL=0
      R7          REGSYM    ---      BYTE      ep
L251 LINKER/LOCATER V4.66.93.0                                                        06/18/2023  10:11:36  PAGE 37


      00FF0A80H   LINE      CODE     ---       #186
      00FF0A80H   LINE      CODE     ---       #187
      00FF0A80H   LINE      CODE     ---       #190
      00FF0AABH   LINE      CODE     ---       #197
      00FF0AABH   LINE      CODE     ---       #198
      00FF0AADH   LINE      CODE     ---       #199
      00FF0AADH   LINE      CODE     ---       #201
      00FF0AB6H   LINE      CODE     ---       #202
      00FF0AC3H   LINE      CODE     ---       #205
      00FF0AC3H   LINE      CODE     ---       #208
      00FF0AC3H   LINE      CODE     ---       #220
      00FF0ADDH   LINE      CODE     ---       #221
      00FF0AE2H   LINE      CODE     ---       #222
      00FF0AE7H   LINE      CODE     ---       #223
      00FF0AE7H   LINE      CODE     ---       #224
      00FF0AE9H   LINE      CODE     ---       #227
      00FF0AE9H   LINE      CODE     ---       #242
      00FF0B03H   LINE      CODE     ---       #243
      00FF0B08H   LINE      CODE     ---       #244
      00FF0B10H   LINE      CODE     ---       #245
      00FF0B17H   LINE      CODE     ---       #246
      00FF0B19H   LINE      CODE     ---       #248
      00FF0B19H   LINE      CODE     ---       #249
      00FF0B1CH   LINE      CODE     ---       #250
      00FF0B1CH   LINE      CODE     ---       #251
      00FF0B1CH   LINE      CODE     ---       #253
      00FF0B1FH   LINE      CODE     ---       #254
      ---         BLOCKEND  ---      ---       LVL=0

      00FF0BBEH   BLOCK     CODE     ---       LVL=0
      R7          REGSYM    ---      BYTE      ep
      00FF0BBEH   LINE      CODE     ---       #256
      00FF0BBEH   LINE      CODE     ---       #257
      00FF0BBEH   LINE      CODE     ---       #260
      00FF0BE9H   LINE      CODE     ---       #267
      00FF0BE9H   LINE      CODE     ---       #268
      00FF0BEBH   LINE      CODE     ---       #269
      00FF0BEBH   LINE      CODE     ---       #271
      00FF0BF4H   LINE      CODE     ---       #272
      00FF0C01H   LINE      CODE     ---       #275
      00FF0C01H   LINE      CODE     ---       #278
      00FF0C01H   LINE      CODE     ---       #290
      00FF0C18H   LINE      CODE     ---       #291
      00FF0C1DH   LINE      CODE     ---       #292
      00FF0C22H   LINE      CODE     ---       #293
      00FF0C22H   LINE      CODE     ---       #294
      00FF0C24H   LINE      CODE     ---       #297
      00FF0C24H   LINE      CODE     ---       #312
      00FF0C3BH   LINE      CODE     ---       #313
      00FF0C40H   LINE      CODE     ---       #314
      00FF0C48H   LINE      CODE     ---       #315
      00FF0C4FH   LINE      CODE     ---       #316
      00FF0C51H   LINE      CODE     ---       #318
      00FF0C51H   LINE      CODE     ---       #319
      00FF0C54H   LINE      CODE     ---       #320
      00FF0C54H   LINE      CODE     ---       #321
      00FF0C54H   LINE      CODE     ---       #323
      00FF0C57H   LINE      CODE     ---       #324
      ---         BLOCKEND  ---      ---       LVL=0

      00FF14E6H   BLOCK     CODE     ---       LVL=0
      00FF14E8H   BLOCK     CODE     NEAR LAB  LVL=1
      R15         REGSYM    ---      BYTE      addr
      ---         BLOCKEND  ---      ---       LVL=1
      00FF14E6H   LINE      CODE     ---       #326
L251 LINKER/LOCATER V4.66.93.0                                                        06/18/2023  10:11:36  PAGE 38


      00FF14E8H   LINE      CODE     ---       #327
      00FF14E8H   LINE      CODE     ---       #330
      00FF1511H   LINE      CODE     ---       #337
      00FF1514H   LINE      CODE     ---       #338
      00FF1516H   LINE      CODE     ---       #339
      00FF1516H   LINE      CODE     ---       #341
      00FF1516H   LINE      CODE     ---       #342
      00FF151CH   LINE      CODE     ---       #343
      00FF1520H   LINE      CODE     ---       #345
      00FF1522H   LINE      CODE     ---       #346
      00FF1524H   LINE      CODE     ---       #349
      00FF152AH   LINE      CODE     ---       #350
      00FF152AH   LINE      CODE     ---       #352
      00FF152DH   LINE      CODE     ---       #353
      ---         BLOCKEND  ---      ---       LVL=0

      00FF0B1FH   BLOCK     CODE     ---       LVL=0
      00FF0B1FH   LINE      CODE     ---       #355
      00FF0B1FH   LINE      CODE     ---       #357
      00FF0B2AH   LINE      CODE     ---       #359
      00FF0B2AH   LINE      CODE     ---       #360
      00FF0B2DH   LINE      CODE     ---       #361
      00FF0B2DH   LINE      CODE     ---       #363
      00FF0B3CH   LINE      CODE     ---       #365
      00FF0B3CH   LINE      CODE     ---       #366
      00FF0B48H   LINE      CODE     ---       #367
      00FF0B4CH   LINE      CODE     ---       #368
      00FF0B4EH   LINE      CODE     ---       #369
      00FF0B4EH   LINE      CODE     ---       #370
      00FF0B5AH   LINE      CODE     ---       #371
      00FF0B5EH   LINE      CODE     ---       #372
      00FF0B60H   LINE      CODE     ---       #373
      00FF0B60H   LINE      CODE     ---       #374
      00FF0B6EH   LINE      CODE     ---       #376
      00FF0B6EH   LINE      CODE     ---       #377
      00FF0B7AH   LINE      CODE     ---       #378
      00FF0B7EH   LINE      CODE     ---       #379
      00FF0B80H   LINE      CODE     ---       #380
      00FF0B80H   LINE      CODE     ---       #381
      00FF0B8CH   LINE      CODE     ---       #382
      00FF0B90H   LINE      CODE     ---       #383
      00FF0B92H   LINE      CODE     ---       #384
      00FF0B92H   LINE      CODE     ---       #385
      00FF0B9EH   LINE      CODE     ---       #386
      00FF0BA6H   LINE      CODE     ---       #387
      00FF0BA8H   LINE      CODE     ---       #388
      00FF0BA8H   LINE      CODE     ---       #389
      00FF0BA8H   LINE      CODE     ---       #390
      00FF0BAAH   LINE      CODE     ---       #391
      00FF0BAAH   LINE      CODE     ---       #392
      00FF0BAAH   LINE      CODE     ---       #393
      00FF0BAAH   LINE      CODE     ---       #394
      00FF0BADH   LINE      CODE     ---       #395
      00FF0BADH   LINE      CODE     ---       #396
      00FF0BADH   LINE      CODE     ---       #398
      00FF0BB7H   LINE      CODE     ---       #400
      00FF0BBBH   LINE      CODE     ---       #401
      00FF0BBBH   LINE      CODE     ---       #403
      00FF0BBEH   LINE      CODE     ---       #404
      ---         BLOCKEND  ---      ---       LVL=0

      00FF00C7H   BLOCK     CODE     ---       LVL=0
      00FF00C7H   LINE      CODE     ---       #406
      00FF00C7H   LINE      CODE     ---       #408
      ---         BLOCKEND  ---      ---       LVL=0
L251 LINKER/LOCATER V4.66.93.0                                                        06/18/2023  10:11:36  PAGE 39



      00FF1305H   BLOCK     CODE     ---       LVL=0
      00FF1305H   LINE      CODE     ---       #411
      00FF1305H   LINE      CODE     ---       #413
      00FF132EH   LINE      CODE     ---       #420
      00FF1331H   LINE      CODE     ---       #421
      00FF1331H   LINE      CODE     ---       #422
      00FF1331H   LINE      CODE     ---       #424
      00FF1338H   LINE      CODE     ---       #426
      00FF1340H   LINE      CODE     ---       #427
      00FF1340H   LINE      CODE     ---       #428
      00FF1342H   LINE      CODE     ---       #431
      00FF134EH   LINE      CODE     ---       #432
      00FF1356H   LINE      CODE     ---       #433
      00FF1356H   LINE      CODE     ---       #435
      00FF1359H   LINE      CODE     ---       #436
      ---         BLOCKEND  ---      ---       LVL=0

      00FF09DBH   BLOCK     CODE     ---       LVL=0
      00FF09DBH   LINE      CODE     ---       #438
      00FF09DBH   LINE      CODE     ---       #440
      00FF0A04H   LINE      CODE     ---       #447
      00FF0A07H   LINE      CODE     ---       #448
      00FF0A07H   LINE      CODE     ---       #449
      00FF0A07H   LINE      CODE     ---       #451
      00FF0A0EH   LINE      CODE     ---       #453
      00FF0A14H   LINE      CODE     ---       #454
      00FF0A19H   LINE      CODE     ---       #455
      00FF0A1DH   LINE      CODE     ---       #457
      00FF0A25H   LINE      CODE     ---       #458
      00FF0A2DH   LINE      CODE     ---       #459
      00FF0A35H   LINE      CODE     ---       #462
      00FF0A3DH   LINE      CODE     ---       #463
      00FF0A45H   LINE      CODE     ---       #464
      00FF0A4DH   LINE      CODE     ---       #482
      00FF0A55H   LINE      CODE     ---       #483
      00FF0A5CH   LINE      CODE     ---       #484
      00FF0A64H   LINE      CODE     ---       #506
      00FF0A6BH   LINE      CODE     ---       #507
      00FF0A6DH   LINE      CODE     ---       #510
      00FF0A73H   LINE      CODE     ---       #511
      00FF0A79H   LINE      CODE     ---       #512
      00FF0A7DH   LINE      CODE     ---       #513
      00FF0A7DH   LINE      CODE     ---       #515
      00FF0A80H   LINE      CODE     ---       #516
      ---         BLOCKEND  ---      ---       LVL=0

      00FF1754H   BLOCK     CODE     ---       LVL=0
      00FF1754H   LINE      CODE     ---       #518
      00FF1754H   LINE      CODE     ---       #520
      00FF1778H   LINE      CODE     ---       #526
      00FF177BH   LINE      CODE     ---       #527
      00FF177BH   LINE      CODE     ---       #528
      00FF177BH   LINE      CODE     ---       #530
      00FF1787H   LINE      CODE     ---       #531
      00FF178FH   LINE      CODE     ---       #533
      00FF1792H   LINE      CODE     ---       #534
      ---         BLOCKEND  ---      ---       LVL=0

      00FF1AAAH   BLOCK     CODE     ---       LVL=0
      00FF1AAAH   LINE      CODE     ---       #536
      00FF1AAAH   LINE      CODE     ---       #538
      00FF1ACCH   LINE      CODE     ---       #544
      00FF1ACFH   LINE      CODE     ---       #545
      00FF1ACFH   LINE      CODE     ---       #546
L251 LINKER/LOCATER V4.66.93.0                                                        06/18/2023  10:11:36  PAGE 40


      00FF1ACFH   LINE      CODE     ---       #548
      00FF1AD2H   LINE      CODE     ---       #549
      ---         BLOCKEND  ---      ---       LVL=0

      00FF2176H   BLOCK     CODE     ---       LVL=0
      00FF2176H   LINE      CODE     ---       #551
      00FF2176H   LINE      CODE     ---       #553
      ---         BLOCKEND  ---      ---       LVL=0

      ---         MODULE    ---      ---       usb_req_vendor
      00FF2179H   PUBLIC    CODE     ---       usb_req_vendor
      000000D0H   SFRSYM    DATA     BYTE      PSW
      0000009DH   SFRSYM    DATA     BYTE      IRCBAND
      00000097H   SFRSYM    DATA     BYTE      AUXR2
      000000EFH   SFRSYM    DATA     BYTE      AUXINTIF
      000000FDH   SFRSYM    DATA     BYTE      S4CON
      000000ACH   SFRSYM    DATA     BYTE      S3CON
      0000009AH   SFRSYM    DATA     BYTE      S2CON
      000000B7H   SFRSYM    DATA     BYTE      IPH
      000000CDH   SFRSYM    DATA     BYTE      SPSTAT
      000000DDH   SFRSYM    DATA     BYTE      T4T3M
      000000C1H   SFRSYM    DATA     BYTE      WDT_CONTR
      000000DFH   SFRSYM    DATA     BYTE      IP3
      000000F4H   SFRSYM    DATA     BYTE      USBCON
      000000B5H   SFRSYM    DATA     BYTE      IP2
      000000FFH   SFRSYM    DATA     BYTE      RSTCFG
      000000F9H   SFRSYM    DATA     BYTE      LINICR
      0000008EH   SFRSYM    DATA     BYTE      AUXR
      000000AFH   SFRSYM    DATA     BYTE      IE2
      00000088H   SFRSYM    DATA     BYTE      TCON
      00000098H   SFRSYM    DATA     BYTE      SCON
      000000F1H   SFRSYM    DATA     BYTE      CANICR
      00000087H   SFRSYM    DATA     BYTE      PCON
      000000BCH   SFRSYM    DATA     BYTE      ADC_CONTR
      000000E7H   SFRSYM    DATA     BYTE      CMPCR2
      000000E6H   SFRSYM    DATA     BYTE      CMPCR1
      000000B8H   SFRSYM    DATA     BYTE      IP
      0000008FH   SFRSYM    DATA     BYTE      INTCLKO
      000000EEH   SFRSYM    DATA     BYTE      IP3H
      000000B6H   SFRSYM    DATA     BYTE      IP2H
      000000A8H   SFRSYM    DATA     BYTE      IE
      000000BBH   SFRSYM    DATA     BYTE      P_SW3
      000000BAH   SFRSYM    DATA     BYTE      P_SW2
      000000A2H   SFRSYM    DATA     BYTE      P_SW1
      000000CEH   SFRSYM    DATA     BYTE      SPCTL
      000000F8H   SFRSYM    DATA     BYTE      P7
      000000E8H   SFRSYM    DATA     BYTE      P6
      000000C8H   SFRSYM    DATA     BYTE      P5
      000000C0H   SFRSYM    DATA     BYTE      P4
      000000B0H   SFRSYM    DATA     BYTE      P3
      000000A0H   SFRSYM    DATA     BYTE      P2
      00000090H   SFRSYM    DATA     BYTE      P1
      00000080H   SFRSYM    DATA     BYTE      P0

      00FF2179H   BLOCK     CODE     ---       LVL=0
      00FF2179H   LINE      CODE     ---       #17
      00FF2179H   LINE      CODE     ---       #19
      ---         BLOCKEND  ---      ---       LVL=0

      ---         MODULE    ---      ---       usb_desc
      00FF0F1AH   PUBLIC    CODE     ---       PRODUCTDESC
      00FF0F38H   PUBLIC    CODE     ---       LANGIDDESC
      00FF0F3CH   PUBLIC    CODE     ---       DEVICEDESC
      00FF0F4EH   PUBLIC    CODE     ---       CONFIGDESC
      00FF0F91H   PUBLIC    CODE     ---       PACKET0
L251 LINKER/LOCATER V4.66.93.0                                                        06/18/2023  10:11:36  PAGE 41


      00FF0F93H   PUBLIC    CODE     ---       PACKET1
      00FF0F95H   PUBLIC    CODE     ---       MANUFACTDESC
      000000D0H   SFRSYM    DATA     BYTE      PSW
      0000009DH   SFRSYM    DATA     BYTE      IRCBAND
      00000097H   SFRSYM    DATA     BYTE      AUXR2
      000000EFH   SFRSYM    DATA     BYTE      AUXINTIF
      000000FDH   SFRSYM    DATA     BYTE      S4CON
      000000ACH   SFRSYM    DATA     BYTE      S3CON
      0000009AH   SFRSYM    DATA     BYTE      S2CON
      000000B7H   SFRSYM    DATA     BYTE      IPH
      000000CDH   SFRSYM    DATA     BYTE      SPSTAT
      000000DDH   SFRSYM    DATA     BYTE      T4T3M
      000000C1H   SFRSYM    DATA     BYTE      WDT_CONTR
      000000DFH   SFRSYM    DATA     BYTE      IP3
      000000F4H   SFRSYM    DATA     BYTE      USBCON
      000000B5H   SFRSYM    DATA     BYTE      IP2
      000000FFH   SFRSYM    DATA     BYTE      RSTCFG
      000000F9H   SFRSYM    DATA     BYTE      LINICR
      0000008EH   SFRSYM    DATA     BYTE      AUXR
      000000AFH   SFRSYM    DATA     BYTE      IE2
      00000088H   SFRSYM    DATA     BYTE      TCON
      00000098H   SFRSYM    DATA     BYTE      SCON
      000000F1H   SFRSYM    DATA     BYTE      CANICR
      00000087H   SFRSYM    DATA     BYTE      PCON
      000000BCH   SFRSYM    DATA     BYTE      ADC_CONTR
      000000E7H   SFRSYM    DATA     BYTE      CMPCR2
      000000E6H   SFRSYM    DATA     BYTE      CMPCR1
      000000B8H   SFRSYM    DATA     BYTE      IP
      0000008FH   SFRSYM    DATA     BYTE      INTCLKO
      000000EEH   SFRSYM    DATA     BYTE      IP3H
      000000B6H   SFRSYM    DATA     BYTE      IP2H
      000000A8H   SFRSYM    DATA     BYTE      IE
      000000BBH   SFRSYM    DATA     BYTE      P_SW3
      000000BAH   SFRSYM    DATA     BYTE      P_SW2
      000000A2H   SFRSYM    DATA     BYTE      P_SW1
      000000CEH   SFRSYM    DATA     BYTE      SPCTL
      000000F8H   SFRSYM    DATA     BYTE      P7
      000000E8H   SFRSYM    DATA     BYTE      P6
      000000C8H   SFRSYM    DATA     BYTE      P5
      000000C0H   SFRSYM    DATA     BYTE      P4
      000000B0H   SFRSYM    DATA     BYTE      P3
      000000A0H   SFRSYM    DATA     BYTE      P2
      00000090H   SFRSYM    DATA     BYTE      P1
      00000080H   SFRSYM    DATA     BYTE      P0

      ---         MODULE    ---      ---       debug
      00FF1AD2H   PUBLIC    CODE     ---       Debug_Init
      000000D0H   SFRSYM    DATA     BYTE      PSW
      0000009DH   SFRSYM    DATA     BYTE      IRCBAND
      00000097H   SFRSYM    DATA     BYTE      AUXR2
      000000EFH   SFRSYM    DATA     BYTE      AUXINTIF
      000000FDH   SFRSYM    DATA     BYTE      S4CON
      000000ACH   SFRSYM    DATA     BYTE      S3CON
      0000009AH   SFRSYM    DATA     BYTE      S2CON
      000000B7H   SFRSYM    DATA     BYTE      IPH
      000000CDH   SFRSYM    DATA     BYTE      SPSTAT
      000000DDH   SFRSYM    DATA     BYTE      T4T3M
      000000C1H   SFRSYM    DATA     BYTE      WDT_CONTR
      000000DFH   SFRSYM    DATA     BYTE      IP3
      000000F4H   SFRSYM    DATA     BYTE      USBCON
      000000B5H   SFRSYM    DATA     BYTE      IP2
      000000FFH   SFRSYM    DATA     BYTE      RSTCFG
      000000DCH   SFRSYM    DATA     BYTE      USBCLK
      000000F9H   SFRSYM    DATA     BYTE      LINICR
      0000008EH   SFRSYM    DATA     BYTE      AUXR
L251 LINKER/LOCATER V4.66.93.0                                                        06/18/2023  10:11:36  PAGE 42


      000000AFH   SFRSYM    DATA     BYTE      IE2
      00000088H   SFRSYM    DATA     BYTE      TCON
      00000098H   SFRSYM    DATA     BYTE      SCON
      000000F1H   SFRSYM    DATA     BYTE      CANICR
      00000087H   SFRSYM    DATA     BYTE      PCON
      000000BCH   SFRSYM    DATA     BYTE      ADC_CONTR
      000000E7H   SFRSYM    DATA     BYTE      CMPCR2
      000000E6H   SFRSYM    DATA     BYTE      CMPCR1
      000000B8H   SFRSYM    DATA     BYTE      IP
      0000008FH   SFRSYM    DATA     BYTE      INTCLKO
      000000EEH   SFRSYM    DATA     BYTE      IP3H
      000000B6H   SFRSYM    DATA     BYTE      IP2H
      000000A8H   SFRSYM    DATA     BYTE      IE
      000000BBH   SFRSYM    DATA     BYTE      P_SW3
      000000BAH   SFRSYM    DATA     BYTE      P_SW2
      000000A2H   SFRSYM    DATA     BYTE      P_SW1
      000000CEH   SFRSYM    DATA     BYTE      SPCTL
      000000F8H   SFRSYM    DATA     BYTE      P7
      000000E8H   SFRSYM    DATA     BYTE      P6
      000000C8H   SFRSYM    DATA     BYTE      P5
      000000C0H   SFRSYM    DATA     BYTE      P4
      000000B0H   SFRSYM    DATA     BYTE      P3
      000000A0H   SFRSYM    DATA     BYTE      P2
      000000B1H   SFRSYM    DATA     BYTE      P3M1
      00000090H   SFRSYM    DATA     BYTE      P1
      000000B2H   SFRSYM    DATA     BYTE      P3M0
      00000080H   SFRSYM    DATA     BYTE      P0

      00FF1AD2H   BLOCK     CODE     ---       LVL=0
      00FF1AD2H   LINE      CODE     ---       #5
      00FF1AD2H   LINE      CODE     ---       #9
      00FF1AD5H   LINE      CODE     ---       #10
      00FF1AD8H   LINE      CODE     ---       #12
      00FF1AE5H   LINE      CODE     ---       #13
      00FF1AF3H   LINE      CODE     ---       #15
      00FF1AF6H   LINE      CODE     ---       #16
      00FF1AF9H   LINE      CODE     ---       #19
      ---         BLOCKEND  ---      ---       LVL=0

      ---         MODULE    ---      ---       i2c
      00FF1C93H   PUBLIC    CODE     ---       I2C_RecvACK
      00FF1F4EH   PUBLIC    CODE     ---       I2C_SendNAK
      00FF1FAFH   PUBLIC    CODE     ---       I2C_SendData
      00FF144AH   PUBLIC    CODE     ---       I2C_Write
      00FF1CCEH   PUBLIC    CODE     ---       I2C_RecvData
      00FF210AH   PUBLIC    CODE     ---       I2C_Start
      00FF1B92H   PUBLIC    CODE     ---       I2C_Init
      00FF1FC6H   PUBLIC    CODE     ---       I2C_Wait
      00FF0F9DH   PUBLIC    CODE     ---       I2C_read
      00FF2170H   PUBLIC    CODE     ---       I2C_SendByte
      00FF211AH   PUBLIC    CODE     ---       I2C_Stop
      00FF212AH   PUBLIC    CODE     ---       I2C_RecvByte
      00FF1F97H   PUBLIC    CODE     ---       I2C_SendACK
      000000D0H   SFRSYM    DATA     BYTE      PSW
      0000009DH   SFRSYM    DATA     BYTE      IRCBAND
      00000097H   SFRSYM    DATA     BYTE      AUXR2
      000000EFH   SFRSYM    DATA     BYTE      AUXINTIF
      000000FDH   SFRSYM    DATA     BYTE      S4CON
      000000ACH   SFRSYM    DATA     BYTE      S3CON
      0000009AH   SFRSYM    DATA     BYTE      S2CON
      000000B7H   SFRSYM    DATA     BYTE      IPH
      000000CDH   SFRSYM    DATA     BYTE      SPSTAT
      000000DDH   SFRSYM    DATA     BYTE      T4T3M
      000000C1H   SFRSYM    DATA     BYTE      WDT_CONTR
      000000DFH   SFRSYM    DATA     BYTE      IP3
L251 LINKER/LOCATER V4.66.93.0                                                        06/18/2023  10:11:36  PAGE 43


      000000F4H   SFRSYM    DATA     BYTE      USBCON
      000000B5H   SFRSYM    DATA     BYTE      IP2
      000000FFH   SFRSYM    DATA     BYTE      RSTCFG
      000000F9H   SFRSYM    DATA     BYTE      LINICR
      0000008EH   SFRSYM    DATA     BYTE      AUXR
      000000AFH   SFRSYM    DATA     BYTE      IE2
      00000088H   SFRSYM    DATA     BYTE      TCON
      00000098H   SFRSYM    DATA     BYTE      SCON
      000000F1H   SFRSYM    DATA     BYTE      CANICR
      00000087H   SFRSYM    DATA     BYTE      PCON
      000000BCH   SFRSYM    DATA     BYTE      ADC_CONTR
      000000E7H   SFRSYM    DATA     BYTE      CMPCR2
      000000E6H   SFRSYM    DATA     BYTE      CMPCR1
      000000B8H   SFRSYM    DATA     BYTE      IP
      0000008FH   SFRSYM    DATA     BYTE      INTCLKO
      000000EEH   SFRSYM    DATA     BYTE      IP3H
      000000B6H   SFRSYM    DATA     BYTE      IP2H
      000000A8H   SFRSYM    DATA     BYTE      IE
      000000BBH   SFRSYM    DATA     BYTE      P_SW3
      000000BAH   SFRSYM    DATA     BYTE      P_SW2
      000000A2H   SFRSYM    DATA     BYTE      P_SW1
      000000CEH   SFRSYM    DATA     BYTE      SPCTL
      000000F8H   SFRSYM    DATA     BYTE      P7
      000000E8H   SFRSYM    DATA     BYTE      P6
      000000C8H   SFRSYM    DATA     BYTE      P5
      000000C0H   SFRSYM    DATA     BYTE      P4
      000000B0H   SFRSYM    DATA     BYTE      P3
      000000A0H   SFRSYM    DATA     BYTE      P2
      00000090H   SFRSYM    DATA     BYTE      P1
      00000080H   SFRSYM    DATA     BYTE      P0

      00FF1FC6H   BLOCK     CODE     ---       LVL=0
      00FF1FC6H   LINE      CODE     ---       #5
      00FF1FC6H   LINE      CODE     ---       #7
      00FF1FD4H   LINE      CODE     ---       #8
      00FF1FDCH   LINE      CODE     ---       #9
      ---         BLOCKEND  ---      ---       LVL=0

      00FF210AH   BLOCK     CODE     ---       LVL=0
      00FF210AH   LINE      CODE     ---       #11
      00FF210AH   LINE      CODE     ---       #13
      00FF2117H   LINE      CODE     ---       #14
      ---         BLOCKEND  ---      ---       LVL=0

      00FF211AH   BLOCK     CODE     ---       LVL=0
      00FF211AH   LINE      CODE     ---       #17
      00FF211AH   LINE      CODE     ---       #19
      00FF2127H   LINE      CODE     ---       #20
      ---         BLOCKEND  ---      ---       LVL=0

      00FF1FAFH   BLOCK     CODE     ---       LVL=0
      R11         REGSYM    ---      CHAR      dat
      00FF1FAFH   LINE      CODE     ---       #23
      00FF1FAFH   LINE      CODE     ---       #25
      00FF1FBAH   LINE      CODE     ---       #26
      00FF1FC3H   LINE      CODE     ---       #27
      ---         BLOCKEND  ---      ---       LVL=0

      00FF1C93H   BLOCK     CODE     ---       LVL=0
      00FF1C93H   LINE      CODE     ---       #30
      00FF1C93H   LINE      CODE     ---       #32
      00FF1CA0H   LINE      CODE     ---       #33
      00FF1CA3H   LINE      CODE     ---       #34
      00FF1CB0H   LINE      CODE     ---       #35
      ---         BLOCKEND  ---      ---       LVL=0
L251 LINKER/LOCATER V4.66.93.0                                                        06/18/2023  10:11:36  PAGE 44



      00FF1CCEH   BLOCK     CODE     ---       LVL=0
      00FF1CCEH   LINE      CODE     ---       #37
      00FF1CCEH   LINE      CODE     ---       #39
      00FF1CDBH   LINE      CODE     ---       #40
      00FF1CDEH   LINE      CODE     ---       #41
      00FF1CE9H   LINE      CODE     ---       #42
      ---         BLOCKEND  ---      ---       LVL=0

      00FF1F97H   BLOCK     CODE     ---       LVL=0
      00FF1F97H   LINE      CODE     ---       #44
      00FF1F97H   LINE      CODE     ---       #46
      00FF1FA3H   LINE      CODE     ---       #47
      00FF1FACH   LINE      CODE     ---       #48
      ---         BLOCKEND  ---      ---       LVL=0

      00FF1F4EH   BLOCK     CODE     ---       LVL=0
      00FF1F4EH   LINE      CODE     ---       #51
      00FF1F4EH   LINE      CODE     ---       #53
      00FF1F5BH   LINE      CODE     ---       #54
      00FF1F64H   LINE      CODE     ---       #55
      ---         BLOCKEND  ---      ---       LVL=0

      00FF1B92H   BLOCK     CODE     ---       LVL=0
      00FF1B92H   LINE      CODE     ---       #58
      00FF1B92H   LINE      CODE     ---       #60
      00FF1BA2H   LINE      CODE     ---       #61
      00FF1BABH   LINE      CODE     ---       #62
      00FF1BB3H   LINE      CODE     ---       #63
      ---         BLOCKEND  ---      ---       LVL=0

      00FF2170H   BLOCK     CODE     ---       LVL=0
      R7          REGSYM    ---      BYTE      dat
      00FF2170H   LINE      CODE     ---       #65
      00FF2170H   LINE      CODE     ---       #67
      00FF2173H   LINE      CODE     ---       #68
      ---         BLOCKEND  ---      ---       LVL=0

      00FF212AH   BLOCK     CODE     ---       LVL=0
      00FF212CH   BLOCK     CODE     NEAR LAB  LVL=1
      R15         REGSYM    ---      BYTE      dat
      ---         BLOCKEND  ---      ---       LVL=1
      00FF212AH   LINE      CODE     ---       #71
      00FF212CH   LINE      CODE     ---       #72
      00FF212CH   LINE      CODE     ---       #74
      00FF2131H   LINE      CODE     ---       #75
      00FF2134H   LINE      CODE     ---       #76
      00FF2136H   LINE      CODE     ---       #77
      ---         BLOCKEND  ---      ---       LVL=0

      00FF144AH   BLOCK     CODE     ---       LVL=0
      000000C4H   SYMBOL    EDATA    BYTE      dev_addr
      000000C5H   SYMBOL    EDATA    BYTE      reg_addr
      REG=3       REGSYM    ---      ---       p
      000000C6H   SYMBOL    EDATA    BYTE      len
      00FF145AH   BLOCK     CODE     NEAR LAB  LVL=1
      000000C7H   SYMBOL    EDATA    BYTE      i
      ---         BLOCKEND  ---      ---       LVL=1
      00FF144AH   LINE      CODE     ---       #79
      00FF145AH   LINE      CODE     ---       #80
      00FF145AH   LINE      CODE     ---       #81
      00FF145AH   LINE      CODE     ---       #82
      00FF145DH   LINE      CODE     ---       #83
      00FF1466H   LINE      CODE     ---       #84
      00FF146DH   LINE      CODE     ---       #85
L251 LINKER/LOCATER V4.66.93.0                                                        06/18/2023  10:11:36  PAGE 45


      00FF1470H   LINE      CODE     ---       #87
      00FF1480H   LINE      CODE     ---       #88
      00FF1493H   LINE      CODE     ---       #89
      00FF1496H   LINE      CODE     ---       #90
      ---         BLOCKEND  ---      ---       LVL=0

      00FF0F9DH   BLOCK     CODE     ---       LVL=0
      000000C8H   SYMBOL    EDATA    BYTE      dev_addr
      000000C9H   SYMBOL    EDATA    BYTE      reg_addr
      REG=3       REGSYM    ---      ---       buf
      000000CAH   SYMBOL    EDATA    BYTE      len
      00FF0FADH   BLOCK     CODE     NEAR LAB  LVL=1
      000000CBH   SYMBOL    EDATA    BYTE      i
      ---         BLOCKEND  ---      ---       LVL=1
      00FF0F9DH   LINE      CODE     ---       #92
      00FF0FADH   LINE      CODE     ---       #93
      00FF0FADH   LINE      CODE     ---       #94
      00FF0FADH   LINE      CODE     ---       #95
      00FF0FB0H   LINE      CODE     ---       #96
      00FF0FB9H   LINE      CODE     ---       #97
      00FF0FC0H   LINE      CODE     ---       #98
      00FF0FC3H   LINE      CODE     ---       #99
      00FF0FD0H   LINE      CODE     ---       #100
      00FF0FD3H   LINE      CODE     ---       #102
      00FF0FE3H   LINE      CODE     ---       #103
      00FF0FFEH   LINE      CODE     ---       #104
      00FF100EH   LINE      CODE     ---       #105
      00FF1011H   LINE      CODE     ---       #106
      00FF1014H   LINE      CODE     ---       #107
      ---         BLOCKEND  ---      ---       LVL=0

      ---         MODULE    ---      ---       mpu6050
      00FF0E11H   PUBLIC    CODE     ---       mpu6050_read
      00FF1359H   PUBLIC    CODE     ---       mpu6050_init
      000000D0H   SFRSYM    DATA     BYTE      PSW
      0000009DH   SFRSYM    DATA     BYTE      IRCBAND
      00000097H   SFRSYM    DATA     BYTE      AUXR2
      000000EFH   SFRSYM    DATA     BYTE      AUXINTIF
      000000FDH   SFRSYM    DATA     BYTE      S4CON
      000000ACH   SFRSYM    DATA     BYTE      S3CON
      0000009AH   SFRSYM    DATA     BYTE      S2CON
      000000B7H   SFRSYM    DATA     BYTE      IPH
      000000CDH   SFRSYM    DATA     BYTE      SPSTAT
      000000DDH   SFRSYM    DATA     BYTE      T4T3M
      000000C1H   SFRSYM    DATA     BYTE      WDT_CONTR
      000000DFH   SFRSYM    DATA     BYTE      IP3
      000000F4H   SFRSYM    DATA     BYTE      USBCON
      000000B5H   SFRSYM    DATA     BYTE      IP2
      000000FFH   SFRSYM    DATA     BYTE      RSTCFG
      000000F9H   SFRSYM    DATA     BYTE      LINICR
      0000008EH   SFRSYM    DATA     BYTE      AUXR
      000000AFH   SFRSYM    DATA     BYTE      IE2
      00000088H   SFRSYM    DATA     BYTE      TCON
      00000098H   SFRSYM    DATA     BYTE      SCON
      000000F1H   SFRSYM    DATA     BYTE      CANICR
      00000087H   SFRSYM    DATA     BYTE      PCON
      000000BCH   SFRSYM    DATA     BYTE      ADC_CONTR
      000000E7H   SFRSYM    DATA     BYTE      CMPCR2
      000000E6H   SFRSYM    DATA     BYTE      CMPCR1
      000000B8H   SFRSYM    DATA     BYTE      IP
      0000008FH   SFRSYM    DATA     BYTE      INTCLKO
      000000EEH   SFRSYM    DATA     BYTE      IP3H
      000000B6H   SFRSYM    DATA     BYTE      IP2H
      000000A8H   SFRSYM    DATA     BYTE      IE
      000000BBH   SFRSYM    DATA     BYTE      P_SW3
L251 LINKER/LOCATER V4.66.93.0                                                        06/18/2023  10:11:36  PAGE 46


      000000BAH   SFRSYM    DATA     BYTE      P_SW2
      000000A2H   SFRSYM    DATA     BYTE      P_SW1
      000000CEH   SFRSYM    DATA     BYTE      SPCTL
      000000F8H   SFRSYM    DATA     BYTE      P7
      000000E8H   SFRSYM    DATA     BYTE      P6
      000000C8H   SFRSYM    DATA     BYTE      P5
      000000C0H   SFRSYM    DATA     BYTE      P4
      000000B0H   SFRSYM    DATA     BYTE      P3
      000000A0H   SFRSYM    DATA     BYTE      P2
      00000090H   SFRSYM    DATA     BYTE      P1
      00000080H   SFRSYM    DATA     BYTE      P0

      00FF1359H   BLOCK     CODE     ---       LVL=0
      000000CEH   SYMBOL    EDATA    ---       dat
      00FF1359H   LINE      CODE     ---       #3
      00FF1359H   LINE      CODE     ---       #4
      00FF1359H   LINE      CODE     ---       #7
      00FF135EH   LINE      CODE     ---       #8
      00FF136DH   LINE      CODE     ---       #10
      00FF1373H   LINE      CODE     ---       #11
      00FF1382H   LINE      CODE     ---       #13
      00FF1388H   LINE      CODE     ---       #14
      00FF1397H   LINE      CODE     ---       #16
      00FF139DH   LINE      CODE     ---       #17
      ---         BLOCKEND  ---      ---       LVL=0

      00FF0E11H   BLOCK     CODE     ---       LVL=0
      REG=3       REGSYM    ---      ---       mpu6050_data
      00FF0E15H   BLOCK     CODE     NEAR LAB  LVL=1
      0000009DH   SYMBOL    EDATA    ---       buf
      ---         BLOCKEND  ---      ---       LVL=1
      00FF0E11H   LINE      CODE     ---       #20
      00FF0E15H   LINE      CODE     ---       #21
      00FF0E15H   LINE      CODE     ---       #24
      00FF0E24H   LINE      CODE     ---       #25
      00FF0E33H   LINE      CODE     ---       #26
      00FF0E43H   LINE      CODE     ---       #27
      00FF0E53H   LINE      CODE     ---       #28
      00FF0E63H   LINE      CODE     ---       #29
      00FF0E73H   LINE      CODE     ---       #30
      00FF0E83H   LINE      CODE     ---       #31
      00FF0E93H   LINE      CODE     ---       #32
      ---         BLOCKEND  ---      ---       LVL=0

      ---         MODULE    ---      ---       pwm
      00FF2033H   PUBLIC    CODE     ---       pwm1_setduty
      00FF2048H   PUBLIC    CODE     ---       pwm4_setduty
      00FF20ADH   PUBLIC    CODE     ---       pwm1n_disable
      00FF20C0H   PUBLIC    CODE     ---       pwm1p_disable
      00FF20D3H   PUBLIC    CODE     ---       pwm4n_disable
      00FF20E6H   PUBLIC    CODE     ---       pwm4p_disable
      00FF1C17H   PUBLIC    CODE     ---       pwm1n_enable
      00FF1C36H   PUBLIC    CODE     ---       pwm1p_enable
      00FF1C55H   PUBLIC    CODE     ---       pwm4n_enable
      00FF1C74H   PUBLIC    CODE     ---       pwm4p_enable
      00FF1199H   PUBLIC    CODE     ---       pwm1n_config
      00FF1251H   PUBLIC    CODE     ---       pwm1p_config
      00FF12ABH   PUBLIC    CODE     ---       pwm4n_config
      00FF11F5H   PUBLIC    CODE     ---       pwm4p_config
      00FF164FH   PUBLIC    CODE     ---       pwm_init
      00FF205DH   PUBLIC    CODE     ---       pwma_setcycle
      000000D0H   SFRSYM    DATA     BYTE      PSW
      0000009DH   SFRSYM    DATA     BYTE      IRCBAND
      00000097H   SFRSYM    DATA     BYTE      AUXR2
      000000EFH   SFRSYM    DATA     BYTE      AUXINTIF
L251 LINKER/LOCATER V4.66.93.0                                                        06/18/2023  10:11:36  PAGE 47


      000000FDH   SFRSYM    DATA     BYTE      S4CON
      000000ACH   SFRSYM    DATA     BYTE      S3CON
      0000009AH   SFRSYM    DATA     BYTE      S2CON
      000000B7H   SFRSYM    DATA     BYTE      IPH
      000000CDH   SFRSYM    DATA     BYTE      SPSTAT
      000000DDH   SFRSYM    DATA     BYTE      T4T3M
      000000C1H   SFRSYM    DATA     BYTE      WDT_CONTR
      000000DFH   SFRSYM    DATA     BYTE      IP3
      000000F4H   SFRSYM    DATA     BYTE      USBCON
      000000B5H   SFRSYM    DATA     BYTE      IP2
      000000FFH   SFRSYM    DATA     BYTE      RSTCFG
      000000F9H   SFRSYM    DATA     BYTE      LINICR
      0000008EH   SFRSYM    DATA     BYTE      AUXR
      000000AFH   SFRSYM    DATA     BYTE      IE2
      00000090H.7 SFRSYM    DATA     BIT       P17
      00000090H.6 SFRSYM    DATA     BIT       P16
      00000088H   SFRSYM    DATA     BYTE      TCON
      00000098H   SFRSYM    DATA     BYTE      SCON
      00000090H.1 SFRSYM    DATA     BIT       P11
      000000F1H   SFRSYM    DATA     BYTE      CANICR
      00000087H   SFRSYM    DATA     BYTE      PCON
      00000090H.0 SFRSYM    DATA     BIT       P10
      000000BCH   SFRSYM    DATA     BYTE      ADC_CONTR
      000000E7H   SFRSYM    DATA     BYTE      CMPCR2
      000000E6H   SFRSYM    DATA     BYTE      CMPCR1
      000000B8H   SFRSYM    DATA     BYTE      IP
      0000008FH   SFRSYM    DATA     BYTE      INTCLKO
      000000EEH   SFRSYM    DATA     BYTE      IP3H
      000000B6H   SFRSYM    DATA     BYTE      IP2H
      000000A8H   SFRSYM    DATA     BYTE      IE
      000000BBH   SFRSYM    DATA     BYTE      P_SW3
      000000BAH   SFRSYM    DATA     BYTE      P_SW2
      000000A2H   SFRSYM    DATA     BYTE      P_SW1
      000000CEH   SFRSYM    DATA     BYTE      SPCTL
      000000F8H   SFRSYM    DATA     BYTE      P7
      000000E8H   SFRSYM    DATA     BYTE      P6
      000000C8H   SFRSYM    DATA     BYTE      P5
      000000C0H   SFRSYM    DATA     BYTE      P4
      000000B0H   SFRSYM    DATA     BYTE      P3
      000000A0H   SFRSYM    DATA     BYTE      P2
      00000090H   SFRSYM    DATA     BYTE      P1
      00000080H   SFRSYM    DATA     BYTE      P0

      00FF164FH   BLOCK     CODE     ---       LVL=0
      00FF164FH   LINE      CODE     ---       #3
      00FF164FH   LINE      CODE     ---       #5
      00FF165BH   LINE      CODE     ---       #6
      00FF1662H   LINE      CODE     ---       #7
      00FF166BH   LINE      CODE     ---       #8
      00FF1672H   LINE      CODE     ---       #10
      00FF167AH   LINE      CODE     ---       #11
      00FF1683H   LINE      CODE     ---       #13
      00FF168CH   LINE      CODE     ---       #14
      00FF1695H   LINE      CODE     ---       #15
      ---         BLOCKEND  ---      ---       LVL=0

      00FF1C36H   BLOCK     CODE     ---       LVL=0
      00FF1C36H   LINE      CODE     ---       #17
      00FF1C36H   LINE      CODE     ---       #19
      00FF1C39H   LINE      CODE     ---       #20
      00FF1C3BH   LINE      CODE     ---       #21
      00FF1C48H   LINE      CODE     ---       #22
      00FF1C54H   LINE      CODE     ---       #23
      ---         BLOCKEND  ---      ---       LVL=0

L251 LINKER/LOCATER V4.66.93.0                                                        06/18/2023  10:11:36  PAGE 48


      00FF1C17H   BLOCK     CODE     ---       LVL=0
      00FF1C17H   LINE      CODE     ---       #25
      00FF1C17H   LINE      CODE     ---       #27
      00FF1C1AH   LINE      CODE     ---       #28
      00FF1C1CH   LINE      CODE     ---       #29
      00FF1C29H   LINE      CODE     ---       #30
      00FF1C35H   LINE      CODE     ---       #31
      ---         BLOCKEND  ---      ---       LVL=0

      00FF1C74H   BLOCK     CODE     ---       LVL=0
      00FF1C74H   LINE      CODE     ---       #33
      00FF1C74H   LINE      CODE     ---       #35
      00FF1C77H   LINE      CODE     ---       #36
      00FF1C79H   LINE      CODE     ---       #37
      00FF1C86H   LINE      CODE     ---       #38
      00FF1C92H   LINE      CODE     ---       #39
      ---         BLOCKEND  ---      ---       LVL=0

      00FF1C55H   BLOCK     CODE     ---       LVL=0
      00FF1C55H   LINE      CODE     ---       #41
      00FF1C55H   LINE      CODE     ---       #43
      00FF1C58H   LINE      CODE     ---       #44
      00FF1C5AH   LINE      CODE     ---       #45
      00FF1C67H   LINE      CODE     ---       #46
      00FF1C73H   LINE      CODE     ---       #47
      ---         BLOCKEND  ---      ---       LVL=0

      00FF20C0H   BLOCK     CODE     ---       LVL=0
      00FF20C0H   LINE      CODE     ---       #49
      00FF20C0H   LINE      CODE     ---       #51
      00FF20D0H   LINE      CODE     ---       #52
      00FF20D2H   LINE      CODE     ---       #53
      ---         BLOCKEND  ---      ---       LVL=0

      00FF20ADH   BLOCK     CODE     ---       LVL=0
      00FF20ADH   LINE      CODE     ---       #55
      00FF20ADH   LINE      CODE     ---       #57
      00FF20BDH   LINE      CODE     ---       #58
      00FF20BFH   LINE      CODE     ---       #59
      ---         BLOCKEND  ---      ---       LVL=0

      00FF20E6H   BLOCK     CODE     ---       LVL=0
      00FF20E6H   LINE      CODE     ---       #61
      00FF20E6H   LINE      CODE     ---       #63
      00FF20F6H   LINE      CODE     ---       #64
      00FF20F8H   LINE      CODE     ---       #65
      ---         BLOCKEND  ---      ---       LVL=0

      00FF20D3H   BLOCK     CODE     ---       LVL=0
      00FF20D3H   LINE      CODE     ---       #67
      00FF20D3H   LINE      CODE     ---       #69
      00FF20E3H   LINE      CODE     ---       #70
      00FF20E5H   LINE      CODE     ---       #71
      ---         BLOCKEND  ---      ---       LVL=0

      00FF205DH   BLOCK     CODE     ---       LVL=0
      WR0         REGSYM    ---      WORD      cycle
      00FF205DH   LINE      CODE     ---       #73
      00FF205FH   LINE      CODE     ---       #75
      00FF206AH   LINE      CODE     ---       #76
      00FF2071H   LINE      CODE     ---       #77
      ---         BLOCKEND  ---      ---       LVL=0

      00FF2033H   BLOCK     CODE     ---       LVL=0
      WR0         REGSYM    ---      WORD      duty
L251 LINKER/LOCATER V4.66.93.0                                                        06/18/2023  10:11:36  PAGE 49


      00FF2033H   LINE      CODE     ---       #79
      00FF2035H   LINE      CODE     ---       #81
      00FF2040H   LINE      CODE     ---       #82
      00FF2047H   LINE      CODE     ---       #83
      ---         BLOCKEND  ---      ---       LVL=0

      00FF2048H   BLOCK     CODE     ---       LVL=0
      WR0         REGSYM    ---      WORD      duty
      00FF2048H   LINE      CODE     ---       #85
      00FF204AH   LINE      CODE     ---       #87
      00FF2055H   LINE      CODE     ---       #88
      00FF205CH   LINE      CODE     ---       #89
      ---         BLOCKEND  ---      ---       LVL=0

      00FF1251H   BLOCK     CODE     ---       LVL=0
      00FF1251H   LINE      CODE     ---       #91
      00FF1251H   LINE      CODE     ---       #93
      00FF125DH   LINE      CODE     ---       #94
      00FF126AH   LINE      CODE     ---       #96
      00FF126FH   LINE      CODE     ---       #97
      00FF1276H   LINE      CODE     ---       #98
      00FF127EH   LINE      CODE     ---       #99
      00FF1287H   LINE      CODE     ---       #100
      00FF128FH   LINE      CODE     ---       #101
      00FF1298H   LINE      CODE     ---       #102
      00FF12A1H   LINE      CODE     ---       #103
      00FF12AAH   LINE      CODE     ---       #104
      ---         BLOCKEND  ---      ---       LVL=0

      00FF1199H   BLOCK     CODE     ---       LVL=0
      00FF1199H   LINE      CODE     ---       #106
      00FF1199H   LINE      CODE     ---       #108
      00FF11A5H   LINE      CODE     ---       #109
      00FF11B2H   LINE      CODE     ---       #110
      00FF11B7H   LINE      CODE     ---       #112
      00FF11C0H   LINE      CODE     ---       #113
      00FF11C8H   LINE      CODE     ---       #114
      00FF11D1H   LINE      CODE     ---       #115
      00FF11D9H   LINE      CODE     ---       #116
      00FF11E2H   LINE      CODE     ---       #117
      00FF11EBH   LINE      CODE     ---       #118
      00FF11F4H   LINE      CODE     ---       #119
      ---         BLOCKEND  ---      ---       LVL=0

      00FF11F5H   BLOCK     CODE     ---       LVL=0
      00FF11F5H   LINE      CODE     ---       #121
      00FF11F5H   LINE      CODE     ---       #123
      00FF1201H   LINE      CODE     ---       #124
      00FF120EH   LINE      CODE     ---       #126
      00FF1213H   LINE      CODE     ---       #127
      00FF121CH   LINE      CODE     ---       #128
      00FF1224H   LINE      CODE     ---       #129
      00FF122DH   LINE      CODE     ---       #130
      00FF1235H   LINE      CODE     ---       #131
      00FF123EH   LINE      CODE     ---       #132
      00FF1247H   LINE      CODE     ---       #133
      00FF1250H   LINE      CODE     ---       #134
      ---         BLOCKEND  ---      ---       LVL=0

      00FF12ABH   BLOCK     CODE     ---       LVL=0
      00FF12ABH   LINE      CODE     ---       #136
      00FF12ABH   LINE      CODE     ---       #138
      00FF12B7H   LINE      CODE     ---       #139
      00FF12C4H   LINE      CODE     ---       #140
      00FF12C9H   LINE      CODE     ---       #142
L251 LINKER/LOCATER V4.66.93.0                                                        06/18/2023  10:11:36  PAGE 50


      00FF12D2H   LINE      CODE     ---       #143
      00FF12DAH   LINE      CODE     ---       #144
      00FF12E3H   LINE      CODE     ---       #145
      00FF12EBH   LINE      CODE     ---       #146
      00FF12F4H   LINE      CODE     ---       #147
      00FF12FBH   LINE      CODE     ---       #148
      00FF1304H   LINE      CODE     ---       #149
      ---         BLOCKEND  ---      ---       LVL=0

      ---         MODULE    ---      ---       VSPRINTF
      00000049H   PUBLIC    EDATA    ---       ?VSPRINTF?BYTE
      00FF00CEH   PUBLIC    CODE     NEAR LAB  VSPRINTF

      ---         MODULE    ---      ---       ?C?PRNFMT
      00FF0117H   PUBLIC    CODE     ---       ?C?PRNFMT

      ---         MODULE    ---      ---       ?C?FPCONVERT
      00FF0534H   PUBLIC    CODE     ---       ?C?FPCONVERT
      00FF05ECH   PUBLIC    CODE     ---       ?C?FPROUND

      ---         MODULE    ---      ---       ?C?FPMUL
      00FF062FH   PUBLIC    CODE     ---       ?C?FPMUL

      ---         MODULE    ---      ---       ?C?FPDIV
      00FF06CFH   PUBLIC    CODE     ---       ?C?FPDIV

      ---         MODULE    ---      ---       ?C?FTNPWR
      00FF0780H   PUBLIC    CODE     ---       ?C?FTNPWR

      ---         MODULE    ---      ---       ?C?FPGETOPN
      00FF07B7H   PUBLIC    CODE     ---       ?C?FPGETOPN2
      00FF07F4H   PUBLIC    CODE     ---       ?C?FPNANRESULT
      00FF07FCH   PUBLIC    CODE     ---       ?C?FPOVERFLOW
      00FF07D0H   PUBLIC    CODE     ---       ?C?FPRESULT
      00FF07E6H   PUBLIC    CODE     ---       ?C?FPRESULT2
      00FF07F9H   PUBLIC    CODE     ---       ?C?FPUNDERFLOW

      ---         MODULE    ---      ---       ?C_START
      00FF0000H   PUBLIC    CODE     ---       ?C?STARTUP
      00FF0000H   PUBLIC    CODE     ---       ?C_STARTUP

      ---         MODULE    ---      ---       ?C?INITEDATA
      00FF1728H   PUBLIC    CODE     ---       ?C?INITEDATA

      ---         MODULE    ---      ---       ?C?LMUL
      00FF0808H   PUBLIC    CODE     ---       ?C?LMUL

      ---         MODULE    ---      ---       STRLEN
      00FF2155H   PUBLIC    CODE     ---       strlen?_

      ---         MODULE    ---      ---       memcpy
      00FF1B6DH   PUBLIC    CODE     ---       memcpy?_

      ---         MODULE    ---      ---       ?C?INITEDATA_END
      00FF220DH   PUBLIC    HCONST   WORD      ?C?INITEDATA_END

Program Size: data=8.4 edata+hdata=454 xdata=192 const=146 code=8573
L251 RUN COMPLETE.  0 WARNING(S),  0 ERROR(S)
